(dp1
S'version'
p2
(lp3
((S'HasTraits'
p4
S'enthought.traits.has_traits'
p5
tI-1
tp6
a((S'HasStrictTraits'
p7
g5
tI-1
tp8
a((S'Engine'
p9
S'enthought.mayavi.core.engine'
p10
tI0
tp11
a((S'EnvisageEngine'
p12
S'enthought.mayavi.plugins.envisage_engine'
p13
tI0
tp14
asS'class_name'
p15
g12
sS'initargs'
p16
(dp17
S'data'
p18
(tsS'type'
p19
S'tuple'
p20
sS'id'
p21
I1
ssg19
S'instance'
p22
sg21
I0
sS'module'
p23
g13
sg18
(dp24
g18
(dp25
S'_current_selection'
p26
(dp27
g2
(lp28
((g4
g5
tI-1
tp29
a((S'HasPrivateTraits'
p30
g5
tI-1
tp31
a((S'TreeNodeObject'
p32
S'enthought.traits.ui.tree_node'
p33
tI-1
tp34
a((S'Base'
p35
S'enthought.mayavi.core.base'
p36
tI0
tp37
a((S'PipelineBase'
p38
S'enthought.mayavi.core.pipeline_base'
p39
tI0
tp40
a((S'Source'
p41
S'enthought.mayavi.core.source'
p42
tI0
tp43
a((S'Filter'
p44
S'enthought.mayavi.core.filter'
p45
tI0
tp46
a((S'Collection'
p47
S'enthought.mayavi.filters.collection'
p48
tI0
tp49
a((S'CutPlane'
p50
S'enthought.mayavi.filters.cut_plane'
p51
tI0
tp52
asg15
g50
sg16
(dp53
g18
Nsg19
S'reference'
p54
sg21
I1
ssg19
g22
sg21
I3
sg23
g51
sg18
(dp55
g18
(dp56
S'name'
p57
g50
sS'_pipeline_ready'
p58
I01
sS'output_info'
p59
(dp60
g2
(lp61
((g4
g5
tI-1
tp62
a((S'PipelineInfo'
p63
S'enthought.mayavi.core.pipeline_info'
p64
tI-1
tp65
asg15
g63
sg16
(dp66
g18
Nsg19
g54
sg21
I1
ssg19
g22
sg21
I111
sg23
g64
sg18
(dp67
g18
(dp68
S'attribute_types'
p69
(dp70
g18
(lp71
S'any'
p72
asg19
S'list'
p73
sg21
I113
ssS'datasets'
p74
(dp75
g18
(lp76
S'poly_data'
p77
asg19
g73
sg21
I114
ssS'attributes'
p78
(dp79
g18
(lp80
g72
asg19
g73
sg21
I115
sssg19
S'dict'
p81
sg21
I112
sssS'visible'
p82
I01
sS'_saved_state'
p83
S''
sS'filters'
p84
(dp85
g18
(lp86
(dp87
g2
(lp88
((g4
g5
tI-1
tp89
a((g30
g5
tI-1
tp90
a((g32
g33
tI-1
tp91
a((g35
g36
tI0
tp92
a((g38
g39
tI0
tp93
a((S'Component'
p94
S'enthought.mayavi.core.component'
p95
tI0
tp96
a((S'ImplicitPlane'
p97
S'enthought.mayavi.components.implicit_plane'
p98
tI0
tp99
asg15
g97
sg16
(dp100
g18
Nsg19
g54
sg21
I1
ssg19
g22
sg21
I6
sg23
g98
sg18
(dp101
g18
(dp102
S'widget'
p103
(dp104
g2
(lp105
((g4
g5
tI-1
tp106
a((g7
g5
tI-1
tp107
a((S'TVTKBase'
p108
S'enthought.tvtk.tvtk_base'
p109
tI-1
tp110
a((S'ObjectBase'
p111
S'tvtk_classes.object_base'
p112
tI-1
tp113
a((S'Object'
p114
S'tvtk_classes.object'
p115
tI-1
tp116
a((S'InteractorObserver'
p117
S'tvtk_classes.interactor_observer'
p118
tI-1
tp119
a((S'ThreeDWidget'
p120
S'tvtk_classes.three_d_widget'
p121
tI-1
tp122
a((S'PolyDataSourceWidget'
p123
S'tvtk_classes.poly_data_source_widget'
p124
tI-1
tp125
a((S'ImplicitPlaneWidget'
p126
S'tvtk_classes.implicit_plane_widget'
p127
tI-1
tp128
asg15
g126
sg16
(dp129
g18
(NI0
tp130
sg19
g20
sg21
I9
ssg19
g22
sg21
I8
sg23
g127
sg18
(dp131
g18
(dp132
S'origin'
p133
(dp134
g18
S'H4sIAA3vH04C/2tgSs4rzS2o1EvOL0rVyy3NKclMLCpKrOSKL0pNzs8rLikqTS7hKmSEqOLKS4HI\nFjJ5M7SGMia1BxUya3gzejO3QhWklFQWpHIVsoQypVl4M3gzAhWwangzhzLa+Pn5ef0HAjDhzVCS\n1BkqwQAFLGBSxQFIJB98w+dQkqQHAEl5CkSZAAAA\n'
p135
sg19
S'numeric'
p136
sg21
I11
ssS'handle_size'
p137
F0.01
sS'normal_to_z_axis_'
p138
I1
sS'draw_plane'
p139
I0
sS'draw_plane_'
p140
I0
sS'key_press_activation'
p141
I0
sS'diagonal_ratio'
p142
F0.29999999999999999
sS'origin_translation'
p143
I1
sS'scale_enabled'
p144
I1
sS'outline_translation'
p145
I0
sS'priority'
p146
F0.5
sS'normal_to_y_axis'
p147
I0
sS'scale_enabled_'
p148
I1
sS'key_press_activation_value'
p149
S'i'
sS'normal'
p150
(dp151
g18
S'H4sIAA3vH04C/2tgSs4rzS2o1EvOL0rVyy3NKclMLCpKrOSKL0pNzs8rLikqTS7hKmSEqOLKS4HI\nFjJ5M7SGMia1BxUya3gzejO3QhWklFQWpHIVsoQypVl4M3gzAhWwangzhzLa+Pn5ef0HAjDhzVCS\n1BkqwYAVfLAvSdIDAFBUFn+ZAAAA\n'
p152
sg19
g136
sg21
I12
ssS'normal_to_x_axis'
p153
I0
sS'normal_to_z_axis'
p154
I1
sS'global_warning_display_'
p155
I0
sS'key_press_activation_'
p156
I0
sS'normal_to_x_axis_'
p157
I0
sS'enabled_'
p158
I1
sS'place_factor'
p159
F1.2
sS'tubing_'
p160
I1
sS'origin_translation_'
p161
I1
sS'outside_bounds'
p162
I1
sS'outside_bounds_'
p163
I1
sS'enabled'
p164
I1
sS'debug_'
p165
I0
sS'outline_translation_'
p166
I0
sS'normal_to_y_axis_'
p167
I0
sS'debug'
p168
I0
sS'tubing'
p169
I1
ssg19
g81
sg21
I10
sssg57
g97
sg82
I01
sg83
S''
sS'plane'
p170
(dp171
g2
(lp172
((g4
g5
tI-1
tp173
a((g7
g5
tI-1
tp174
a((g108
g109
tI-1
tp175
a((g111
g112
tI-1
tp176
a((g114
g115
tI-1
tp177
a((S'ImplicitFunction'
p178
S'tvtk_classes.implicit_function'
p179
tI-1
tp180
a((S'Plane'
p181
S'tvtk_classes.plane'
p182
tI-1
tp183
asg15
g181
sg16
(dp184
g18
Nsg19
g54
sg21
I9
ssg19
g22
sg21
I13
sg23
g182
sg18
(dp185
g18
(dp186
g133
(dp187
g18
S'H4sIAA3vH04C/2tgSs4rzS2o1EvOL0rVyy3NKclMLCpKrOSKL0pNzs8rLikqTS7hKmSEqOLKS4HI\nFjJ5M7SGMia1BxUya3gzejO3QhWklFQWpHIVsoQypVl4M3gzAhWwangzhzLa+Pn5ef0HAjDhzVCS\n1BkqwQAFLGBSxQFIJB98w+dQkqQHAEl5CkSZAAAA\n'
p188
sg19
g136
sg21
I15
ssg155
I0
sg168
I0
sg165
I0
sg150
(dp189
g18
S'H4sIAA3vH04C/2tgSs4rzS2o1EvOL0rVyy3NKclMLCpKrOSKL0pNzs8rLikqTS7hKmSEqOLKS4HI\nFjJ5M7SGMia1BxUya3gzejO3QhWklFQWpHIVsoQypVl4M3gzAhWwangzhzLa+Pn5ef0HAjDhzVCS\n1BkqwYAVfLAvSdIDAFBUFn+ZAAAA\n'
p190
sg19
g136
sg21
I16
sssg19
g81
sg21
I14
sssS'_busy'
p191
I00
sS'_first'
p192
I00
ssg19
g81
sg21
I7
ssa(dp193
g2
(lp194
((g4
g5
tI-1
tp195
a((g30
g5
tI-1
tp196
a((g32
g33
tI-1
tp197
a((g35
g36
tI0
tp198
a((g38
g39
tI0
tp199
a((g94
g95
tI0
tp200
a((S'Cutter'
p201
S'enthought.mayavi.components.cutter'
p202
tI0
tp203
asg15
g201
sg16
(dp204
g18
Nsg19
g54
sg21
I1
ssg19
g22
sg21
I17
sg23
g202
sg18
(dp205
g18
(dp206
g82
I01
sg83
S''
sg57
g201
sS'cutter'
p207
(dp208
g2
(lp209
((g4
g5
tI-1
tp210
a((g7
g5
tI-1
tp211
a((g108
g109
tI-1
tp212
a((g111
g112
tI-1
tp213
a((g114
g115
tI-1
tp214
a((S'Algorithm'
p215
S'tvtk_classes.algorithm'
p216
tI-1
tp217
a((S'PolyDataAlgorithm'
p218
S'tvtk_classes.poly_data_algorithm'
p219
tI-1
tp220
a((g201
S'tvtk_classes.cutter'
p221
tI-1
tp222
asg15
g201
sg16
(dp223
g18
Nsg19
g54
sg21
I9
ssg19
g22
sg21
I19
sg23
g221
sg18
(dp224
g18
(dp225
S'generate_cut_scalars_'
p226
I0
sg168
I0
sS'abort_execute_'
p227
I0
sS'progress_text'
p228
Nsg165
I0
sS'sort_by'
p229
S'sort_by_value'
p230
sg155
I0
sS'generate_cut_scalars'
p231
I0
sS'abort_execute'
p232
I0
sS'release_data_flag'
p233
I0
sS'release_data_flag_'
p234
I0
sS'progress'
p235
F1
sS'number_of_contours'
p236
I1
ssg19
g81
sg21
I20
ssssg19
g81
sg21
I18
ssasg19
g73
sg21
I5
ssS'recorder'
p237
Nsg19
S' filter'
p238
sS'children'
p239
(dp240
g18
(lp241
(dp242
g2
(lp243
((g4
g5
tI-1
tp244
a((g30
g5
tI-1
tp245
a((g32
g33
tI-1
tp246
a((g35
g36
tI0
tp247
a((S'ModuleManager'
p248
S'enthought.mayavi.core.module_manager'
p249
tI0
tp250
asg15
g248
sg16
(dp251
g18
Nsg19
g54
sg21
I1
ssg19
g22
sg21
I22
sg23
g249
sg18
(dp252
g18
(dp253
g57
S'Colors and legends'
p254
sS'lut_data_mode'
p255
S'auto'
p256
sS'vector_lut_manager'
p257
(dp258
g2
(lp259
((g4
g5
tI-1
tp260
a((g30
g5
tI-1
tp261
a((g32
g33
tI-1
tp262
a((g35
g36
tI0
tp263
a((S'LUTManager'
p264
S'enthought.mayavi.core.lut_manager'
p265
tI0
tp266
asg15
g264
sg16
(dp267
g18
Nsg19
g54
sg21
I1
ssg19
g22
sg21
I24
sg23
g265
sg18
(dp268
g18
(dp269
S'default_data_range'
p270
(dp271
g18
S'H4sIAA3vH04C/2tgSs4rzS2o1EvOL0rVyy3NKclMLCpKrOSKL0pNzs8rLikqTS7hKmSEqOLKS4HI\nFjJ5M7SGMia1BxUya3gzejO1QhWklFQWpHIVsoQypVl4M3gzAhWwangzhzLa+Pn5ef0HAjDhzVCS\n1BkqwIACPtiXJOkBAIHIRA6RAAAA\n'
p272
sg19
g136
sg21
I32
ssS'use_default_name'
p273
I01
sS'lut'
p274
(dp275
g2
(lp276
((g4
g5
tI-1
tp277
a((g7
g5
tI-1
tp278
a((g108
g109
tI-1
tp279
a((g111
g112
tI-1
tp280
a((g114
g115
tI-1
tp281
a((S'ScalarsToColors'
p282
S'tvtk_classes.scalars_to_colors'
p283
tI-1
tp284
a((S'LookupTable'
p285
S'tvtk_classes.lookup_table'
p286
tI-1
tp287
asg15
g285
sg16
(dp288
g18
Nsg19
g54
sg21
I9
ssg19
g22
sg21
I33
sg23
g286
sg18
(dp289
g18
(dp290
S'ramp_'
p291
I2
sS'scale'
p292
S'linear'
p293
sS'saturation_range'
p294
(dp295
g18
S'H4sIAA3vH04C/2tgSs4rzS2o1EvOL0rVyy3NKclMLCpKrOSKL0pNzs8rLikqTS7hKmSEqOLKS4HI\nFjJ5M7SGMia1BxUya3gzejO1QhWklFQWpHIVsoQypVl4M3gzAhWwangzhzLa+Pn5ef0HAjDhzVCS\n1BkqwAAGH+xhdEmSHgBnOGdykQAAAA==\n'
p296
sg19
g136
sg21
I35
ssS'table_range'
p297
(dp298
g18
S'H4sIAA3vH04C/2tgSs4rzS2o1EvOL0rVyy3NKclMLCpKrOSKL0pNzs8rLikqTS7hKmSEqOLKS4HI\nFjJ5M7SGMia1BxUya3gzejO1QhWklFQWpHIVsoQypVl4M3gzAhWwangzhzLa+Pn5ef0HAjDhzVCS\n1BkqwIACPtiXJOkBAIHIRA6RAAAA\n'
p299
sg19
g136
sg21
I37
ssS'hue_range'
p300
(dp301
g18
S'H4sIAA3vH04C/2tgSs4rzS2o1EvOL0rVyy3NKclMLCpKrOSKL0pNzs8rLikqTS7hKmSEqOLKS4HI\nFjJ5M7SGMia1BxUya3gzejO1QhWklFQWpHIVsoQypVl4M3gzAhWwangzhzLa+Pn5ef0HAjDhzVCS\n1Bkq4H2C3XZ26FN7BigoSdIDAObNAnCRAAAA\n'
p302
sg19
g136
sg21
I36
ssS'number_of_table_values'
p303
I256
sS'ramp'
p304
S'sqrt'
p305
sg165
I0
sS'number_of_colors'
p306
I256
sS'alpha_range'
p307
(dp308
g18
S'H4sIAA3vH04C/2tgSs4rzS2o1EvOL0rVyy3NKclMLCpKrOSKL0pNzs8rLikqTS7hKmSEqOLKS4HI\nFjJ5M7SGMia1BxUya3gzejO1QhWklFQWpHIVsoQypVl4M3gzAhWwangzhzLa+Pn5ef0HAjDhzVCS\n1BkqwAAGH+xhdEmSHgBnOGdykQAAAA==\n'
p309
sg19
g136
sg21
I38
ssS'range'
p310
(dp311
g18
S'H4sIAA3vH04C/2tgSs4rzS2o1EvOL0rVyy3NKclMLCpKrOSKL0pNzs8rLikqTS7hKmSEqOLKS4HI\nFjJ5M7SGMia1BxUya3gzejO1QhWklFQWpHIVsoQypVl4M3gzAhWwangzhzLa+Pn5ef0HAjDhzVCS\n1BkqwIACPtiXJOkBAIHIRA6RAAAA\n'
p312
sg19
g136
sg21
I39
ssS'vector_component'
p313
I0
sS'value_range'
p314
(dp315
g18
S'H4sIAA3vH04C/2tgSs4rzS2o1EvOL0rVyy3NKclMLCpKrOSKL0pNzs8rLikqTS7hKmSEqOLKS4HI\nFjJ5M7SGMia1BxUya3gzejO1QhWklFQWpHIVsoQypVl4M3gzAhWwangzhzLa+Pn5ef0HAjDhzVCS\n1BkqwAAGH+xhdEmSHgBnOGdykQAAAA==\n'
p316
sg19
g136
sg21
I40
ssg168
I0
sS'alpha'
p317
F1
sS'vector_mode'
p318
S'component'
p319
sg155
I0
ssg19
g81
sg21
I34
sssS'_label_text_property'
p320
(dp321
g2
(lp322
((g4
g5
tI-1
tp323
a((g7
g5
tI-1
tp324
a((g108
g109
tI-1
tp325
a((g111
g112
tI-1
tp326
a((g114
g115
tI-1
tp327
a((S'TextProperty'
p328
S'tvtk_classes.text_property'
p329
tI-1
tp330
asg15
g328
sg16
(dp331
g18
Nsg19
g54
sg21
I9
ssg19
g22
sg21
I28
sg23
g329
sg18
(dp332
g18
(dp333
S'opacity'
p334
F1
sS'justification'
p335
S'left'
p336
sS'font_size'
p337
I12
sS'orientation'
p338
F0
sS'line_offset'
p339
F0
sS'italic_'
p340
I1
sS'vertical_justification'
p341
S'bottom'
p342
sS'shadow_'
p343
I0
sg165
I0
sS'line_spacing'
p344
F1.1000000000000001
sS'color'
p345
(dp346
g18
(F1
F1
F1
tp347
sg19
g20
sg21
I31
ssS'italic'
p348
I1
sS'shadow_offset'
p349
(dp350
g18
S'H4sIAA3vH04C/2tgSs4rzS2o1EvOL0rVyy3NKclMLCpKrOSKL0pNzs8rLikqTS7hKmSEqOLKS4HI\nFjJ5M7SGMia1BxUya3gzejO1QhWklFQWpHIVsoQyZZp4M3gzAhWwangzhzLa+Pn5ef0HAjDhzVCS\n1BnKwcjAwADiliTpAQCk2G9tiQAAAA==\n'
p351
sg19
g136
sg21
I30
ssg168
I0
sS'bold_'
p352
I1
sS'shadow'
p353
I0
sS'font_family'
p354
S'arial'
p355
sg155
I0
sS'bold'
p356
I1
ssg19
g81
sg21
I29
sssS'default_data_name'
p357
S'No vectors'
p358
sS'scalar_bar_widget'
p359
(dp360
g2
(lp361
((g4
g5
tI-1
tp362
a((g7
g5
tI-1
tp363
a((g108
g109
tI-1
tp364
a((g111
g112
tI-1
tp365
a((g114
g115
tI-1
tp366
a((g117
g118
tI-1
tp367
a((S'AbstractWidget'
p368
S'tvtk_classes.abstract_widget'
p369
tI-1
tp370
a((S'BorderWidget'
p371
S'tvtk_classes.border_widget'
p372
tI-1
tp373
a((S'ScalarBarWidget'
p374
S'tvtk_classes.scalar_bar_widget'
p375
tI-1
tp376
asg15
g374
sg16
(dp377
g18
Nsg19
g54
sg21
I9
ssg19
g22
sg21
I26
sg23
g375
sg18
(dp378
g18
(dp379
S'process_events_'
p380
I1
sg149
S'i'
sS'resizable'
p381
I1
sg155
I0
sg168
I0
sg164
I0
sg156
I0
sg165
I0
sS'manages_cursor'
p382
I1
sg146
F0.5
sS'repositionable'
p383
I1
sS'repositionable_'
p384
I1
sS'manages_cursor_'
p385
I1
sg158
I0
sS'resizable_'
p386
I1
sS'selectable_'
p387
I0
sS'selectable'
p388
I0
sg141
I0
sS'process_events'
p389
I1
ssg19
g81
sg21
I27
sssS'number_of_labels'
p390
I8
sS'data_name'
p391
g358
sS'data_range'
p392
(dp393
g18
Nsg19
g54
sg21
I32
ssg306
I256
sS'_title_text_property'
p394
(dp395
g2
(lp396
((g4
g5
tI-1
tp397
a((g7
g5
tI-1
tp398
a((g108
g109
tI-1
tp399
a((g111
g112
tI-1
tp400
a((g114
g115
tI-1
tp401
a((g328
g329
tI-1
tp402
asg15
g328
sg16
(dp403
g18
Nsg19
g54
sg21
I9
ssg19
g22
sg21
I41
sg23
g329
sg18
(dp404
g18
(dp405
g334
F1
sg335
g336
sg337
I12
sg338
F0
sg339
F0
sg340
I1
sg341
g342
sg343
I0
sg165
I0
sg344
F1.1000000000000001
sg345
(dp406
g18
Nsg19
g54
sg21
I31
ssg348
I1
sg349
(dp407
g18
S'H4sIAA3vH04C/2tgSs4rzS2o1EvOL0rVyy3NKclMLCpKrOSKL0pNzs8rLikqTS7hKmSEqOLKS4HI\nFjJ5M7SGMia1BxUya3gzejO1QhWklFQWpHIVsoQyZZp4M3gzAhWwangzhzLa+Pn5ef0HAjDhzVCS\n1BnKwcjAwADiliTpAQCk2G9tiQAAAA==\n'
p408
sg19
g136
sg21
I43
ssg168
I0
sg352
I1
sg353
I0
sg354
g355
sg155
I0
sg356
I1
ssg19
g81
sg21
I42
sssg83
S''
sS'use_default_range'
p409
I01
sS'show_scalar_bar'
p410
I00
sS'scalar_bar'
p411
(dp412
g2
(lp413
((g4
g5
tI-1
tp414
a((g7
g5
tI-1
tp415
a((g108
g109
tI-1
tp416
a((g111
g112
tI-1
tp417
a((g114
g115
tI-1
tp418
a((S'Prop'
p419
S'tvtk_classes.prop'
p420
tI-1
tp421
a((S'Actor2D'
p422
S'tvtk_classes.actor2d'
p423
tI-1
tp424
a((S'ScalarBarActor'
p425
S'tvtk_classes.scalar_bar_actor'
p426
tI-1
tp427
asg15
g425
sg16
(dp428
g18
Nsg19
g54
sg21
I9
ssg19
g22
sg21
I44
sg23
g426
sg18
(dp429
g18
(dp430
g338
S'vertical'
p431
sS'dragable'
p432
I1
sS'height'
p433
F0.17000000000000001
sS'visibility_'
p434
I1
sS'layer_number'
p435
I0
sS'title'
p436
S'No vectors'
p437
sS'label_format'
p438
S'%-#6.3g'
p439
sS'width'
p440
F0.80000000000000004
sS'texture_grid_width'
p441
F10
sS'text_position'
p442
S'succeed_scalar_bar'
p443
sS'pickable'
p444
I1
sS'use_opacity'
p445
I0
sS'visibility'
p446
I1
sS'dragable_'
p447
I1
sg155
I0
sS'maximum_number_of_colors'
p448
I256
sS'orientation_'
p449
I1
sS'pickable_'
p450
I1
sg390
I8
sg165
I0
sS'position2'
p451
(dp452
g18
S'H4sIAA3vH04C/2tgSs4rzS2o1EvOL0rVyy3NKclMLCpKrOSKL0pNzs8rLikqTS7hKmSEqOLKS4HI\nFjJ5M7SGMia1BxUya3gzejO1QhWklFQWpHIVsoQypVl4M3gzAhWwangzhzLa+Pn5ef0HAjDhzVCS\n1BkqMGsmCLy0P/xVI6b/0FH7kiQ9AGpIg++RAAAA\n'
p453
sg19
g136
sg21
I47
ssS'use_opacity_'
p454
I0
sg168
I0
sS'position'
p455
(dp456
g18
S'H4sIAA3vH04C/2tgSs4rzS2o1EvOL0rVyy3NKclMLCpKrOSKL0pNzs8rLikqTS7hKmSEqOLKS4HI\nFjJ5M7SGMia1BxUya3gzejO1QhWklFQWpHIVsoQypVl4M3gzAhWwangzhzLa+Pn5ef0HAjDhzVCS\n1BkqMGsmCOy0rxZZ5/6wqsW+JEkPAHMFfKeRAAAA\n'
p457
sg19
g136
sg21
I46
sssg19
g81
sg21
I45
sssg353
I00
sS'reverse_lut'
p458
I00
sS'lut_mode'
p459
S'blue-red'
p460
ssg19
g81
sg21
I25
sssg83
S''
sS'scalar_lut_manager'
p461
(dp462
g2
(lp463
((g4
g5
tI-1
tp464
a((g30
g5
tI-1
tp465
a((g32
g33
tI-1
tp466
a((g35
g36
tI0
tp467
a((g264
g265
tI0
tp468
asg15
g264
sg16
(dp469
g18
Nsg19
g54
sg21
I1
ssg19
g22
sg21
I48
sg23
g265
sg18
(dp470
g18
(dp471
g270
(dp472
g18
S'H4sIAA3vH04C/2tgSs4rzS2o1EvOL0rVyy3NKclMLCpKrOSKL0pNzs8rLikqTS7hKmSEqOLKS4HI\nFjJ5M7SGMia1BxUya3gzejO1QhWklFQWpHIVsoQypVl4M3gzAhWwangzhzLa+Pn5ef0HAjDhzVCS\n1BkqwIACPtiXJOkBAIHIRA6RAAAA\n'
p473
sg19
g136
sg21
I55
ssg273
I01
sg274
(dp474
g2
(lp475
((g4
g5
tI-1
tp476
a((g7
g5
tI-1
tp477
a((g108
g109
tI-1
tp478
a((g111
g112
tI-1
tp479
a((g114
g115
tI-1
tp480
a((g282
g283
tI-1
tp481
a((g285
g286
tI-1
tp482
asg15
g285
sg16
(dp483
g18
Nsg19
g54
sg21
I9
ssg19
g22
sg21
I56
sg23
g286
sg18
(dp484
g18
(dp485
g291
I2
sg292
g293
sg294
(dp486
g18
S'H4sIAA3vH04C/2tgSs4rzS2o1EvOL0rVyy3NKclMLCpKrOSKL0pNzs8rLikqTS7hKmSEqOLKS4HI\nFjJ5M7SGMia1BxUya3gzejO1QhWklFQWpHIVsoQypVl4M3gzAhWwangzhzLa+Pn5ef0HAjDhzVCS\n1BkqwAAGH+xhdEmSHgBnOGdykQAAAA==\n'
p487
sg19
g136
sg21
I58
ssg297
(dp488
g18
S'H4sIAA3vH04C/2tgSs4rzS2o1EvOL0rVyy3NKclMLCpKrOSKL0pNzs8rLikqTS7hKmSEqOLKS4HI\nFjJ5M7SGMia1BxUya3gzejO1QhWklFQWpHIVsoQypVl4M3gzAhWwangzhzLa+Pn5ef0HAjDhzVCS\n1BkqwIACPtiXJOkBAIHIRA6RAAAA\n'
p489
sg19
g136
sg21
I60
ssg300
(dp490
g18
S'H4sIAA3vH04C/2tgSs4rzS2o1EvOL0rVyy3NKclMLCpKrOSKL0pNzs8rLikqTS7hKmSEqOLKS4HI\nFjJ5M7SGMia1BxUya3gzejO1QhWklFQWpHIVsoQypVl4M3gzAhWwangzhzLa+Pn5ef0HAjDhzVCS\n1Bkq4H2C3XZ26FN7BigoSdIDAObNAnCRAAAA\n'
p491
sg19
g136
sg21
I59
ssg303
I256
sg304
g305
sg165
I0
sg306
I256
sg307
(dp492
g18
S'H4sIAA3vH04C/2tgSs4rzS2o1EvOL0rVyy3NKclMLCpKrOSKL0pNzs8rLikqTS7hKmSEqOLKS4HI\nFjJ5M7SGMia1BxUya3gzejO1QhWklFQWpHIVsoQypVl4M3gzAhWwangzhzLa+Pn5ef0HAjDhzVCS\n1BkqwAAGH+xhdEmSHgBnOGdykQAAAA==\n'
p493
sg19
g136
sg21
I61
ssg310
(dp494
g18
S'H4sIAA3vH04C/2tgSs4rzS2o1EvOL0rVyy3NKclMLCpKrOSKL0pNzs8rLikqTS7hKmSEqOLKS4HI\nFjJ5M7SGMia1BxUya3gzejO1QhWklFQWpHIVsoQypVl4M3gzAhWwangzhzLa+Pn5ef0HAjDhzVCS\n1BkqwIACPtiXJOkBAIHIRA6RAAAA\n'
p495
sg19
g136
sg21
I62
ssg313
I0
sg314
(dp496
g18
S'H4sIAA3vH04C/2tgSs4rzS2o1EvOL0rVyy3NKclMLCpKrOSKL0pNzs8rLikqTS7hKmSEqOLKS4HI\nFjJ5M7SGMia1BxUya3gzejO1QhWklFQWpHIVsoQypVl4M3gzAhWwangzhzLa+Pn5ef0HAjDhzVCS\n1BkqwAAGH+xhdEmSHgBnOGdykQAAAA==\n'
p497
sg19
g136
sg21
I63
ssg168
I0
sg317
F1
sg318
g319
sg155
I0
ssg19
g81
sg21
I57
sssg320
(dp498
g2
(lp499
((g4
g5
tI-1
tp500
a((g7
g5
tI-1
tp501
a((g108
g109
tI-1
tp502
a((g111
g112
tI-1
tp503
a((g114
g115
tI-1
tp504
a((g328
g329
tI-1
tp505
asg15
g328
sg16
(dp506
g18
Nsg19
g54
sg21
I9
ssg19
g22
sg21
I52
sg23
g329
sg18
(dp507
g18
(dp508
g334
F1
sg335
g336
sg337
I12
sg338
F0
sg339
F0
sg340
I1
sg341
g342
sg343
I0
sg165
I0
sg344
F1.1000000000000001
sg345
(dp509
g18
Nsg19
g54
sg21
I31
ssg348
I1
sg349
(dp510
g18
S'H4sIAA3vH04C/2tgSs4rzS2o1EvOL0rVyy3NKclMLCpKrOSKL0pNzs8rLikqTS7hKmSEqOLKS4HI\nFjJ5M7SGMia1BxUya3gzejO1QhWklFQWpHIVsoQyZZp4M3gzAhWwangzhzLa+Pn5ef0HAjDhzVCS\n1BnKwcjAwADiliTpAQCk2G9tiQAAAA==\n'
p511
sg19
g136
sg21
I54
ssg168
I0
sg352
I1
sg353
I0
sg354
g355
sg155
I0
sg356
I1
ssg19
g81
sg21
I53
sssg357
S'No scalars'
p512
sg359
(dp513
g2
(lp514
((g4
g5
tI-1
tp515
a((g7
g5
tI-1
tp516
a((g108
g109
tI-1
tp517
a((g111
g112
tI-1
tp518
a((g114
g115
tI-1
tp519
a((g117
g118
tI-1
tp520
a((g368
g369
tI-1
tp521
a((g371
g372
tI-1
tp522
a((g374
g375
tI-1
tp523
asg15
g374
sg16
(dp524
g18
Nsg19
g54
sg21
I9
ssg19
g22
sg21
I50
sg23
g375
sg18
(dp525
g18
(dp526
g380
I1
sg149
S'i'
sg381
I1
sg155
I0
sg168
I0
sg164
I0
sg156
I0
sg165
I0
sg382
I1
sg146
F0.5
sg383
I1
sg384
I1
sg385
I1
sg158
I0
sg386
I1
sg387
I0
sg388
I0
sg141
I0
sg389
I1
ssg19
g81
sg21
I51
sssg390
I8
sg391
g512
sg392
(dp527
g18
Nsg19
g54
sg21
I55
ssg306
I256
sg394
(dp528
g2
(lp529
((g4
g5
tI-1
tp530
a((g7
g5
tI-1
tp531
a((g108
g109
tI-1
tp532
a((g111
g112
tI-1
tp533
a((g114
g115
tI-1
tp534
a((g328
g329
tI-1
tp535
asg15
g328
sg16
(dp536
g18
Nsg19
g54
sg21
I9
ssg19
g22
sg21
I64
sg23
g329
sg18
(dp537
g18
(dp538
g334
F1
sg335
g336
sg337
I12
sg338
F0
sg339
F0
sg340
I1
sg341
g342
sg343
I0
sg165
I0
sg344
F1.1000000000000001
sg345
(dp539
g18
Nsg19
g54
sg21
I31
ssg348
I1
sg349
(dp540
g18
S'H4sIAA3vH04C/2tgSs4rzS2o1EvOL0rVyy3NKclMLCpKrOSKL0pNzs8rLikqTS7hKmSEqOLKS4HI\nFjJ5M7SGMia1BxUya3gzejO1QhWklFQWpHIVsoQyZZp4M3gzAhWwangzhzLa+Pn5ef0HAjDhzVCS\n1BnKwcjAwADiliTpAQCk2G9tiQAAAA==\n'
p541
sg19
g136
sg21
I66
ssg168
I0
sg352
I1
sg353
I0
sg354
g355
sg155
I0
sg356
I1
ssg19
g81
sg21
I65
sssg83
S''
sg409
I01
sg410
I00
sg411
(dp542
g2
(lp543
((g4
g5
tI-1
tp544
a((g7
g5
tI-1
tp545
a((g108
g109
tI-1
tp546
a((g111
g112
tI-1
tp547
a((g114
g115
tI-1
tp548
a((g419
g420
tI-1
tp549
a((g422
g423
tI-1
tp550
a((g425
g426
tI-1
tp551
asg15
g425
sg16
(dp552
g18
Nsg19
g54
sg21
I9
ssg19
g22
sg21
I67
sg23
g426
sg18
(dp553
g18
(dp554
g338
g431
sg432
I1
sg433
F0.17000000000000001
sg434
I1
sg435
I0
sg436
S'No scalars'
p555
sg438
S'%-#6.3g'
p556
sg440
F0.80000000000000004
sg441
F10
sg442
g443
sg444
I1
sg445
I0
sg446
I1
sg447
I1
sg155
I0
sg448
I256
sg449
I1
sg450
I1
sg390
I8
sg165
I0
sg451
(dp557
g18
S'H4sIAA3vH04C/2tgSs4rzS2o1EvOL0rVyy3NKclMLCpKrOSKL0pNzs8rLikqTS7hKmSEqOLKS4HI\nFjJ5M7SGMia1BxUya3gzejO1QhWklFQWpHIVsoQypVl4M3gzAhWwangzhzLa+Pn5ef0HAjDhzVCS\n1BkqMGsmCLy0P/xVI6b/0FH7kiQ9AGpIg++RAAAA\n'
p558
sg19
g136
sg21
I70
ssg454
I0
sg168
I0
sg455
(dp559
g18
S'H4sIAA3vH04C/2tgSs4rzS2o1EvOL0rVyy3NKclMLCpKrOSKL0pNzs8rLikqTS7hKmSEqOLKS4HI\nFjJ5M7SGMia1BxUya3gzejO1QhWklFQWpHIVsoQypVl4M3gzAhWwangzhzLa+Pn5ef0HAjDhzVCS\n1BkqMGsmCOy0rxZZ5/6wqsW+JEkPAHMFfKeRAAAA\n'
p560
sg19
g136
sg21
I69
sssg19
g81
sg21
I68
sssg353
I00
sg458
I00
sg459
g460
ssg19
g81
sg21
I49
sssg239
(dp561
g18
(lp562
(dp563
g2
(lp564
((g4
g5
tI-1
tp565
a((g30
g5
tI-1
tp566
a((g32
g33
tI-1
tp567
a((g35
g36
tI0
tp568
a((g38
g39
tI0
tp569
a((S'Module'
p570
S'enthought.mayavi.core.module'
p571
tI0
tp572
a((S'Outline'
p573
S'enthought.mayavi.modules.outline'
p574
tI0
tp575
asg15
g573
sg16
(dp576
g18
Nsg19
g54
sg21
I1
ssg19
g22
sg21
I72
sg23
g574
sg18
(dp577
g18
(dp578
g59
(dp579
g2
(lp580
((g4
g5
tI-1
tp581
a((g63
g64
tI-1
tp582
asg15
g63
sg16
(dp583
g18
Nsg19
g54
sg21
I1
ssg19
g22
sg21
I106
sg23
g64
sg18
(dp584
g18
(dp585
g69
(dp586
g18
(lp587
sg19
g73
sg21
I108
ssg74
(dp588
g18
(lp589
S'none'
p590
asg19
g73
sg21
I109
ssg78
(dp591
g18
(lp592
sg19
g73
sg21
I110
sssg19
g81
sg21
I107
sssS'_widget_state'
p593
(dp594
g18
(lp595
sg19
g73
sg21
I74
ssg57
g573
sS'_full_outline'
p596
(dp597
g2
(lp598
((g4
g5
tI-1
tp599
a((g7
g5
tI-1
tp600
a((g108
g109
tI-1
tp601
a((g111
g112
tI-1
tp602
a((g114
g115
tI-1
tp603
a((g215
g216
tI-1
tp604
a((g218
g219
tI-1
tp605
a((S'OutlineFilter'
p606
S'tvtk_classes.outline_filter'
p607
tI-1
tp608
asg15
g606
sg16
(dp609
g18
Nsg19
g54
sg21
I9
ssg19
g22
sg21
I104
sg23
g607
sg18
(dp610
g18
(dp611
g227
I0
sg228
Nsg234
I0
sg165
I0
sg155
I0
sg232
I0
sg233
I0
sg168
I0
sg235
F1
ssg19
g81
sg21
I105
sssS'manual_bounds'
p612
I00
sS'input_info'
p613
(dp614
g2
(lp615
((g4
g5
tI-1
tp616
a((g63
g64
tI-1
tp617
asg15
g63
sg16
(dp618
g18
Nsg19
g54
sg21
I1
ssg19
g22
sg21
I97
sg23
g64
sg18
(dp619
g18
(dp620
g69
(dp621
g18
(lp622
g72
asg19
g73
sg21
I99
ssg74
(dp623
g18
(lp624
g72
asg19
g73
sg21
I100
ssg78
(dp625
g18
(lp626
g72
asg19
g73
sg21
I101
sssg19
g81
sg21
I98
sssS'actor'
p627
(dp628
g2
(lp629
((g4
g5
tI-1
tp630
a((g30
g5
tI-1
tp631
a((g32
g33
tI-1
tp632
a((g35
g36
tI0
tp633
a((g38
g39
tI0
tp634
a((g94
g95
tI0
tp635
a((S'Actor'
p636
S'enthought.mayavi.components.actor'
p637
tI0
tp638
asg15
g636
sg16
(dp639
g18
Nsg19
g54
sg21
I1
ssg19
g22
sg21
I75
sg23
g637
sg18
(dp640
g18
(dp641
S'mapper'
p642
(dp643
g2
(lp644
((g4
g5
tI-1
tp645
a((g7
g5
tI-1
tp646
a((g108
g109
tI-1
tp647
a((g111
g112
tI-1
tp648
a((g114
g115
tI-1
tp649
a((g215
g216
tI-1
tp650
a((S'AbstractMapper'
p651
S'tvtk_classes.abstract_mapper'
p652
tI-1
tp653
a((S'AbstractMapper3D'
p654
S'tvtk_classes.abstract_mapper3d'
p655
tI-1
tp656
a((S'Mapper'
p657
S'tvtk_classes.mapper'
p658
tI-1
tp659
a((S'PolyDataMapper'
p660
S'tvtk_classes.poly_data_mapper'
p661
tI-1
tp662
asg15
g660
sg16
(dp663
g18
Nsg19
g54
sg21
I9
ssg19
g22
sg21
I84
sg23
g661
sg18
(dp664
g18
(dp665
S'immediate_mode_rendering'
p666
I0
sS'immediate_mode_rendering_'
p667
I0
sS'scalar_mode'
p668
S'default'
p669
sS'static'
p670
I0
sg165
I0
sS'resolve_coincident_topology_z_shift'
p671
F0.01
sS'ghost_level'
p672
I0
sS'color_mode'
p673
g669
sS'interpolate_scalars_before_mapping'
p674
I0
sg168
I0
sS'resolve_coincident_topology_'
p675
I0
sS'use_lookup_table_scalar_range'
p676
I1
sg232
I0
sg233
I0
sg235
F1
sS'scalar_range'
p677
(dp678
g18
S'H4sIAA3vH04C/2tgSs4rzS2o1EvOL0rVyy3NKclMLCpKrOSKL0pNzs8rLikqTS7hKmSEqOLKS4HI\nFjJ5M7SGMia1BxUya3gzejO1QhWklFQWpHIVsoQypVl4M3gzAhWwangzhzLa+Pn5ef0HAjDhzVCS\n1BkqwIACPtiXJOkBAIHIRA6RAAAA\n'
p679
sg19
g136
sg21
I86
ssg228
NsS'use_lookup_table_scalar_range_'
p680
I1
sg155
I0
sS'global_immediate_mode_rendering_'
p681
I0
sS'scalar_visibility'
p682
I1
sg227
I0
sS'scalar_visibility_'
p683
I1
sS'static_'
p684
I0
sS'global_immediate_mode_rendering'
p685
I0
sS'interpolate_scalars_before_mapping_'
p686
I0
sS'render_time'
p687
F0
sS'number_of_sub_pieces'
p688
I1
sS'scalar_material_mode'
p689
g669
sg234
I0
sS'piece'
p690
I0
sS'number_of_pieces'
p691
I1
sS'resolve_coincident_topology'
p692
S'off'
p693
sS'resolve_coincident_topology_polygon_offset_faces'
p694
I1
ssg19
g81
sg21
I85
sssg593
(dp695
g18
(lp696
sg19
g73
sg21
I77
ssg57
S''
sg59
Nsg627
(dp697
g2
(lp698
((g4
g5
tI-1
tp699
a((g7
g5
tI-1
tp700
a((g108
g109
tI-1
tp701
a((g111
g112
tI-1
tp702
a((g114
g115
tI-1
tp703
a((g419
g420
tI-1
tp704
a((S'Prop3D'
p705
S'tvtk_classes.prop3d'
p706
tI-1
tp707
a((g636
S'tvtk_classes.actor'
p708
tI-1
tp709
asg15
g636
sg16
(dp710
g18
Nsg19
g54
sg21
I9
ssg19
g22
sg21
I78
sg23
g708
sg18
(dp711
g18
(dp712
g133
(dp713
g18
S'H4sIAA3vH04C/2tgSs4rzS2o1EvOL0rVyy3NKclMLCpKrOSKL0pNzs8rLikqTS7hKmSEqOLKS4HI\nFjJ5M7SGMia1BxUya3gzejO3QhWklFQWpHIVsoQypVl4M3gzAhWwangzhzLa+Pn5ef0HAjDhzVCS\n1BkqwYADlCTpAQD67GqfmQAAAA==\n'
p714
sg19
g136
sg21
I80
ssg292
(dp715
g18
S'H4sIAA3vH04C/2tgSs4rzS2o1EvOL0rVyy3NKclMLCpKrOSKL0pNzs8rLikqTS7hKmSEqOLKS4HI\nFjJ5M7SGMia1BxUya3gzejO3QhWklFQWpHIVsoQypVl4M3gzAhWwangzhzLa+Pn5ef0HAjDhzVCS\n1BkqwQAGH+zR6ZIkPQDfyO6fmQAAAA==\n'
p716
sg19
g136
sg21
I82
ssg338
(dp717
g18
S'H4sIAA3vH04C/2tgSs4rzS2o1EvOL0rVyy3NKclMLCpKrOSKL0pNzs8rLikqTS7hKmSEqOLKS4HI\nFjJ5M7SGMia1BxUya3gzejO3QhWklFQWpHIVsoQypVl4M3gzAhWwangzhzLa+Pn5ef0HAjDhzVCS\n1BkqwYAKGmCMkiQ9ABqDrf+ZAAAA\n'
p718
sg19
g136
sg21
I81
ssg168
I0
sg432
I1
sg446
I1
sg450
I1
sg447
I1
sg155
I0
sg165
I0
sg434
I1
sg455
(dp719
g18
S'H4sIAA3vH04C/2tgSs4rzS2o1EvOL0rVyy3NKclMLCpKrOSKL0pNzs8rLikqTS7hKmSEqOLKS4HI\nFjJ5M7SGMia1BxUya3gzejO3QhWklFQWpHIVsoQypVl4M3gzAhWwangzhzLa+Pn5ef0HAjDhzVCS\n1BkqwYADlCTpAQD67GqfmQAAAA==\n'
p720
sg19
g136
sg21
I83
ssg444
I1
ssg19
g81
sg21
I79
sssg82
I01
sg83
S''
sg613
Nsg237
NsS'property'
p721
(dp722
g2
(lp723
((g4
g5
tI-1
tp724
a((g7
g5
tI-1
tp725
a((g108
g109
tI-1
tp726
a((g111
g112
tI-1
tp727
a((g114
g115
tI-1
tp728
a((S'Property'
p729
S'tvtk_classes.property'
p730
tI-1
tp731
a((S'OpenGLProperty'
p732
S'tvtk_classes.open_gl_property'
p733
tI-1
tp734
asg15
g732
sg16
(dp735
g18
Nsg19
g54
sg21
I9
ssg19
g22
sg21
I87
sg23
g733
sg18
(dp736
g18
(dp737
S'diffuse_color'
p738
(dp739
g18
Nsg19
g54
sg21
I31
ssS'backface_culling'
p740
I0
sS'specular_power'
p741
F1
sS'edge_color'
p742
(dp743
g18
(F0
F0
F0
tp744
sg19
g20
sg21
I89
ssS'ambient'
p745
F0
sS'edge_visibility'
p746
I0
sS'interpolation'
p747
S'gouraud'
p748
sg334
F1
sS'frontface_culling'
p749
I0
sS'point_size'
p750
F1
sS'specular_color'
p751
(dp752
g18
Nsg19
g54
sg21
I31
ssS'ambient_color'
p753
(dp754
g18
Nsg19
g54
sg21
I31
ssS'shading_'
p755
I0
sg155
I0
sS'backface_culling_'
p756
I0
sS'shading'
p757
I0
sS'diffuse'
p758
F1
sS'edge_visibility_'
p759
I0
sg165
I0
sS'specular'
p760
F0
sS'frontface_culling_'
p761
I0
sS'line_stipple_pattern'
p762
I65535
sg168
I0
sS'representation'
p763
S'surface'
p764
sS'line_stipple_repeat_factor'
p765
I1
sS'line_width'
p766
F1
ssg19
g81
sg21
I88
sssg19
S''
ssg19
g81
sg21
I76
sssS'outline_mode'
p767
S'full'
p768
sg82
I01
sg83
S''
sS'outline_source'
p769
(dp770
g2
(lp771
((g4
g5
tI-1
tp772
a((g7
g5
tI-1
tp773
a((g108
g109
tI-1
tp774
a((g111
g112
tI-1
tp775
a((g114
g115
tI-1
tp776
a((g215
g216
tI-1
tp777
a((g218
g219
tI-1
tp778
a((S'OutlineSource'
p779
S'tvtk_classes.outline_source'
p780
tI-1
tp781
asg15
g779
sg16
(dp782
g18
Nsg19
g54
sg21
I9
ssg19
g22
sg21
I90
sg23
g780
sg18
(dp783
g18
(dp784
g168
I0
sg227
I0
sg228
NsS'bounds'
p785
(dp786
g18
S'H4sIAA3vH04C/2tgSs4rzS2o1EvOL0rVyy3NKclMLCpKrOSKL0pNzs8rLikqTS7hKmSEqOLKS4HI\nFjJ5M7SGMia1BxUya3gzerO1QhWklFQWpHIVsoQypVl4M3gzAhWwangzhzLa+Pn5ef0HAjDhzVCS\n1BlqwAAGH/ZDaXtC/JIkPQAkJDhIsQAAAA==\n'
p787
sg19
g136
sg21
I93
ssg165
I0
sg155
I0
sg232
I0
sS'box_type'
p788
S'axis_aligned'
p789
sg233
I0
sS'corners'
p790
(dp791
g18
S'H4sIAA3vH04C/2tgSs4rzS2o1EvOL0rVyy3NKclMLCpKrOSKL0pNzs8rLikqTS7hKmSEqOLKS4HI\nFjJ5M7SGMia1BxUya3gzeku0QhWklFQWpHIVsoQypVl4M3gzAhWwangzhzLa+Pn5ef0HAjDhzVCS\n1Bl6gAEv+GBPmjyMT6w+XPpxqcOkS5L0ACNCKiRBAQAA\n'
p792
sg19
g136
sg21
I92
ssg234
I0
sg235
F0
ssg19
g81
sg21
I91
sssS'_cornered_outline'
p793
(dp794
g2
(lp795
((g4
g5
tI-1
tp796
a((g7
g5
tI-1
tp797
a((g108
g109
tI-1
tp798
a((g111
g112
tI-1
tp799
a((g114
g115
tI-1
tp800
a((g215
g216
tI-1
tp801
a((g218
g219
tI-1
tp802
a((S'OutlineCornerFilter'
p803
S'tvtk_classes.outline_corner_filter'
p804
tI-1
tp805
asg15
g803
sg16
(dp806
g18
Nsg19
g54
sg21
I9
ssg19
g22
sg21
I102
sg23
g804
sg18
(dp807
g18
(dp808
S'corner_factor'
p809
F0.20000000000000001
sg227
I0
sg228
Nsg234
I0
sg165
I0
sg155
I0
sg232
I0
sg233
I0
sg168
I0
sg235
F0
ssg19
g81
sg21
I103
sssg237
NsS'__listener_traits__'
p810
(dp811
g18
(dp812
g785
(dp813
g2
(lp814
sg15
S'function'
p815
sg16
(dp816
g18
Nsg19
g54
sg21
I1
ssg19
g22
sg21
I95
sg23
S'__builtin__'
p817
sg18
(dp818
g18
(dp819
sg19
g81
sg21
I96
ssssg19
g81
sg21
I94
ssg19
S' module'
p820
sS'icon'
p821
S'module.ico'
p822
ssg19
g81
sg21
I73
ssasg19
g73
sg21
I71
ssg821
S'modulemanager.ico'
p823
ssg19
g81
sg21
I23
ssasg19
g73
sg21
I21
ssg821
S'filter.ico'
p824
ssg19
g81
sg21
I4
sssg57
S'Mayavi Envisage Engine'
p825
sS'scene_factory'
p826
(dp827
g2
(lp828
sg15
S'function'
p829
sg16
(dp830
g18
Nsg19
g54
sg21
I1
ssg19
g22
sg21
I116
sg23
S'__builtin__'
p831
sg18
(dp832
g18
(dp833
sg19
g81
sg21
I117
sssS'scenes'
p834
(dp835
g18
(lp836
(dp837
g2
(lp838
((g4
g5
tI-1
tp839
a((g30
g5
tI-1
tp840
a((g32
g33
tI-1
tp841
a((g35
g36
tI0
tp842
a((S'Scene'
p843
S'enthought.mayavi.core.scene'
p844
tI0
tp845
asg15
g843
sg16
(dp846
g18
Nsg19
g54
sg21
I1
ssg19
g22
sg21
I119
sg23
g844
sg18
(dp847
g18
(dp848
g57
VMayavi Scene 1
p849
sS'scene'
p850
(dp851
g2
(lp852
((g4
g5
tI-1
tp853
a((S'MWidget'
p854
S'enthought.pyface.i_widget'
p855
tI-1
tp856
a((S'Widget'
p857
S'enthought.pyface.ui.wx.widget'
p858
tI-1
tp859
a((g30
g5
tI-1
tp860
a((S'TVTKScene'
p861
S'enthought.tvtk.pyface.tvtk_scene'
p862
tI0
tp863
a((g843
S'enthought.tvtk.pyface.ui.wx.scene'
p864
tI0
tp865
a((S'DecoratedScene'
p866
S'enthought.tvtk.pyface.ui.wx.decorated_scene'
p867
tI0
tp868
asg15
g866
sg16
(dp869
g18
Nsg19
g54
sg21
I1
ssg19
g22
sg21
I121
sg23
g867
sg18
(dp870
g18
(dp871
S'picker'
p872
(dp873
g2
(lp874
((g4
g5
tI-1
tp875
a((S'Picker'
p876
S'enthought.tvtk.pyface.picker'
p877
tI0
tp878
asg15
g876
sg16
(dp879
g18
Nsg19
g54
sg21
I1
ssg19
g22
sg21
I123
sg23
g877
sg18
(dp880
g18
(dp881
S'p_mapper'
p882
(dp883
g2
(lp884
((g4
g5
tI-1
tp885
a((g7
g5
tI-1
tp886
a((g108
g109
tI-1
tp887
a((g111
g112
tI-1
tp888
a((g114
g115
tI-1
tp889
a((g215
g216
tI-1
tp890
a((g651
g652
tI-1
tp891
a((g654
g655
tI-1
tp892
a((g657
g658
tI-1
tp893
a((g660
g661
tI-1
tp894
asg15
g660
sg16
(dp895
g18
Nsg19
g54
sg21
I9
ssg19
g22
sg21
I125
sg23
g661
sg18
(dp896
g18
(dp897
g666
I0
sg667
I0
sg668
g669
sg670
I0
sg165
I0
sg671
F0.01
sg672
I0
sg673
g669
sg674
I0
sg168
I0
sg675
I0
sg676
I0
sg232
I0
sg233
I0
sg235
F0
sg677
(dp898
g18
S'H4sIAA3vH04C/2tgSs4rzS2o1EvOL0rVyy3NKclMLCpKrOSKL0pNzs8rLikqTS7hKmSEqOLKS4HI\nFjJ5M7SGMia1BxUya3gzejO1QhWklFQWpHIVsoQypVl4M3gzAhWwangzhzLa+Pn5ef0HAjDhzVCS\n1BkqwIACPtiXJOkBAIHIRA6RAAAA\n'
p899
sg19
g136
sg21
I127
ssg228
Nsg680
I0
sg155
I0
sg681
I0
sg682
I1
sg227
I0
sg683
I1
sg684
I0
sg685
I0
sg686
I0
sg687
F0
sg688
I1
sg689
g669
sg234
I0
sg690
I0
sg691
I1
sg692
g693
sg694
I1
ssg19
g81
sg21
I126
sssS'worldpicker'
p900
(dp901
g2
(lp902
((g4
g5
tI-1
tp903
a((g7
g5
tI-1
tp904
a((g108
g109
tI-1
tp905
a((g111
g112
tI-1
tp906
a((g114
g115
tI-1
tp907
a((S'AbstractPicker'
p908
S'tvtk_classes.abstract_picker'
p909
tI-1
tp910
a((S'WorldPointPicker'
p911
S'tvtk_classes.world_point_picker'
p912
tI-1
tp913
asg15
g911
sg16
(dp914
g18
Nsg19
g54
sg21
I9
ssg19
g22
sg21
I128
sg23
g912
sg18
(dp915
g18
(dp916
g168
I0
sg155
I0
sS'pick_from_list_'
p917
I0
sg165
I0
sS'pick_from_list'
p918
I0
ssg19
g81
sg21
I129
sssS'probe_data'
p919
(dp920
g2
(lp921
((g4
g5
tI-1
tp922
a((g7
g5
tI-1
tp923
a((g108
g109
tI-1
tp924
a((g111
g112
tI-1
tp925
a((g114
g115
tI-1
tp926
a((S'DataObject'
p927
S'tvtk_classes.data_object'
p928
tI-1
tp929
a((S'DataSet'
p930
S'tvtk_classes.data_set'
p931
tI-1
tp932
a((S'PointSet'
p933
S'tvtk_classes.point_set'
p934
tI-1
tp935
a((S'PolyData'
p936
S'tvtk_classes.poly_data'
p937
tI-1
tp938
asg15
g936
sg16
(dp939
g18
Nsg19
g54
sg21
I9
ssg19
g22
sg21
I130
sg23
g937
sg18
(dp940
g18
(dp941
S'update_piece'
p942
I0
sS'whole_extent'
p943
(dp944
g18
S'H4sIAA3vH04C/2tgSs4rzS2o1EvOL0rVyy3NKclMLCpKrOSKL0pNzs8rLikqTS7hKmSEqOLKS4HI\nFjJ5M7SGMia1BxUya3gzerO1QhWklFQWpHIVsoQyZZp4M3gzAhWwangzhzLa+Pn5ef0HAjDhzVCS\n1BkqwQAEIC46XZKkBwA5VpuHmQAAAA==\n'
p945
sg19
g136
sg21
I132
ssS'update_number_of_pieces'
p946
I1
sg168
I0
sS'update_ghost_level'
p947
I0
sS'global_release_data_flag_'
p948
I0
sg165
I0
sS'update_extent'
p949
(dp950
g18
S'H4sIAA3vH04C/2tgSs4rzS2o1EvOL0rVyy3NKclMLCpKrOSKL0pNzs8rLikqTS7hKmSEqOLKS4HI\nFjJ5M7SGMia1BxUya3gzerO1QhWklFQWpHIVsoQyZZp4M3gzAhWwangzhzLa+Pn5ef0HAjDhzVCS\n1BkqwQAEIC46XZKkBwA5VpuHmQAAAA==\n'
p951
sg19
g136
sg21
I134
ssS'request_exact_extent_'
p952
I0
sg155
I0
sg233
I0
sS'global_release_data_flag'
p953
I0
sg234
I0
sS'maximum_number_of_pieces'
p954
I-1
sS'request_exact_extent'
p955
I0
sS'whole_bounding_box'
p956
(dp957
g18
S'H4sIAA3vH04C/2tgSs4rzS2o1EvOL0rVyy3NKclMLCpKrOSKL0pNzs8rLikqTS7hKmSEqOLKS4HI\nFjJ5M7SGMia1BxUya3gzerO1QhWklFQWpHIVsoQypVl4M3gzAhWwangzhzLa+Pn5ef0HAjDhzVCS\n1BlqwIACPuwnxC9J0gMAMIASILEAAAA=\n'
p958
sg19
g136
sg21
I133
sssg19
g81
sg21
I131
sssS'cellpicker'
p959
(dp960
g2
(lp961
((g4
g5
tI-1
tp962
a((g7
g5
tI-1
tp963
a((g108
g109
tI-1
tp964
a((g111
g112
tI-1
tp965
a((g114
g115
tI-1
tp966
a((g908
g909
tI-1
tp967
a((S'AbstractPropPicker'
p968
S'tvtk_classes.abstract_prop_picker'
p969
tI-1
tp970
a((g876
S'tvtk_classes.picker'
p971
tI-1
tp972
a((S'CellPicker'
p973
S'tvtk_classes.cell_picker'
p974
tI-1
tp975
asg15
g973
sg16
(dp976
g18
Nsg19
g54
sg21
I9
ssg19
g22
sg21
I135
sg23
g974
sg18
(dp977
g18
(dp978
g165
I0
sg918
I0
sg155
I0
sg917
I0
sg168
I0
sS'tolerance'
p979
F0.025000000000000001
ssg19
g81
sg21
I136
sssS'p_actor'
p980
(dp981
g2
(lp982
((g4
g5
tI-1
tp983
a((g7
g5
tI-1
tp984
a((g108
g109
tI-1
tp985
a((g111
g112
tI-1
tp986
a((g114
g115
tI-1
tp987
a((g419
g420
tI-1
tp988
a((g705
g706
tI-1
tp989
a((g636
g708
tI-1
tp990
asg15
g636
sg16
(dp991
g18
Nsg19
g54
sg21
I9
ssg19
g22
sg21
I137
sg23
g708
sg18
(dp992
g18
(dp993
g133
(dp994
g18
S'H4sIAA3vH04C/2tgSs4rzS2o1EvOL0rVyy3NKclMLCpKrOSKL0pNzs8rLikqTS7hKmSEqOLKS4HI\nFjJ5M7SGMia1BxUya3gzejO3QhWklFQWpHIVsoQypVl4M3gzAhWwangzhzLa+Pn5ef0HAjDhzVCS\n1BkqwYADlCTpAQD67GqfmQAAAA==\n'
p995
sg19
g136
sg21
I139
ssg292
(dp996
g18
S'H4sIAA3vH04C/2tgSs4rzS2o1EvOL0rVyy3NKclMLCpKrOSKL0pNzs8rLikqTS7hKmSEqOLKS4HI\nFjJ5M7SGMia1BxUya3gzejO3QhWklFQWpHIVsoQypVl4M3gzAhWwangzhzLa+Pn5ef0HAjDhzVCS\n1BkqwQAGH+zR6ZIkPQDfyO6fmQAAAA==\n'
p997
sg19
g136
sg21
I141
ssg338
(dp998
g18
S'H4sIAA3vH04C/2tgSs4rzS2o1EvOL0rVyy3NKclMLCpKrOSKL0pNzs8rLikqTS7hKmSEqOLKS4HI\nFjJ5M7SGMia1BxUya3gzejO3QhWklFQWpHIVsoQypVl4M3gzAhWwangzhzLa+Pn5ef0HAjDhzVCS\n1BkqwYAKGmCMkiQ9ABqDrf+ZAAAA\n'
p999
sg19
g136
sg21
I140
ssg168
I0
sg432
I1
sg446
I0
sg450
I0
sg447
I1
sg155
I0
sg165
I0
sg434
I0
sg455
(dp1000
g18
S'H4sIAA3vH04C/2tgSs4rzS2o1EvOL0rVyy3NKclMLCpKrOSKL0pNzs8rLikqTS7hKmSEqOLKS4HI\nFjJ5M7SGMia1BxUya3gzejO3QhWklFQWpHIVsoQypVl4M3gzAhWwangzhzLa+Pn5ef0HAjDhzVCS\n1BkqwYADlCTpAQD67GqfmQAAAA==\n'
p1001
sg19
g136
sg21
I142
ssg444
I0
ssg19
g81
sg21
I138
sssS'p_source'
p1002
(dp1003
g2
(lp1004
((g4
g5
tI-1
tp1005
a((g7
g5
tI-1
tp1006
a((g108
g109
tI-1
tp1007
a((g111
g112
tI-1
tp1008
a((g114
g115
tI-1
tp1009
a((g215
g216
tI-1
tp1010
a((g218
g219
tI-1
tp1011
a((S'Axes'
p1012
S'tvtk_classes.axes'
p1013
tI-1
tp1014
asg15
g1012
sg16
(dp1015
g18
Nsg19
g54
sg21
I9
ssg19
g22
sg21
I143
sg23
g1013
sg18
(dp1016
g18
(dp1017
g133
(dp1018
g18
S'H4sIAA3vH04C/2tgSs4rzS2o1EvOL0rVyy3NKclMLCpKrOSKL0pNzs8rLikqTS7hKmSEqOLKS4HI\nFjJ5M7SGMia1BxUya3gzejO3QhWklFQWpHIVsoQypVl4M3gzAhWwangzhzLa+Pn5ef0HAjDhzVCS\n1BkqwYADlCTpAQD67GqfmQAAAA==\n'
p1019
sg19
g136
sg21
I145
ssS'scale_factor'
p1020
F1
sS'compute_normals_'
p1021
I1
sg227
I0
sg228
NsS'compute_normals'
p1022
I1
sg168
I0
sS'symmetric'
p1023
I1
sg155
I0
sg232
I0
sg165
I0
sg233
I0
sg234
I0
sg235
F0
sS'symmetric_'
p1024
I1
ssg19
g81
sg21
I144
sssg979
F0.025000000000000001
sS'pointpicker'
p1025
(dp1026
g2
(lp1027
((g4
g5
tI-1
tp1028
a((g7
g5
tI-1
tp1029
a((g108
g109
tI-1
tp1030
a((g111
g112
tI-1
tp1031
a((g114
g115
tI-1
tp1032
a((g908
g909
tI-1
tp1033
a((g968
g969
tI-1
tp1034
a((g876
g971
tI-1
tp1035
a((S'PointPicker'
p1036
S'tvtk_classes.point_picker'
p1037
tI-1
tp1038
asg15
g1036
sg16
(dp1039
g18
Nsg19
g54
sg21
I9
ssg19
g22
sg21
I146
sg23
g1037
sg18
(dp1040
g18
(dp1041
g165
I0
sg918
I0
sg155
I0
sg917
I0
sg168
I0
sg979
F0.025000000000000001
ssg19
g81
sg21
I147
ssssg19
g81
sg21
I124
sssS'anti_aliasing_frames'
p1042
I8
sS'marker'
p1043
(dp1044
g2
(lp1045
((g4
g5
tI-1
tp1046
a((g7
g5
tI-1
tp1047
a((g108
g109
tI-1
tp1048
a((g111
g112
tI-1
tp1049
a((g114
g115
tI-1
tp1050
a((g117
g118
tI-1
tp1051
a((S'OrientationMarkerWidget'
p1052
S'tvtk_classes.orientation_marker_widget'
p1053
tI-1
tp1054
asg15
g1052
sg16
(dp1055
g18
Nsg19
g54
sg21
I9
ssg19
g22
sg21
I148
sg23
g1053
sg18
(dp1056
g18
(dp1057
g149
S'i'
sg164
I0
sg165
I0
sS'interactive_'
p1058
I1
sg146
F0.55000001192092896
sg155
I0
sg156
I0
sg158
I0
sg168
I0
sg141
I0
sS'interactive'
p1059
I1
ssg19
g81
sg21
I149
sssS'jpeg_progressive'
p1060
I01
sS'axes'
p1061
(dp1062
g2
(lp1063
((g4
g5
tI-1
tp1064
a((g7
g5
tI-1
tp1065
a((g108
g109
tI-1
tp1066
a((g111
g112
tI-1
tp1067
a((g114
g115
tI-1
tp1068
a((g419
g420
tI-1
tp1069
a((g705
g706
tI-1
tp1070
a((S'AxesActor'
p1071
S'tvtk_classes.axes_actor'
p1072
tI-1
tp1073
asg15
g1071
sg16
(dp1074
g18
Nsg19
g54
sg21
I9
ssg19
g22
sg21
I150
sg23
g1072
sg18
(dp1075
g18
(dp1076
g133
(dp1077
g18
S'H4sIAA3vH04C/2tgSs4rzS2o1EvOL0rVyy3NKclMLCpKrOSKL0pNzs8rLikqTS7hKmSEqOLKS4HI\nFjJ5M7SGMia1BxUya3gzejO3QhWklFQWpHIVsoQypVl4M3gzAhWwangzhzLa+Pn5ef0HAjDhzVCS\n1BkqwYADlCTpAQD67GqfmQAAAA==\n'
p1078
sg19
g136
sg21
I152
ssg338
(dp1079
g18
S'H4sIAA3vH04C/2tgSs4rzS2o1EvOL0rVyy3NKclMLCpKrOSKL0pNzs8rLikqTS7hKmSEqOLKS4HI\nFjJ5M7SGMia1BxUya3gzejO3QhWklFQWpHIVsoQypVl4M3gzAhWwangzhzLa+Pn5ef0HAjDhzVCS\n1BkqwYAKGmCMkiQ9ABqDrf+ZAAAA\n'
p1080
sg19
g136
sg21
I153
ssS'normalized_tip_length'
p1081
(dp1082
g18
S'H4sIAA3vH04C/2tgSs4rzS2o1EvOL0rVyy3NKclMLCpKrOSKL0pNzs8rLikqTS7hKmSEqOLKS4HI\nFjJ5M7SGMia1BxUya3gzejO3QhWklFQWpHIVsoQypVl4M3gzAhWwangzhzLa+Pn5ef0HAjDhzVCS\n1BkqMWsmCNy0R6dLkvQABNrUG5kAAAA=\n'
p1083
sg19
g136
sg21
I154
ssg432
I1
sg450
I1
sS'sphere_resolution'
p1084
I16
sg434
I0
sg165
I0
sg292
(dp1085
g18
S'H4sIAA3vH04C/2tgSs4rzS2o1EvOL0rVyy3NKclMLCpKrOSKL0pNzs8rLikqTS7hKmSEqOLKS4HI\nFjJ5M7SGMia1BxUya3gzejO3QhWklFQWpHIVsoQypVl4M3gzAhWwangzhzLa+Pn5ef0HAjDhzVCS\n1BkqwQAGH+zR6ZIkPQDfyO6fmQAAAA==\n'
p1086
sg19
g136
sg21
I155
ssS'cylinder_radius'
p1087
F0.050000000000000003
sS'cone_resolution'
p1088
I16
sS'cylinder_resolution'
p1089
I16
sS'axis_labels'
p1090
I1
sS'total_length'
p1091
(dp1092
g18
S'H4sIAA3vH04C/2tgSs4rzS2o1EvOL0rVyy3NKclMLCpKrOSKL0pNzs8rLikqTS7hKmSEqOLKS4HI\nFjJ5M7SGMia1BxUya3gzejO3QhWklFQWpHIVsoQypVl4M3gzAhWwangzhzLa+Pn5ef0HAjDhzVCS\n1BkqwQAGH+zR6ZIkPQDfyO6fmQAAAA==\n'
p1093
sg19
g136
sg21
I156
ssg444
I1
sS'tip_type'
p1094
S'cone'
p1095
sS'x_axis_label_text'
p1096
S'X'
sS'cone_radius'
p1097
F0.40000000000000002
sS'z_axis_label_text'
p1098
S'Z'
sg446
I0
sg447
I1
sg155
I0
sS'axis_labels_'
p1099
I1
sS'y_axis_label_text'
p1100
S'Y'
sS'shaft_type_'
p1101
I0
sS'sphere_radius'
p1102
F0.5
sS'normalized_shaft_length'
p1103
(dp1104
g18
S'H4sIAA3vH04C/2tgSs4rzS2o1EvOL0rVyy3NKclMLCpKrOSKL0pNzs8rLikqTS7hKmSEqOLKS4HI\nFjJ5M7SGMia1BxUya3gzejO3QhWklFQWpHIVsoQypVl4M3gzAhWwangzhzLa+Pn5ef0HAjDhzVCS\n1BkqYQwGj+3R6ZIkPQB1t6TsmQAAAA==\n'
p1105
sg19
g136
sg21
I157
ssS'shaft_type'
p1106
S'cylinder'
p1107
sS'normalized_label_position'
p1108
(dp1109
g18
S'H4sIAA3vH04C/2tgSs4rzS2o1EvOL0rVyy3NKclMLCpKrOSKL0pNzs8rLikqTS7hKmSEqOLKS4HI\nFjJ5M7SGMia1BxUya3gzejO3QhWklFQWpHIVsoQypVl4M3gzAhWwangzhzLa+Pn5ef0HAjDhzVCS\n1BkqwQAGH+zR6ZIkPQDfyO6fmQAAAA==\n'
p1110
sg19
g136
sg21
I158
ssg168
I0
sg455
(dp1111
g18
S'H4sIAA3vH04C/2tgSs4rzS2o1EvOL0rVyy3NKclMLCpKrOSKL0pNzs8rLikqTS7hKmSEqOLKS4HI\nFjJ5M7SGMia1BxUya3gzejO3QhWklFQWpHIVsoQypVl4M3gzAhWwangzhzLa+Pn5ef0HAjDhzVCS\n1BkqwYADlCTpAQD67GqfmQAAAA==\n'
p1112
sg19
g136
sg21
I159
sssg19
g81
sg21
I151
sssS'magnification'
p1113
I1
sS'camera'
p1114
(dp1115
g2
(lp1116
((g4
g5
tI-1
tp1117
a((g7
g5
tI-1
tp1118
a((g108
g109
tI-1
tp1119
a((g111
g112
tI-1
tp1120
a((g114
g115
tI-1
tp1121
a((S'Camera'
p1122
S'tvtk_classes.camera'
p1123
tI-1
tp1124
a((S'OpenGLCamera'
p1125
S'tvtk_classes.open_gl_camera'
p1126
tI-1
tp1127
asg15
g1125
sg16
(dp1128
g18
Nsg19
g54
sg21
I9
ssg19
g22
sg21
I160
sg23
g1126
sg18
(dp1129
g18
(dp1130
S'distance'
p1131
F78.718221533352434
sS'view_plane_normal'
p1132
(dp1133
g18
S'H4sIAA3vH04C/2tgSs4rzS2o1EvOL0rVyy3NKclMLCpKrOSKL0pNzs8rLikqTS7hKmSEqOLKS4HI\nFjJ5M7SGMia1BxUya3gzejO3QhWklFQWpHIVsoQypVl4M3gzAhWwangzhzLa+Pn5ef0HAjDhzVCS\n1BkqIWM8wXV55SN7GC0LpUuS9ACYfZK8mQAAAA==\n'
p1134
sg19
g136
sg21
I162
ssS'window_center'
p1135
(dp1136
g18
S'H4sIAA3vH04C/2tgSs4rzS2o1EvOL0rVyy3NKclMLCpKrOSKL0pNzs8rLikqTS7hKmSEqOLKS4HI\nFjJ5M7SGMia1BxUya3gzejO1QhWklFQWpHIVsoQypVl4M3gzAhWwangzhzLa+Pn5ef0HAjDhzVCS\n1BkqwIAGSpL0ACtwOO6RAAAA\n'
p1137
sg19
g136
sg21
I163
ssS'parallel_projection_'
p1138
I0
sS'left_eye'
p1139
I1
sS'parallel_scale'
p1140
F20.373775483370569
sS'parallel_projection'
p1141
I0
sS'view_up'
p1142
(dp1143
g18
S'H4sIAA3vH04C/2tgSs4rzS2o1EvOL0rVyy3NKclMLCpKrOSKL0pNzs8rLikqTS7hKmSEqOLKS4HI\nFjJ5M7SGMia1BxUya3gzejO3QhWklFQWpHIVsoQypVl4M3gzAhWwangzhzLa+Pn5ef0HAjDhzVCS\n1BkqwYAVfLAvSdIDAFBUFn+ZAAAA\n'
p1144
sg19
g136
sg21
I164
ssS'use_horizontal_view_angle'
p1145
I0
sg165
I0
sS'focal_disk'
p1146
F1
sg155
I0
sg455
(dp1147
g18
S'H4sIAA3vH04C/2tgSs4rzS2o1EvOL0rVyy3NKclMLCpKrOSKL0pNzs8rLikqTS7hKmSEqOLKS4HI\nFjJ5M7SGMia1BxUya3gzejO3QhWklFQWpHIVsoQypVl4M3gzAhWwangzhzLa+Pn5ef0HAjDhzVCS\n1Bkq8dDSZl74TjeHd5Y2i8J3ejs8srTZorzCw6EkSQ8ASQfG8pkAAAA=\n'
p1148
sg19
g136
sg21
I168
ssS'clipping_range'
p1149
(dp1150
g18
S'H4sIAA3vH04C/2tgSs4rzS2o1EvOL0rVyy3NKclMLCpKrOSKL0pNzs8rLikqTS7hKmSEqOLKS4HI\nFjJ5M7SGMia1BxUya3gzejO1QhWklFQWpHIVsoQypVl4M3gzAhWwangzhzLa+Pn5ef0HAjDhzVCS\n1BkqIKZrnL1gm5MD9/SZZmExCQ4lSXoAP12DIJEAAAA=\n'
p1151
sg19
g136
sg21
I166
ssS'eye_angle'
p1152
F2
sS'view_shear'
p1153
(dp1154
g18
S'H4sIAA3vH04C/2tgSs4rzS2o1EvOL0rVyy3NKclMLCpKrOSKL0pNzs8rLikqTS7hKmSEqOLKS4HI\nFjJ5M7SGMia1BxUya3gzejO3QhWklFQWpHIVsoQypVl4M3gzAhWwangzhzLa+Pn5ef0HAjDhzVCS\n1BkqwYAVfLAvSdIDAFBUFn+ZAAAA\n'
p1155
sg19
g136
sg21
I165
ssg168
I0
sS'view_angle'
p1156
F30
sS'thickness'
p1157
F93.458753490440515
sS'focal_point'
p1158
(dp1159
g18
S'H4sIAA3vH04C/2tgSs4rzS2o1EvOL0rVyy3NKclMLCpKrOSKL0pNzs8rLikqTS7hKmSEqOLKS4HI\nFjJ5M7SGMia1BxUya3gzejO3QhWklFQWpHIVsoQypVl4M3gzAhWwangzhzLa+Pn5ef0HAjDhzVCS\n1Bkq4Waz45xwpfJeRQYGAQYGFYcV///HH3zD51CSpAcAh2rsVpkAAAA=\n'
p1160
sg19
g136
sg21
I167
ssS'use_horizontal_view_angle_'
p1161
I0
ssg19
g81
sg21
I161
sssS'_renderer'
p1162
(dp1163
g2
(lp1164
((g4
g5
tI-1
tp1165
a((g7
g5
tI-1
tp1166
a((g108
g109
tI-1
tp1167
a((g111
g112
tI-1
tp1168
a((g114
g115
tI-1
tp1169
a((S'Viewport'
p1170
S'tvtk_classes.viewport'
p1171
tI-1
tp1172
a((S'Renderer'
p1173
S'tvtk_classes.renderer'
p1174
tI-1
tp1175
asg15
g1173
sg16
(dp1176
g18
Nsg19
g54
sg21
I9
ssg19
g22
sg21
I169
sg23
g1174
sg18
(dp1177
g18
(dp1178
S'layer'
p1179
I0
sS'draw_'
p1180
I1
sg745
(dp1181
g18
S'H4sIAA3vH04C/2tgSs4rzS2o1EvOL0rVyy3NKclMLCpKrOSKL0pNzs8rLikqTS7hKmSEqOLKS4HI\nFjJ5M7SGMia1BxUya3gzejO3QhWklFQWpHIVsoQypVl4M3gzAhWwangzhzLa+Pn5ef0HAjDhzVCS\n1BkqwQAGH+zR6ZIkPQDfyO6fmQAAAA==\n'
p1182
sg19
g136
sg21
I171
ssS'two_sided_lighting_'
p1183
I1
sS'view_point'
p1184
(dp1185
g18
S'H4sIAA3vH04C/2tgSs4rzS2o1EvOL0rVyy3NKclMLCpKrOSKL0pNzs8rLikqTS7hKmSEqOLKS4HI\nFjJ5M7SGMia1BxUya3gzejO3QhWklFQWpHIVsoQypVl4M3gzAhWwangzhzLa+Pn5ef0HAjDhzVCS\n1BkqwePi7tXJ47TfKVut6b++gf3Ut7OWvm58bl+SpAcA6yUNpJkAAAA=\n'
p1186
sg19
g136
sg21
I172
ssS'near_clipping_plane_tolerance'
p1187
F0.001
sS'erase'
p1188
I1
sS'aspect'
p1189
(dp1190
g18
S'H4sIAA3vH04C/2tgSs4rzS2o1EvOL0rVyy3NKclMLCpKrOSKL0pNzs8rLikqTS7hKmSEqOLKS4HI\nFjJ5M7SGMia1BxUya3gzejO1QhWklFQWpHIVsoQypVl4M3gzAhWwangzhzLa+Pn5ef0HAjDhzVCS\n1BkqkHf+vf9Rx+/2DGDwwb4kSQ8AJZ1O1pEAAAA=\n'
p1191
sg19
g136
sg21
I173
ssS'pixel_aspect'
p1192
(dp1193
g18
S'H4sIAA3vH04C/2tgSs4rzS2o1EvOL0rVyy3NKclMLCpKrOSKL0pNzs8rLikqTS7hKmSEqOLKS4HI\nFjJ5M7SGMia1BxUya3gzejO1QhWklFQWpHIVsoQypVl4M3gzAhWwangzhzLa+Pn5ef0HAjDhzVCS\n1BkqwAAGH+xhdEmSHgBnOGdykQAAAA==\n'
p1194
sg19
g136
sg21
I174
ssS'erase_'
p1195
I1
sS'use_depth_peeling_'
p1196
I0
sS'use_depth_peeling'
p1197
I0
sS'gradient_background'
p1198
I00
sS'world_point'
p1199
(dp1200
g18
S'H4sIAA3vH04C/2tgSs4rzS2o1EvOL0rVyy3NKclMLCpKrOSKL0pNzs8rLikqTS7hKmSEqOLKS4HI\nFjJ5M7SGMia1BxUya3gzerO0QhWklFQWpHIVsoQypVl4M3gzAhWwangzhzLa+Pn5ef0HAjDhzVCS\n1Bmq0M3swCa2w82h76zAPJXd3g5L7iQHzFju4cAABh/sS5L0ABS1ntuhAAAA\n'
p1201
sg19
g136
sg21
I175
ssS'draw'
p1202
I1
sS'allocated_render_time'
p1203
F5000
sS'maximum_number_of_peels'
p1204
I4
sg155
I0
sS'occlusion_ratio'
p1205
F0
sS'background'
p1206
(dp1207
g18
(F0.49803921568627452
F0.49803921568627452
F0.49803921568627452
tp1208
sg19
g20
sg21
I176
ssS'two_sided_lighting'
p1209
I1
sg1058
I1
sS'background2'
p1210
(dp1211
g18
(F0.20000000000000001
F0.20000000000000001
F0.20000000000000001
tp1212
sg19
g20
sg21
I178
ssS'viewport'
p1213
(dp1214
g18
S'H4sIAA3vH04C/2tgSs4rzS2o1EvOL0rVyy3NKclMLCpKrOSKL0pNzs8rLikqTS7hKmSEqOLKS4HI\nFjJ5M7SGMia1BxUya3gzerO0QhWklFQWpHIVsoQypVl4M3gzAhWwangzhzLa+Pn5ef0HAjDhzVCS\n1BmqwIAVfLCH0SVJegBnOETsoQAAAA==\n'
p1215
sg19
g136
sg21
I179
ssS'display_point'
p1216
(dp1217
g18
S'H4sIAA3vH04C/2tgSs4rzS2o1EvOL0rVyy3NKclMLCpKrOSKL0pNzs8rLikqTS7hKmSEqOLKS4HI\nFjJ5M7SGMia1BxUya3gzejO3QhWklFQWpHIVsoQypVl4M3gzAhWwangzhzLa+Pn5ef0HAjDhzVCS\n1Bkq0fJxh/+hH20O/4s/vP2/sN5h6ttZS183PrcvSdIDAKdvDvSZAAAA\n'
p1218
sg19
g136
sg21
I177
ssS'backing_store_'
p1219
I0
sS'automatic_light_creation_'
p1220
I1
sS'automatic_light_creation'
p1221
I1
sg165
I0
sS'backing_store'
p1222
I0
sS'light_follow_camera'
p1223
I1
sg168
I0
sS'light_follow_camera_'
p1224
I1
sS'gradient_background_'
p1225
I0
sg1059
I1
ssg19
g81
sg21
I170
sssS'line_smoothing'
p1226
I00
sS'foreground'
p1227
(dp1228
g18
Nsg19
g54
sg21
I31
ssS'parent'
p1229
NsS'point_smoothing'
p1230
I00
sg1206
(dp1231
g18
Nsg19
g54
sg21
I176
ssS'off_screen_rendering'
p1232
I00
sS'polygon_smoothing'
p1233
I00
sS'stereo'
p1234
I00
sS'disable_render'
p1235
I00
sS'jpeg_quality'
p1236
I95
sS'show_axes'
p1237
I00
sg1141
I00
sS'light_manager'
p1238
(dp1239
g2
(lp1240
((g4
g5
tI-1
tp1241
a((S'LightManager'
p1242
S'enthought.tvtk.pyface.light_manager'
p1243
tI0
tp1244
asg15
g1242
sg16
(dp1245
g18
Nsg19
g54
sg21
I1
ssg19
g22
sg21
I180
sg23
g1243
sg18
(dp1246
g18
(dp1247
S'light_mode'
p1248
S'vtk'
p1249
sS'lights'
p1250
(dp1251
g18
(lp1252
(dp1253
g2
(lp1254
((g4
g5
tI-1
tp1255
a((S'CameraLight'
p1256
g1243
tI0
tp1257
asg15
g1256
sg16
(dp1258
g18
Nsg19
g54
sg21
I1
ssg19
g22
sg21
I183
sg23
g1243
sg18
(dp1259
g18
(dp1260
S'activate'
p1261
I01
sS'elevation'
p1262
F0
sg345
(dp1263
g18
Nsg19
g54
sg21
I31
ssS'source'
p1264
(dp1265
g2
(lp1266
((g4
g5
tI-1
tp1267
a((g7
g5
tI-1
tp1268
a((g108
g109
tI-1
tp1269
a((g111
g112
tI-1
tp1270
a((g114
g115
tI-1
tp1271
a((S'Light'
p1272
S'tvtk_classes.light'
p1273
tI-1
tp1274
asg15
g1272
sg16
(dp1275
g18
Nsg19
g54
sg21
I9
ssg19
g22
sg21
I185
sg23
g1273
sg18
(dp1276
g18
(dp1277
g751
(dp1278
g18
Nsg19
g54
sg21
I31
ssS'attenuation_values'
p1279
(dp1280
g18
S'H4sIAA3vH04C/2tgSs4rzS2o1EvOL0rVyy3NKclMLCpKrOSKL0pNzs8rLikqTS7hKmSEqOLKS4HI\nFjJ5M7SGMia1BxUya3gzejO3QhWklFQWpHIVsoQypVl4M3gzAhWwangzhzLa+Pn5ef0HAjDhzVCS\n1BkqwQAGH+wZ0EBJkh4Ak4CxA5kAAAA=\n'
p1281
sg19
g136
sg21
I189
ssS'switch_'
p1282
I1
sS'exponent'
p1283
F1
sS'switch'
p1284
I1
sg738
(dp1285
g18
Nsg19
g54
sg21
I31
ssg753
(dp1286
g18
Nsg19
g54
sg21
I89
ssg165
I0
sS'light_type_'
p1287
I2
sS'positional'
p1288
I0
sg155
I0
sS'intensity'
p1289
F1
sS'light_type'
p1290
S'camera_light'
p1291
sg168
I0
sg455
(dp1292
g18
S'H4sIAA3vH04C/2tgSs4rzS2o1EvOL0rVyy3NKclMLCpKrOSKL0pNzs8rLikqTS7hKmSEqOLKS4HI\nFjJ5M7SGMia1BxUya3gzejO3QhWklFQWpHIVsoQypVl4M3gzAhWwangzhzLa+Pn5ef0HAjDhzVCS\n1BkqwYAMlk20gTA+2Jck6QEAEakbEZkAAAA=\n'
p1293
sg19
g136
sg21
I187
ssS'positional_'
p1294
I0
sS'cone_angle'
p1295
F30
sg1158
(dp1296
g18
S'H4sIAA3vH04C/2tgSs4rzS2o1EvOL0rVyy3NKclMLCpKrOSKL0pNzs8rLikqTS7hKmSEqOLKS4HI\nFjJ5M7SGMia1BxUya3gzejO3QhWklFQWpHIVsoQypVl4M3gzAhWwangzhzLa+Pn5ef0HAjDhzVCS\n1BkqwYADlCTpAQD67GqfmQAAAA==\n'
p1297
sg19
g136
sg21
I188
sssg19
g81
sg21
I186
sssg1289
F1
sS'azimuth'
p1298
F0
sS'glyph'
p1299
(dp1300
g2
(lp1301
((g4
g5
tI-1
tp1302
a((S'LightGlyph'
p1303
g1243
tI0
tp1304
asg15
g1303
sg16
(dp1305
g18
Nsg19
g54
sg21
I1
ssg19
g22
sg21
I190
sg23
g1243
sg18
(dp1306
g18
(dp1307
S'el'
p1308
F0
sS'az'
p1309
F0
sg627
(dp1310
g2
(lp1311
((g4
g5
tI-1
tp1312
a((g7
g5
tI-1
tp1313
a((g108
g109
tI-1
tp1314
a((g111
g112
tI-1
tp1315
a((g114
g115
tI-1
tp1316
a((g419
g420
tI-1
tp1317
a((g705
g706
tI-1
tp1318
a((g636
g708
tI-1
tp1319
a((S'Follower'
p1320
S'tvtk_classes.follower'
p1321
tI-1
tp1322
asg15
g1320
sg16
(dp1323
g18
Nsg19
g54
sg21
I9
ssg19
g22
sg21
I192
sg23
g1321
sg18
(dp1324
g18
(dp1325
g133
(dp1326
g18
S'H4sIAA3vH04C/2tgSs4rzS2o1EvOL0rVyy3NKclMLCpKrOSKL0pNzs8rLikqTS7hKmSEqOLKS4HI\nFjJ5M7SGMia1BxUya3gzejO3QhWklFQWpHIVsoQypVl4M3gzAhWwangzhzLa+Pn5ef0HAjDhzVCS\n1BkqwYADlCTpAQD67GqfmQAAAA==\n'
p1327
sg19
g136
sg21
I194
ssg292
(dp1328
g18
S'H4sIAA3vH04C/2tgSs4rzS2o1EvOL0rVyy3NKclMLCpKrOSKL0pNzs8rLikqTS7hKmSEqOLKS4HI\nFjJ5M7SGMia1BxUya3gzejO3QhWklFQWpHIVsoQypVl4M3gzAhWwangzhzLa+Pn5ef0HAjDhzVCS\n1BkqwQAGH+zR6ZIkPQDfyO6fmQAAAA==\n'
p1329
sg19
g136
sg21
I196
ssg338
(dp1330
g18
S'H4sIAA3vH04C/2tgSs4rzS2o1EvOL0rVyy3NKclMLCpKrOSKL0pNzs8rLikqTS7hKmSEqOLKS4HI\nFjJ5M7SGMia1BxUya3gzejO3QhWklFQWpHIVsoQypVl4M3gzAhWwangzhzLa+Pn5ef0HAjDhzVCS\n1BkqsXDOLdeoncdttnHePFi31NgSyt9TkqQHAJCW9u+ZAAAA\n'
p1331
sg19
g136
sg21
I195
ssg168
I0
sg432
I1
sg446
I1
sg450
I1
sg447
I1
sg155
I0
sg165
I0
sg434
I1
sg455
(dp1332
g18
S'H4sIAA3vH04C/2tgSs4rzS2o1EvOL0rVyy3NKclMLCpKrOSKL0pNzs8rLikqTS7hKmSEqOLKS4HI\nFjJ5M7SGMia1BxUya3gzejO3QhWklFQWpHIVsoQypVl4M3gzAhWwangzhzLa+Pn5ef0HAjDhzVCS\n1BkqwYADlCTpAQD67GqfmQAAAA==\n'
p1333
sg19
g136
sg21
I197
ssg444
I1
ssg19
g81
sg21
I193
ssssg19
g81
sg21
I191
ssssg19
g81
sg21
I184
ssa(dp1334
g2
(lp1335
((g4
g5
tI-1
tp1336
a((g1256
g1243
tI0
tp1337
asg15
g1256
sg16
(dp1338
g18
Nsg19
g54
sg21
I1
ssg19
g22
sg21
I198
sg23
g1243
sg18
(dp1339
g18
(dp1340
g1261
I00
sg1262
F0
sg345
(dp1341
g18
Nsg19
g54
sg21
I31
ssg1264
(dp1342
g2
(lp1343
((g4
g5
tI-1
tp1344
a((g7
g5
tI-1
tp1345
a((g108
g109
tI-1
tp1346
a((g111
g112
tI-1
tp1347
a((g114
g115
tI-1
tp1348
a((g1272
g1273
tI-1
tp1349
asg15
g1272
sg16
(dp1350
g18
Nsg19
g54
sg21
I9
ssg19
g22
sg21
I200
sg23
g1273
sg18
(dp1351
g18
(dp1352
g751
(dp1353
g18
Nsg19
g54
sg21
I31
ssg1279
(dp1354
g18
S'H4sIAA3vH04C/2tgSs4rzS2o1EvOL0rVyy3NKclMLCpKrOSKL0pNzs8rLikqTS7hKmSEqOLKS4HI\nFjJ5M7SGMia1BxUya3gzejO3QhWklFQWpHIVsoQypVl4M3gzAhWwangzhzLa+Pn5ef0HAjDhzVCS\n1BkqwQAGH+wZ0EBJkh4Ak4CxA5kAAAA=\n'
p1355
sg19
g136
sg21
I204
ssg1282
I0
sg1283
F1
sg1284
I0
sg738
(dp1356
g18
Nsg19
g54
sg21
I31
ssg753
(dp1357
g18
Nsg19
g54
sg21
I89
ssg165
I0
sg1287
I2
sg1288
I0
sg155
I0
sg1289
F1
sg1290
g1291
sg168
I0
sg455
(dp1358
g18
S'H4sIAA3vH04C/2tgSs4rzS2o1EvOL0rVyy3NKclMLCpKrOSKL0pNzs8rLikqTS7hKmSEqOLKS4HI\nFjJ5M7SGMia1BxUya3gzejO3QhWklFQWpHIVsoQypVl4M3gzAhWwangzhzLa+Pn5ef0HAjDhzVCS\n1BkqwYAMlk20gTA+2Jck6QEAEakbEZkAAAA=\n'
p1359
sg19
g136
sg21
I202
ssg1294
I0
sg1295
F30
sg1158
(dp1360
g18
S'H4sIAA3vH04C/2tgSs4rzS2o1EvOL0rVyy3NKclMLCpKrOSKL0pNzs8rLikqTS7hKmSEqOLKS4HI\nFjJ5M7SGMia1BxUya3gzejO3QhWklFQWpHIVsoQypVl4M3gzAhWwangzhzLa+Pn5ef0HAjDhzVCS\n1BkqwYADlCTpAQD67GqfmQAAAA==\n'
p1361
sg19
g136
sg21
I203
sssg19
g81
sg21
I201
sssg1289
F1
sg1298
F0
sg1299
(dp1362
g2
(lp1363
((g4
g5
tI-1
tp1364
a((g1303
g1243
tI0
tp1365
asg15
g1303
sg16
(dp1366
g18
Nsg19
g54
sg21
I1
ssg19
g22
sg21
I205
sg23
g1243
sg18
(dp1367
g18
(dp1368
g1308
F0
sg1309
F0
sg627
(dp1369
g2
(lp1370
((g4
g5
tI-1
tp1371
a((g7
g5
tI-1
tp1372
a((g108
g109
tI-1
tp1373
a((g111
g112
tI-1
tp1374
a((g114
g115
tI-1
tp1375
a((g419
g420
tI-1
tp1376
a((g705
g706
tI-1
tp1377
a((g636
g708
tI-1
tp1378
a((g1320
g1321
tI-1
tp1379
asg15
g1320
sg16
(dp1380
g18
Nsg19
g54
sg21
I9
ssg19
g22
sg21
I207
sg23
g1321
sg18
(dp1381
g18
(dp1382
g133
(dp1383
g18
S'H4sIAA3vH04C/2tgSs4rzS2o1EvOL0rVyy3NKclMLCpKrOSKL0pNzs8rLikqTS7hKmSEqOLKS4HI\nFjJ5M7SGMia1BxUya3gzejO3QhWklFQWpHIVsoQypVl4M3gzAhWwangzhzLa+Pn5ef0HAjDhzVCS\n1BkqwYADlCTpAQD67GqfmQAAAA==\n'
p1384
sg19
g136
sg21
I209
ssg292
(dp1385
g18
S'H4sIAA3vH04C/2tgSs4rzS2o1EvOL0rVyy3NKclMLCpKrOSKL0pNzs8rLikqTS7hKmSEqOLKS4HI\nFjJ5M7SGMia1BxUya3gzejO3QhWklFQWpHIVsoQypVl4M3gzAhWwangzhzLa+Pn5ef0HAjDhzVCS\n1BkqwQAGH+zR6ZIkPQDfyO6fmQAAAA==\n'
p1386
sg19
g136
sg21
I211
ssg338
(dp1387
g18
S'H4sIAA3vH04C/2tgSs4rzS2o1EvOL0rVyy3NKclMLCpKrOSKL0pNzs8rLikqTS7hKmSEqOLKS4HI\nFjJ5M7SGMia1BxUya3gzejO3QhWklFQWpHIVsoQypVl4M3gzAhWwangzhzLa+Pn5ef0HAjDhzVCS\n1BkqEXa2NK3N9oLNtyDnzRkMjDv58xdkL/rba1OSpAcAoXrkqJkAAAA=\n'
p1388
sg19
g136
sg21
I210
ssg168
I0
sg432
I1
sg446
I0
sg450
I1
sg447
I1
sg155
I0
sg165
I0
sg434
I0
sg455
(dp1389
g18
S'H4sIAA3vH04C/2tgSs4rzS2o1EvOL0rVyy3NKclMLCpKrOSKL0pNzs8rLikqTS7hKmSEqOLKS4HI\nFjJ5M7SGMia1BxUya3gzejO3QhWklFQWpHIVsoQypVl4M3gzAhWwangzhzLa+Pn5ef0HAjDhzVCS\n1BkqwYADlCTpAQD67GqfmQAAAA==\n'
p1390
sg19
g136
sg21
I212
ssg444
I1
ssg19
g81
sg21
I208
ssssg19
g81
sg21
I206
ssssg19
g81
sg21
I199
ssa(dp1391
g2
(lp1392
((g4
g5
tI-1
tp1393
a((g1256
g1243
tI0
tp1394
asg15
g1256
sg16
(dp1395
g18
Nsg19
g54
sg21
I1
ssg19
g22
sg21
I213
sg23
g1243
sg18
(dp1396
g18
(dp1397
g1261
I00
sg1262
F0
sg345
(dp1398
g18
Nsg19
g54
sg21
I31
ssg1264
(dp1399
g2
(lp1400
((g4
g5
tI-1
tp1401
a((g7
g5
tI-1
tp1402
a((g108
g109
tI-1
tp1403
a((g111
g112
tI-1
tp1404
a((g114
g115
tI-1
tp1405
a((g1272
g1273
tI-1
tp1406
asg15
g1272
sg16
(dp1407
g18
Nsg19
g54
sg21
I9
ssg19
g22
sg21
I215
sg23
g1273
sg18
(dp1408
g18
(dp1409
g751
(dp1410
g18
Nsg19
g54
sg21
I31
ssg1279
(dp1411
g18
S'H4sIAA3vH04C/2tgSs4rzS2o1EvOL0rVyy3NKclMLCpKrOSKL0pNzs8rLikqTS7hKmSEqOLKS4HI\nFjJ5M7SGMia1BxUya3gzejO3QhWklFQWpHIVsoQypVl4M3gzAhWwangzhzLa+Pn5ef0HAjDhzVCS\n1BkqwQAGH+wZ0EBJkh4Ak4CxA5kAAAA=\n'
p1412
sg19
g136
sg21
I219
ssg1282
I0
sg1283
F1
sg1284
I0
sg738
(dp1413
g18
Nsg19
g54
sg21
I31
ssg753
(dp1414
g18
Nsg19
g54
sg21
I89
ssg165
I0
sg1287
I2
sg1288
I0
sg155
I0
sg1289
F1
sg1290
g1291
sg168
I0
sg455
(dp1415
g18
S'H4sIAA3vH04C/2tgSs4rzS2o1EvOL0rVyy3NKclMLCpKrOSKL0pNzs8rLikqTS7hKmSEqOLKS4HI\nFjJ5M7SGMia1BxUya3gzejO3QhWklFQWpHIVsoQypVl4M3gzAhWwangzhzLa+Pn5ef0HAjDhzVCS\n1BkqwYAMlk20gTA+2Jck6QEAEakbEZkAAAA=\n'
p1416
sg19
g136
sg21
I217
ssg1294
I0
sg1295
F30
sg1158
(dp1417
g18
S'H4sIAA3vH04C/2tgSs4rzS2o1EvOL0rVyy3NKclMLCpKrOSKL0pNzs8rLikqTS7hKmSEqOLKS4HI\nFjJ5M7SGMia1BxUya3gzejO3QhWklFQWpHIVsoQypVl4M3gzAhWwangzhzLa+Pn5ef0HAjDhzVCS\n1BkqwYADlCTpAQD67GqfmQAAAA==\n'
p1418
sg19
g136
sg21
I218
sssg19
g81
sg21
I216
sssg1289
F1
sg1298
F0
sg1299
(dp1419
g2
(lp1420
((g4
g5
tI-1
tp1421
a((g1303
g1243
tI0
tp1422
asg15
g1303
sg16
(dp1423
g18
Nsg19
g54
sg21
I1
ssg19
g22
sg21
I220
sg23
g1243
sg18
(dp1424
g18
(dp1425
g1308
F0
sg1309
F0
sg627
(dp1426
g2
(lp1427
((g4
g5
tI-1
tp1428
a((g7
g5
tI-1
tp1429
a((g108
g109
tI-1
tp1430
a((g111
g112
tI-1
tp1431
a((g114
g115
tI-1
tp1432
a((g419
g420
tI-1
tp1433
a((g705
g706
tI-1
tp1434
a((g636
g708
tI-1
tp1435
a((g1320
g1321
tI-1
tp1436
asg15
g1320
sg16
(dp1437
g18
Nsg19
g54
sg21
I9
ssg19
g22
sg21
I222
sg23
g1321
sg18
(dp1438
g18
(dp1439
g133
(dp1440
g18
S'H4sIAA3vH04C/2tgSs4rzS2o1EvOL0rVyy3NKclMLCpKrOSKL0pNzs8rLikqTS7hKmSEqOLKS4HI\nFjJ5M7SGMia1BxUya3gzejO3QhWklFQWpHIVsoQypVl4M3gzAhWwangzhzLa+Pn5ef0HAjDhzVCS\n1BkqwYADlCTpAQD67GqfmQAAAA==\n'
p1441
sg19
g136
sg21
I224
ssg292
(dp1442
g18
S'H4sIAA3vH04C/2tgSs4rzS2o1EvOL0rVyy3NKclMLCpKrOSKL0pNzs8rLikqTS7hKmSEqOLKS4HI\nFjJ5M7SGMia1BxUya3gzejO3QhWklFQWpHIVsoQypVl4M3gzAhWwangzhzLa+Pn5ef0HAjDhzVCS\n1BkqwQAGH+zR6ZIkPQDfyO6fmQAAAA==\n'
p1443
sg19
g136
sg21
I226
ssg338
(dp1444
g18
S'H4sIAA3vH04C/2tgSs4rzS2o1EvOL0rVyy3NKclMLCpKrOSKL0pNzs8rLikqTS7hKmSEqOLKS4HI\nFjJ5M7SGMia1BxUya3gzejO3QhWklFQWpHIVsoQypVl4M3gzAhWwangzhzLa+Pn5ef0HAjDhzVCS\n1BkqEXa2NK3N9oLNtyDnzRkMjJb8+QuyF/3t3VOSpAcAeqN6JZkAAAA=\n'
p1445
sg19
g136
sg21
I225
ssg168
I0
sg432
I1
sg446
I0
sg450
I1
sg447
I1
sg155
I0
sg165
I0
sg434
I0
sg455
(dp1446
g18
S'H4sIAA3vH04C/2tgSs4rzS2o1EvOL0rVyy3NKclMLCpKrOSKL0pNzs8rLikqTS7hKmSEqOLKS4HI\nFjJ5M7SGMia1BxUya3gzejO3QhWklFQWpHIVsoQypVl4M3gzAhWwangzhzLa+Pn5ef0HAjDhzVCS\n1BkqwYADlCTpAQD67GqfmQAAAA==\n'
p1447
sg19
g136
sg21
I227
ssg444
I1
ssg19
g81
sg21
I223
ssssg19
g81
sg21
I221
ssssg19
g81
sg21
I214
ssa(dp1448
g2
(lp1449
((g4
g5
tI-1
tp1450
a((g1256
g1243
tI0
tp1451
asg15
g1256
sg16
(dp1452
g18
Nsg19
g54
sg21
I1
ssg19
g22
sg21
I228
sg23
g1243
sg18
(dp1453
g18
(dp1454
g1261
I00
sg1262
F0
sg345
(dp1455
g18
Nsg19
g54
sg21
I31
ssg1264
(dp1456
g2
(lp1457
((g4
g5
tI-1
tp1458
a((g7
g5
tI-1
tp1459
a((g108
g109
tI-1
tp1460
a((g111
g112
tI-1
tp1461
a((g114
g115
tI-1
tp1462
a((g1272
g1273
tI-1
tp1463
asg15
g1272
sg16
(dp1464
g18
Nsg19
g54
sg21
I9
ssg19
g22
sg21
I230
sg23
g1273
sg18
(dp1465
g18
(dp1466
g751
(dp1467
g18
Nsg19
g54
sg21
I31
ssg1279
(dp1468
g18
S'H4sIAA3vH04C/2tgSs4rzS2o1EvOL0rVyy3NKclMLCpKrOSKL0pNzs8rLikqTS7hKmSEqOLKS4HI\nFjJ5M7SGMia1BxUya3gzejO3QhWklFQWpHIVsoQypVl4M3gzAhWwangzhzLa+Pn5ef0HAjDhzVCS\n1BkqwQAGH+wZ0EBJkh4Ak4CxA5kAAAA=\n'
p1469
sg19
g136
sg21
I234
ssg1282
I0
sg1283
F1
sg1284
I0
sg738
(dp1470
g18
Nsg19
g54
sg21
I31
ssg753
(dp1471
g18
Nsg19
g54
sg21
I89
ssg165
I0
sg1287
I2
sg1288
I0
sg155
I0
sg1289
F1
sg1290
g1291
sg168
I0
sg455
(dp1472
g18
S'H4sIAA3vH04C/2tgSs4rzS2o1EvOL0rVyy3NKclMLCpKrOSKL0pNzs8rLikqTS7hKmSEqOLKS4HI\nFjJ5M7SGMia1BxUya3gzejO3QhWklFQWpHIVsoQypVl4M3gzAhWwangzhzLa+Pn5ef0HAjDhzVCS\n1BkqwYAVfLAvSdIDAFBUFn+ZAAAA\n'
p1473
sg19
g136
sg21
I232
ssg1294
I0
sg1295
F30
sg1158
(dp1474
g18
S'H4sIAA3vH04C/2tgSs4rzS2o1EvOL0rVyy3NKclMLCpKrOSKL0pNzs8rLikqTS7hKmSEqOLKS4HI\nFjJ5M7SGMia1BxUya3gzejO3QhWklFQWpHIVsoQypVl4M3gzAhWwangzhzLa+Pn5ef0HAjDhzVCS\n1BkqwYADlCTpAQD67GqfmQAAAA==\n'
p1475
sg19
g136
sg21
I233
sssg19
g81
sg21
I231
sssg1289
F1
sg1298
F0
sg1299
(dp1476
g2
(lp1477
((g4
g5
tI-1
tp1478
a((g1303
g1243
tI0
tp1479
asg15
g1303
sg16
(dp1480
g18
Nsg19
g54
sg21
I1
ssg19
g22
sg21
I235
sg23
g1243
sg18
(dp1481
g18
(dp1482
g1308
F0
sg1309
F0
sg627
(dp1483
g2
(lp1484
((g4
g5
tI-1
tp1485
a((g7
g5
tI-1
tp1486
a((g108
g109
tI-1
tp1487
a((g111
g112
tI-1
tp1488
a((g114
g115
tI-1
tp1489
a((g419
g420
tI-1
tp1490
a((g705
g706
tI-1
tp1491
a((g636
g708
tI-1
tp1492
a((g1320
g1321
tI-1
tp1493
asg15
g1320
sg16
(dp1494
g18
Nsg19
g54
sg21
I9
ssg19
g22
sg21
I237
sg23
g1321
sg18
(dp1495
g18
(dp1496
g133
(dp1497
g18
S'H4sIAA3vH04C/2tgSs4rzS2o1EvOL0rVyy3NKclMLCpKrOSKL0pNzs8rLikqTS7hKmSEqOLKS4HI\nFjJ5M7SGMia1BxUya3gzejO3QhWklFQWpHIVsoQypVl4M3gzAhWwangzhzLa+Pn5ef0HAjDhzVCS\n1BkqwYADlCTpAQD67GqfmQAAAA==\n'
p1498
sg19
g136
sg21
I239
ssg292
(dp1499
g18
S'H4sIAA3vH04C/2tgSs4rzS2o1EvOL0rVyy3NKclMLCpKrOSKL0pNzs8rLikqTS7hKmSEqOLKS4HI\nFjJ5M7SGMia1BxUya3gzejO3QhWklFQWpHIVsoQypVl4M3gzAhWwangzhzLa+Pn5ef0HAjDhzVCS\n1BkqwQAGH+zR6ZIkPQDfyO6fmQAAAA==\n'
p1500
sg19
g136
sg21
I241
ssg338
(dp1501
g18
S'H4sIAA3vH04C/2tgSs4rzS2o1EvOL0rVyy3NKclMLCpKrOSKL0pNzs8rLikqTS7hKmSEqOLKS4HI\nFjJ5M7SGMia1BxUya3gzejO3QhWklFQWpHIVsoQypVl4M3gzAhWwangzhzLa+Pn5ef0HAjDhzVCS\n1BkqwYAKGmCMkiQ9ABqDrf+ZAAAA\n'
p1502
sg19
g136
sg21
I240
ssg168
I0
sg432
I1
sg446
I0
sg450
I1
sg447
I1
sg155
I0
sg165
I0
sg434
I0
sg455
(dp1503
g18
S'H4sIAA3vH04C/2tgSs4rzS2o1EvOL0rVyy3NKclMLCpKrOSKL0pNzs8rLikqTS7hKmSEqOLKS4HI\nFjJ5M7SGMia1BxUya3gzejO3QhWklFQWpHIVsoQypVl4M3gzAhWwangzhzLa+Pn5ef0HAjDhzVCS\n1BkqwYADlCTpAQD67GqfmQAAAA==\n'
p1504
sg19
g136
sg21
I242
ssg444
I1
ssg19
g81
sg21
I238
ssssg19
g81
sg21
I236
ssssg19
g81
sg21
I229
ssasg19
g73
sg21
I182
ssS'light_mode_'
p1505
I2
sS'number_of_lights'
p1506
I4
ssg19
g81
sg21
I181
sssS'_def_pos'
p1507
I1
ssg19
g81
sg21
I122
sssg83
S''
sg19
S' scene'
p1508
sg239
(dp1509
g18
(lp1510
(dp1511
g2
(lp1512
((g4
g5
tI-1
tp1513
a((g30
g5
tI-1
tp1514
a((g32
g33
tI-1
tp1515
a((g35
g36
tI0
tp1516
a((g38
g39
tI0
tp1517
a((g41
g42
tI0
tp1518
a((S'ParametricSurface'
p1519
S'enthought.mayavi.sources.parametric_surface'
p1520
tI0
tp1521
asg15
g1519
sg16
(dp1522
g18
Nsg19
g54
sg21
I1
ssg19
g22
sg21
I244
sg23
g1520
sg18
(dp1523
g18
(dp1524
S'function'
p1525
S'random_hills'
p1526
sS'_function_dict'
p1527
(dp1528
g18
(dp1529
S'conic_spiral'
p1530
(dp1531
g2
(lp1532
((g4
g5
tI-1
tp1533
a((g7
g5
tI-1
tp1534
a((g108
g109
tI-1
tp1535
a((g111
g112
tI-1
tp1536
a((g114
g115
tI-1
tp1537
a((S'ParametricFunction'
p1538
S'tvtk_classes.parametric_function'
p1539
tI-1
tp1540
a((S'ParametricConicSpiral'
p1541
S'tvtk_classes.parametric_conic_spiral'
p1542
tI-1
tp1543
asg15
g1541
sg16
(dp1544
g18
Nsg19
g54
sg21
I9
ssg19
g22
sg21
I247
sg23
g1542
sg18
(dp1545
g18
(dp1546
S'join_u_'
p1547
I0
sS'derivatives_available'
p1548
I1
sS'twist_v'
p1549
I0
sS'twist_u'
p1550
I0
sS'derivatives_available_'
p1551
I1
sS'twist_v_'
p1552
I0
sS'minimum_v'
p1553
F0
sS'minimum_w'
p1554
F0
sS'maximum_v'
p1555
F6.2831854820251465
sS'maximum_w'
p1556
F1
sS'clockwise_ordering_'
p1557
I1
sS'clockwise_ordering'
p1558
I1
sS'twist_u_'
p1559
I0
sS'maximum_u'
p1560
F6.2831854820251465
sS'join_v'
p1561
I0
sS'join_u'
p1562
I0
sg155
I0
sS'a'
F0.20000000000000001
sS'c'
F0.10000000000000001
sS'b'
F1
sg165
I0
sS'n'
F2
sg168
I0
sS'join_v_'
p1563
I0
sS'minimum_u'
p1564
F0
ssg19
g81
sg21
I248
sssS'enneper'
p1565
(dp1566
g2
(lp1567
((g4
g5
tI-1
tp1568
a((g7
g5
tI-1
tp1569
a((g108
g109
tI-1
tp1570
a((g111
g112
tI-1
tp1571
a((g114
g115
tI-1
tp1572
a((g1538
g1539
tI-1
tp1573
a((S'ParametricEnneper'
p1574
S'tvtk_classes.parametric_enneper'
p1575
tI-1
tp1576
asg15
g1574
sg16
(dp1577
g18
Nsg19
g54
sg21
I9
ssg19
g22
sg21
I249
sg23
g1575
sg18
(dp1578
g18
(dp1579
g1547
I0
sg1558
I1
sg1564
F-2
sg155
I0
sg1559
I0
sg1548
I1
sg1560
F2
sg1561
I0
sg1562
I0
sg1549
I0
sg1550
I0
sg1551
I1
sg1552
I0
sg1553
F-2
sg1554
F0
sg168
I0
sg1563
I0
sg165
I0
sg1555
F2
sg1556
F1
sg1557
I1
ssg19
g81
sg21
I250
sssS'cap'
p1580
(dp1581
g2
(lp1582
((g4
g5
tI-1
tp1583
a((g7
g5
tI-1
tp1584
a((g108
g109
tI-1
tp1585
a((g111
g112
tI-1
tp1586
a((g114
g115
tI-1
tp1587
a((g1538
g1539
tI-1
tp1588
a((S'ParametricCrossCap'
p1589
S'tvtk_classes.parametric_cross_cap'
p1590
tI-1
tp1591
asg15
g1589
sg16
(dp1592
g18
Nsg19
g54
sg21
I9
ssg19
g22
sg21
I263
sg23
g1590
sg18
(dp1593
g18
(dp1594
g1547
I1
sg1558
I1
sg1564
F0
sg155
I0
sg1559
I1
sg1548
I1
sg1560
F3.1415927410125732
sg1561
I1
sg1562
I1
sg1549
I1
sg1550
I1
sg1551
I1
sg1552
I1
sg1553
F0
sg1554
F0
sg168
I0
sg1563
I1
sg165
I0
sg1555
F3.1415927410125732
sg1556
F1
sg1557
I1
ssg19
g81
sg21
I264
sssg1526
(dp1595
g2
(lp1596
((g4
g5
tI-1
tp1597
a((g7
g5
tI-1
tp1598
a((g108
g109
tI-1
tp1599
a((g111
g112
tI-1
tp1600
a((g114
g115
tI-1
tp1601
a((g1538
g1539
tI-1
tp1602
a((S'ParametricRandomHills'
p1603
S'tvtk_classes.parametric_random_hills'
p1604
tI-1
tp1605
asg15
g1603
sg16
(dp1606
g18
Nsg19
g54
sg21
I9
ssg19
g22
sg21
I253
sg23
g1604
sg18
(dp1607
g18
(dp1608
g1547
I0
sS'number_of_hills'
p1609
I30
sS'hill_y_variance'
p1610
F2.5
sg1548
I0
sS'allow_random_generation'
p1611
I1
sg1549
I0
sg1550
I0
sg1551
I0
sg1552
I0
sg1553
F-10
sg1554
F0
sg1555
F10
sg1556
F1
sg1557
I1
sg1558
I1
sS'y_variance_scale_factor'
p1612
F0.33333333333333331
sg1559
I0
sS'hill_x_variance'
p1613
F2.5
sg1560
F10
sS'random_seed'
p1614
I1
sg1561
I0
sg1562
I0
sg155
I0
sS'amplitude_scale_factor'
p1615
F0.33333333333333331
sS'x_variance_scale_factor'
p1616
F0.33333333333333331
sS'allow_random_generation_'
p1617
I1
sS'hill_amplitude'
p1618
F2
sg165
I0
sg168
I0
sg1563
I0
sg1564
F-10
ssg19
g81
sg21
I254
sssS'klein'
p1619
(dp1620
g2
(lp1621
((g4
g5
tI-1
tp1622
a((g7
g5
tI-1
tp1623
a((g108
g109
tI-1
tp1624
a((g111
g112
tI-1
tp1625
a((g114
g115
tI-1
tp1626
a((g1538
g1539
tI-1
tp1627
a((S'ParametricKlein'
p1628
S'tvtk_classes.parametric_klein'
p1629
tI-1
tp1630
asg15
g1628
sg16
(dp1631
g18
Nsg19
g54
sg21
I9
ssg19
g22
sg21
I255
sg23
g1629
sg18
(dp1632
g18
(dp1633
g1547
I0
sg1558
I1
sg1564
F0
sg155
I0
sg1559
I0
sg1548
I1
sg1560
F3.1415927410125732
sg1561
I1
sg1562
I0
sg1549
I0
sg1550
I0
sg1551
I1
sg1552
I0
sg1553
F0
sg1554
F0
sg168
I0
sg1563
I1
sg165
I0
sg1555
F6.2831854820251465
sg1556
F1
sg1557
I1
ssg19
g81
sg21
I256
sssS'ellipsoid'
p1634
(dp1635
g2
(lp1636
((g4
g5
tI-1
tp1637
a((g7
g5
tI-1
tp1638
a((g108
g109
tI-1
tp1639
a((g111
g112
tI-1
tp1640
a((g114
g115
tI-1
tp1641
a((g1538
g1539
tI-1
tp1642
a((S'ParametricEllipsoid'
p1643
S'tvtk_classes.parametric_ellipsoid'
p1644
tI-1
tp1645
asg15
g1643
sg16
(dp1646
g18
Nsg19
g54
sg21
I9
ssg19
g22
sg21
I257
sg23
g1644
sg18
(dp1647
g18
(dp1648
g1547
I1
sS'x_radius'
p1649
F1
sg1548
I1
sS'y_radius'
p1650
F1
sg1549
I0
sg1550
I0
sg1551
I1
sg1552
I0
sg1553
F0
sg1554
F0
sg1555
F3.1415927410125732
sg1556
F1
sg1557
I1
sg1558
I1
sg1559
I0
sS'z_radius'
p1651
F1
sg1560
F6.2831854820251465
sg1561
I0
sg1562
I1
sg155
I0
sg165
I0
sg168
I0
sg1563
I0
sg1564
F0
ssg19
g81
sg21
I258
sssS'boy'
p1652
(dp1653
g2
(lp1654
((g4
g5
tI-1
tp1655
a((g7
g5
tI-1
tp1656
a((g108
g109
tI-1
tp1657
a((g111
g112
tI-1
tp1658
a((g114
g115
tI-1
tp1659
a((g1538
g1539
tI-1
tp1660
a((S'ParametricBoy'
p1661
S'tvtk_classes.parametric_boy'
p1662
tI-1
tp1663
asg15
g1661
sg16
(dp1664
g18
Nsg19
g54
sg21
I9
ssg19
g22
sg21
I251
sg23
g1662
sg18
(dp1665
g18
(dp1666
g1547
I1
sg1548
I1
sg1549
I1
sg1550
I1
sg1551
I1
sg1564
F0
sg1553
F0
sg1554
F0
sg1555
F3.1415927410125732
sg1556
F1
sg1560
F3.1415927410125732
sg1558
I1
sg1559
I1
sg1557
I1
sg1561
I1
sg1562
I1
sg155
I0
sS'z_scale'
p1667
F0.125
sg165
I0
sg168
I0
sg1563
I1
sg1552
I1
ssg19
g81
sg21
I252
sssS'torus'
p1668
(dp1669
g2
(lp1670
((g4
g5
tI-1
tp1671
a((g7
g5
tI-1
tp1672
a((g108
g109
tI-1
tp1673
a((g111
g112
tI-1
tp1674
a((g114
g115
tI-1
tp1675
a((g1538
g1539
tI-1
tp1676
a((S'ParametricTorus'
p1677
S'tvtk_classes.parametric_torus'
p1678
tI-1
tp1679
asg15
g1677
sg16
(dp1680
g18
Nsg19
g54
sg21
I9
ssg19
g22
sg21
I261
sg23
g1678
sg18
(dp1681
g18
(dp1682
g1547
I1
sg1548
I1
sg1549
I0
sg1550
I0
sg1551
I1
sg1552
I0
sg1553
F0
sg1554
F0
sS'cross_section_radius'
p1683
F0.5
sg1555
F6.2831854820251465
sg1556
F1
sg1560
F6.2831854820251465
sg1558
I1
sg1559
I0
sg1557
I1
sg1561
I1
sg1562
I1
sg155
I0
sS'ring_radius'
p1684
F1
sg165
I0
sg168
I0
sg1563
I1
sg1564
F0
ssg19
g81
sg21
I262
sssS'figure8klein'
p1685
(dp1686
g2
(lp1687
((g4
g5
tI-1
tp1688
a((g7
g5
tI-1
tp1689
a((g108
g109
tI-1
tp1690
a((g111
g112
tI-1
tp1691
a((g114
g115
tI-1
tp1692
a((g1538
g1539
tI-1
tp1693
a((S'ParametricFigure8Klein'
p1694
S'tvtk_classes.parametric_figure8_klein'
p1695
tI-1
tp1696
asg15
g1694
sg16
(dp1697
g18
Nsg19
g54
sg21
I9
ssg19
g22
sg21
I259
sg23
g1695
sg18
(dp1698
g18
(dp1699
g1547
I1
sg1548
I1
sg1549
I0
sg1550
I1
sg1551
I1
sS'radius'
p1700
F1
sg1564
F-3.1415927410125732
sg1553
F-3.1415927410125732
sg1554
F0
sg1555
F3.1415927410125732
sg1556
F1
sg1560
F3.1415927410125732
sg1558
I1
sg1559
I1
sg1557
I1
sg1561
I1
sg1562
I1
sg155
I0
sg165
I0
sg168
I0
sg1563
I1
sg1552
I0
ssg19
g81
sg21
I260
sssS'super_toroid'
p1701
(dp1702
g2
(lp1703
((g4
g5
tI-1
tp1704
a((g7
g5
tI-1
tp1705
a((g108
g109
tI-1
tp1706
a((g111
g112
tI-1
tp1707
a((g114
g115
tI-1
tp1708
a((g1538
g1539
tI-1
tp1709
a((S'ParametricSuperToroid'
p1710
S'tvtk_classes.parametric_super_toroid'
p1711
tI-1
tp1712
asg15
g1710
sg16
(dp1713
g18
Nsg19
g54
sg21
I9
ssg19
g22
sg21
I265
sg23
g1711
sg18
(dp1714
g18
(dp1715
g1547
I1
sg1649
F1
sg1548
I0
sg1650
F1
sg1549
I0
sg1550
I0
sg1551
I0
sg1564
F0
sg1553
F0
sg1554
F0
sg1683
F0.5
sg1555
F6.2831854820251465
sg1556
F1
sg1557
I1
sg1558
I1
sg1559
I0
sg1651
F1
sg1560
F6.2831854820251465
sg1561
I1
sg1562
I1
sg155
I0
sg1684
F1
sS'n1'
p1716
F1
sg165
I0
sg168
I0
sg1563
I1
sS'n2'
p1717
F1
sg1552
I0
ssg19
g81
sg21
I266
sssS'dini'
p1718
(dp1719
g2
(lp1720
((g4
g5
tI-1
tp1721
a((g7
g5
tI-1
tp1722
a((g108
g109
tI-1
tp1723
a((g111
g112
tI-1
tp1724
a((g114
g115
tI-1
tp1725
a((g1538
g1539
tI-1
tp1726
a((S'ParametricDini'
p1727
S'tvtk_classes.parametric_dini'
p1728
tI-1
tp1729
asg15
g1727
sg16
(dp1730
g18
Nsg19
g54
sg21
I9
ssg19
g22
sg21
I267
sg23
g1728
sg18
(dp1731
g18
(dp1732
g1547
I0
sg1548
I1
sg1549
I0
sg1550
I0
sg1551
I1
sg1564
F0
sg1553
F0.001
sg1554
F0
sg1555
F2
sg1556
F1
sg1560
F12.566370964050293
sg1558
I1
sg1559
I0
sg1557
I1
sg1561
I0
sg1562
I0
sg155
I0
sS'a'
F1
sS'b'
F0.20000000000000001
sg165
I0
sg168
I0
sg1563
I0
sg1552
I0
ssg19
g81
sg21
I268
sssS'roman'
p1733
(dp1734
g2
(lp1735
((g4
g5
tI-1
tp1736
a((g7
g5
tI-1
tp1737
a((g108
g109
tI-1
tp1738
a((g111
g112
tI-1
tp1739
a((g114
g115
tI-1
tp1740
a((g1538
g1539
tI-1
tp1741
a((S'ParametricRoman'
p1742
S'tvtk_classes.parametric_roman'
p1743
tI-1
tp1744
asg15
g1742
sg16
(dp1745
g18
Nsg19
g54
sg21
I9
ssg19
g22
sg21
I269
sg23
g1743
sg18
(dp1746
g18
(dp1747
g1547
I1
sg1548
I1
sg1549
I0
sg1550
I1
sg1551
I1
sg1700
F1
sg1564
F0
sg1553
F0
sg1554
F0
sg1555
F3.1415927410125732
sg1556
F1
sg1560
F3.1415927410125732
sg1558
I1
sg1559
I1
sg1557
I1
sg1561
I1
sg1562
I1
sg155
I0
sg165
I0
sg168
I0
sg1563
I1
sg1552
I0
ssg19
g81
sg21
I270
sssS'mobius'
p1748
(dp1749
g2
(lp1750
((g4
g5
tI-1
tp1751
a((g7
g5
tI-1
tp1752
a((g108
g109
tI-1
tp1753
a((g111
g112
tI-1
tp1754
a((g114
g115
tI-1
tp1755
a((g1538
g1539
tI-1
tp1756
a((S'ParametricMobius'
p1757
S'tvtk_classes.parametric_mobius'
p1758
tI-1
tp1759
asg15
g1757
sg16
(dp1760
g18
Nsg19
g54
sg21
I9
ssg19
g22
sg21
I271
sg23
g1758
sg18
(dp1761
g18
(dp1762
g1547
I1
sg1548
I1
sg1549
I0
sg1550
I1
sg1551
I1
sg1700
F1
sg1564
F0
sg1553
F-1
sg1554
F0
sg1555
F1
sg1556
F1
sg1560
F6.2831854820251465
sg1558
I1
sg1559
I1
sg1557
I1
sg1561
I0
sg1562
I1
sg155
I0
sg165
I0
sg168
I0
sg1563
I0
sg1552
I0
ssg19
g81
sg21
I272
sssS'super_ellipsoid'
p1763
(dp1764
g2
(lp1765
((g4
g5
tI-1
tp1766
a((g7
g5
tI-1
tp1767
a((g108
g109
tI-1
tp1768
a((g111
g112
tI-1
tp1769
a((g114
g115
tI-1
tp1770
a((g1538
g1539
tI-1
tp1771
a((S'ParametricSuperEllipsoid'
p1772
S'tvtk_classes.parametric_super_ellipsoid'
p1773
tI-1
tp1774
asg15
g1772
sg16
(dp1775
g18
Nsg19
g54
sg21
I9
ssg19
g22
sg21
I273
sg23
g1773
sg18
(dp1776
g18
(dp1777
g1547
I1
sg1649
F1
sg1548
I0
sg1650
F1
sg1549
I0
sg1550
I0
sg1551
I0
sg1552
I0
sg1553
F0
sg1554
F0
sg1555
F3.1415927410125732
sg1556
F1
sg1557
I1
sg1558
I1
sg1559
I0
sg1651
F1
sg1560
F6.2831854820251465
sg1561
I0
sg1562
I1
sg155
I0
sg1716
F1
sg165
I0
sg168
I0
sg1563
I0
sg1717
F1
sg1564
F0
ssg19
g81
sg21
I274
sssS'spline'
p1778
(dp1779
g2
(lp1780
((g4
g5
tI-1
tp1781
a((g7
g5
tI-1
tp1782
a((g108
g109
tI-1
tp1783
a((g111
g112
tI-1
tp1784
a((g114
g115
tI-1
tp1785
a((g1538
g1539
tI-1
tp1786
a((S'ParametricSpline'
p1787
S'tvtk_classes.parametric_spline'
p1788
tI-1
tp1789
asg15
g1787
sg16
(dp1790
g18
Nsg19
g54
sg21
I9
ssg19
g22
sg21
I275
sg23
g1788
sg18
(dp1791
g18
(dp1792
g1547
I0
sS'left_value'
p1793
F0
sg1549
I0
sg1550
I0
sg1551
I1
sg1552
I0
sg1553
F0
sg1554
F0
sg1555
F1
sg1556
F1
sS'right_value'
p1794
F0
sg1558
I1
sg1559
I0
sS'left_constraint'
p1795
I1
sS'parameterize_by_length_'
p1796
I1
sS'closed'
p1797
I0
sg1557
I1
sg1548
I1
sS'closed_'
p1798
I0
sg1561
I0
sg1562
I0
sg155
I0
sS'right_constraint'
p1799
I1
sS'parameterize_by_length'
p1800
I1
sg1560
F1
sg165
I0
sg168
I0
sg1563
I0
sg1564
F0
ssg19
g81
sg21
I276
ssssg19
g81
sg21
I246
ssg57
g1519
sg1264
(dp1801
g2
(lp1802
((g4
g5
tI-1
tp1803
a((g7
g5
tI-1
tp1804
a((g108
g109
tI-1
tp1805
a((g111
g112
tI-1
tp1806
a((g114
g115
tI-1
tp1807
a((g215
g216
tI-1
tp1808
a((g218
g219
tI-1
tp1809
a((S'ParametricFunctionSource'
p1810
S'tvtk_classes.parametric_function_source'
p1811
tI-1
tp1812
asg15
g1810
sg16
(dp1813
g18
Nsg19
g54
sg21
I9
ssg19
g22
sg21
I509
sg23
g1811
sg18
(dp1814
g18
(dp1815
g227
I0
sS'generate_texture_coordinates_'
p1816
I0
sS'w_resolution'
p1817
I50
sg668
S'z'
sS'v_resolution'
p1818
I50
sg228
NsS'generate_texture_coordinates'
p1819
I0
sg168
I0
sg155
I0
sg232
I0
sS'scalar_mode_'
p1820
I11
sg233
I0
sg234
I0
sg235
F1
sS'u_resolution'
p1821
I50
sg165
I0
ssg19
g81
sg21
I510
sssg59
(dp1822
g2
(lp1823
((g4
g5
tI-1
tp1824
a((g63
g64
tI-1
tp1825
asg15
g63
sg16
(dp1826
g18
Nsg19
g54
sg21
I1
ssg19
g22
sg21
I511
sg23
g64
sg18
(dp1827
g18
(dp1828
g69
(dp1829
g18
(lp1830
g72
asg19
g73
sg21
I513
ssg74
(dp1831
g18
(lp1832
g77
asg19
g73
sg21
I514
ssg78
(dp1833
g18
(lp1834
g72
asg19
g73
sg21
I515
sssg19
g81
sg21
I512
sssg82
I01
sg83
S''
sg237
Nsg19
S' data source'
p1835
sg239
(dp1836
g18
(lp1837
(dp1838
g2
(lp1839
((g4
g5
tI-1
tp1840
a((g30
g5
tI-1
tp1841
a((g32
g33
tI-1
tp1842
a((g35
g36
tI0
tp1843
a((g248
g249
tI0
tp1844
asg15
g248
sg16
(dp1845
g18
Nsg19
g54
sg21
I1
ssg19
g22
sg21
I278
sg23
g249
sg18
(dp1846
g18
(dp1847
g57
g254
sg255
g256
sg239
(dp1848
g18
(lp1849
(dp1850
g2
(lp1851
((g4
g5
tI-1
tp1852
a((g30
g5
tI-1
tp1853
a((g32
g33
tI-1
tp1854
a((g35
g36
tI0
tp1855
a((g38
g39
tI0
tp1856
a((g570
g571
tI0
tp1857
a((S'IsoSurface'
p1858
S'enthought.mayavi.modules.iso_surface'
p1859
tI0
tp1860
asg15
g1858
sg16
(dp1861
g18
Nsg19
g54
sg21
I1
ssg19
g22
sg21
I281
sg23
g1859
sg18
(dp1862
g18
(dp1863
g59
(dp1864
g18
Nsg19
g54
sg21
I106
ssg593
(dp1865
g18
(lp1866
sg19
g73
sg21
I283
ssg57
g1858
sg613
(dp1867
g2
(lp1868
((g4
g5
tI-1
tp1869
a((g63
g64
tI-1
tp1870
asg15
g63
sg16
(dp1871
g18
Nsg19
g54
sg21
I1
ssg19
g22
sg21
I284
sg23
g64
sg18
(dp1872
g18
(dp1873
g69
(dp1874
g18
(lp1875
g72
asg19
g73
sg21
I286
ssg74
(dp1876
g18
(lp1877
g72
asg19
g73
sg21
I287
ssg78
(dp1878
g18
(lp1879
S'scalars'
p1880
asg19
g73
sg21
I288
sssg19
g81
sg21
I285
sssg1022
I00
sg627
(dp1881
g2
(lp1882
((g4
g5
tI-1
tp1883
a((g30
g5
tI-1
tp1884
a((g32
g33
tI-1
tp1885
a((g35
g36
tI0
tp1886
a((g38
g39
tI0
tp1887
a((g94
g95
tI0
tp1888
a((g636
g637
tI0
tp1889
asg15
g636
sg16
(dp1890
g18
Nsg19
g54
sg21
I1
ssg19
g22
sg21
I302
sg23
g637
sg18
(dp1891
g18
(dp1892
g642
(dp1893
g2
(lp1894
((g4
g5
tI-1
tp1895
a((g7
g5
tI-1
tp1896
a((g108
g109
tI-1
tp1897
a((g111
g112
tI-1
tp1898
a((g114
g115
tI-1
tp1899
a((g215
g216
tI-1
tp1900
a((g651
g652
tI-1
tp1901
a((g654
g655
tI-1
tp1902
a((g657
g658
tI-1
tp1903
a((g660
g661
tI-1
tp1904
asg15
g660
sg16
(dp1905
g18
Nsg19
g54
sg21
I9
ssg19
g22
sg21
I311
sg23
g661
sg18
(dp1906
g18
(dp1907
g666
I0
sg667
I0
sg668
g669
sg670
I0
sg165
I0
sg671
F0.01
sg672
I0
sg673
g669
sg674
I0
sg168
I0
sg675
I0
sg676
I1
sg232
I0
sg233
I0
sg235
F1
sg677
(dp1908
g18
S'H4sIAA3vH04C/2tgSs4rzS2o1EvOL0rVyy3NKclMLCpKrOSKL0pNzs8rLikqTS7hKmSEqOLKS4HI\nFjJ5M7SGMia1BxUya3gzejO1QhWklFQWpHIVsoQypVl4M3gzAhWwangzhzLa+Pn5ef0HAjDhzVCS\n1BkqwIACPtiXJOkBAIHIRA6RAAAA\n'
p1909
sg19
g136
sg21
I313
ssg228
Nsg680
I1
sg155
I0
sg681
I0
sg682
I1
sg227
I0
sg683
I1
sg684
I0
sg685
I0
sg686
I0
sg687
F0
sg688
I1
sg689
g669
sg234
I0
sg690
I0
sg691
I1
sg692
g693
sg694
I1
ssg19
g81
sg21
I312
sssg593
(dp1910
g18
(lp1911
sg19
g73
sg21
I304
ssg57
S''
sg59
Nsg627
(dp1912
g2
(lp1913
((g4
g5
tI-1
tp1914
a((g7
g5
tI-1
tp1915
a((g108
g109
tI-1
tp1916
a((g111
g112
tI-1
tp1917
a((g114
g115
tI-1
tp1918
a((g419
g420
tI-1
tp1919
a((g705
g706
tI-1
tp1920
a((g636
g708
tI-1
tp1921
asg15
g636
sg16
(dp1922
g18
Nsg19
g54
sg21
I9
ssg19
g22
sg21
I305
sg23
g708
sg18
(dp1923
g18
(dp1924
g133
(dp1925
g18
S'H4sIAA3vH04C/2tgSs4rzS2o1EvOL0rVyy3NKclMLCpKrOSKL0pNzs8rLikqTS7hKmSEqOLKS4HI\nFjJ5M7SGMia1BxUya3gzejO3QhWklFQWpHIVsoQypVl4M3gzAhWwangzhzLa+Pn5ef0HAjDhzVCS\n1BkqwYADlCTpAQD67GqfmQAAAA==\n'
p1926
sg19
g136
sg21
I307
ssg292
(dp1927
g18
S'H4sIAA3vH04C/2tgSs4rzS2o1EvOL0rVyy3NKclMLCpKrOSKL0pNzs8rLikqTS7hKmSEqOLKS4HI\nFjJ5M7SGMia1BxUya3gzejO3QhWklFQWpHIVsoQypVl4M3gzAhWwangzhzLa+Pn5ef0HAjDhzVCS\n1BkqwQAGH+zR6ZIkPQDfyO6fmQAAAA==\n'
p1928
sg19
g136
sg21
I309
ssg338
(dp1929
g18
S'H4sIAA3vH04C/2tgSs4rzS2o1EvOL0rVyy3NKclMLCpKrOSKL0pNzs8rLikqTS7hKmSEqOLKS4HI\nFjJ5M7SGMia1BxUya3gzejO3QhWklFQWpHIVsoQypVl4M3gzAhWwangzhzLa+Pn5ef0HAjDhzVCS\n1BkqwYAKGmCMkiQ9ABqDrf+ZAAAA\n'
p1930
sg19
g136
sg21
I308
ssg168
I0
sg432
I1
sg446
I1
sg450
I1
sg447
I1
sg155
I0
sg165
I0
sg434
I1
sg455
(dp1931
g18
S'H4sIAA3vH04C/2tgSs4rzS2o1EvOL0rVyy3NKclMLCpKrOSKL0pNzs8rLikqTS7hKmSEqOLKS4HI\nFjJ5M7SGMia1BxUya3gzejO3QhWklFQWpHIVsoQypVl4M3gzAhWwangzhzLa+Pn5ef0HAjDhzVCS\n1BkqwYADlCTpAQD67GqfmQAAAA==\n'
p1932
sg19
g136
sg21
I310
ssg444
I1
ssg19
g81
sg21
I306
sssg82
I01
sg83
S''
sg613
Nsg237
Nsg721
(dp1933
g2
(lp1934
((g4
g5
tI-1
tp1935
a((g7
g5
tI-1
tp1936
a((g108
g109
tI-1
tp1937
a((g111
g112
tI-1
tp1938
a((g114
g115
tI-1
tp1939
a((g729
g730
tI-1
tp1940
a((g732
g733
tI-1
tp1941
asg15
g732
sg16
(dp1942
g18
Nsg19
g54
sg21
I9
ssg19
g22
sg21
I314
sg23
g733
sg18
(dp1943
g18
(dp1944
g738
(dp1945
g18
Nsg19
g54
sg21
I31
ssg740
I0
sg741
F1
sg742
(dp1946
g18
Nsg19
g54
sg21
I89
ssg745
F0
sg746
I0
sg747
g748
sg334
F1
sg749
I0
sg750
F1
sg751
(dp1947
g18
Nsg19
g54
sg21
I31
ssg753
(dp1948
g18
Nsg19
g54
sg21
I31
ssg755
I0
sg155
I0
sg756
I0
sg757
I0
sg758
F1
sg759
I0
sg165
I0
sg760
F0
sg761
I0
sg762
I65535
sg168
I0
sg763
g764
sg765
I1
sg766
F1
ssg19
g81
sg21
I315
sssg19
S''
ssg19
g81
sg21
I303
sssg82
I01
sg83
S''
sS'normals'
p1949
(dp1950
g2
(lp1951
((g4
g5
tI-1
tp1952
a((g30
g5
tI-1
tp1953
a((g32
g33
tI-1
tp1954
a((g35
g36
tI0
tp1955
a((g38
g39
tI0
tp1956
a((g94
g95
tI0
tp1957
a((S'PolyDataNormals'
p1958
S'enthought.mayavi.components.poly_data_normals'
p1959
tI0
tp1960
asg15
g1958
sg16
(dp1961
g18
Nsg19
g54
sg21
I1
ssg19
g22
sg21
I289
sg23
g1959
sg18
(dp1962
g18
(dp1963
S'filter'
p1964
(dp1965
g2
(lp1966
((g4
g5
tI-1
tp1967
a((g7
g5
tI-1
tp1968
a((g108
g109
tI-1
tp1969
a((g111
g112
tI-1
tp1970
a((g114
g115
tI-1
tp1971
a((g215
g216
tI-1
tp1972
a((g218
g219
tI-1
tp1973
a((g1958
S'tvtk_classes.poly_data_normals'
p1974
tI-1
tp1975
asg15
g1958
sg16
(dp1976
g18
Nsg19
g54
sg21
I9
ssg19
g22
sg21
I291
sg23
g1974
sg18
(dp1977
g18
(dp1978
S'flip_normals_'
p1979
I0
sS'compute_cell_normals'
p1980
I0
sS'splitting'
p1981
I1
sS'flip_normals'
p1982
I0
sS'compute_point_normals'
p1983
I1
sS'consistency_'
p1984
I1
sg228
NsS'auto_orient_normals_'
p1985
I0
sS'compute_point_normals_'
p1986
I1
sS'auto_orient_normals'
p1987
I0
sS'compute_cell_normals_'
p1988
I0
sg233
I0
sg235
F1
sg232
I0
sg234
I0
sS'splitting_'
p1989
I1
sg155
I0
sg227
I0
sS'non_manifold_traversal'
p1990
I1
sg165
I0
sS'consistency'
p1991
I1
sg168
I0
sS'non_manifold_traversal_'
p1992
I1
sS'feature_angle'
p1993
F45
ssg19
g81
sg21
I292
sssg82
I01
sg83
S''
ssg19
g81
sg21
I290
sssg237
Nsg19
g820
sS'contour'
p1994
(dp1995
g2
(lp1996
((g4
g5
tI-1
tp1997
a((g30
g5
tI-1
tp1998
a((g32
g33
tI-1
tp1999
a((g35
g36
tI0
tp2000
a((g38
g39
tI0
tp2001
a((g94
g95
tI0
tp2002
a((S'Contour'
p2003
S'enthought.mayavi.components.contour'
p2004
tI0
tp2005
asg15
g2003
sg16
(dp2006
g18
Nsg19
g54
sg21
I1
ssg19
g22
sg21
I293
sg23
g2004
sg18
(dp2007
g18
(dp2008
g593
(dp2009
g18
(lp2010
sg19
g73
sg21
I295
ssg57
S''
sS'auto_contours'
p2011
I00
sg613
NsS'_current_range'
p2012
(dp2013
g18
(F0.99690485000610352
F22.39720344543457
tp2014
sg19
g20
sg21
I296
ssS'filled_contours'
p2015
I00
sg82
I01
sg83
S''
sS'_cont_filt'
p2016
(dp2017
g2
(lp2018
((g4
g5
tI-1
tp2019
a((g7
g5
tI-1
tp2020
a((g108
g109
tI-1
tp2021
a((g111
g112
tI-1
tp2022
a((g114
g115
tI-1
tp2023
a((g215
g216
tI-1
tp2024
a((g218
g219
tI-1
tp2025
a((S'ContourFilter'
p2026
S'tvtk_classes.contour_filter'
p2027
tI-1
tp2028
asg15
g2026
sg16
(dp2029
g18
Nsg19
g54
sg21
I9
ssg19
g22
sg21
I297
sg23
g2027
sg18
(dp2030
g18
(dp2031
S'compute_gradients'
p2032
I0
sg155
I0
sS'array_component'
p2033
I0
sg228
NsS'use_scalar_tree_'
p2034
I0
sg227
I0
sS'compute_scalars_'
p2035
I1
sg1022
I1
sS'compute_scalars'
p2036
I1
sS'use_scalar_tree'
p2037
I0
sS'compute_gradients_'
p2038
I0
sg232
I0
sg165
I0
sg233
I0
sg1021
I1
sg234
I0
sg235
F1
sg236
I1
sg168
I0
ssg19
g81
sg21
I298
sssS'_traits_cache_minimum_contour'
p2039
F0.99690485000610352
sS'contours'
p2040
(dp2041
g18
(lp2042
F0.99690485000610352
asg19
g73
sg21
I299
ssS'_fill_cont_filt'
p2043
(dp2044
g2
(lp2045
((g4
g5
tI-1
tp2046
a((g7
g5
tI-1
tp2047
a((g108
g109
tI-1
tp2048
a((g111
g112
tI-1
tp2049
a((g114
g115
tI-1
tp2050
a((g215
g216
tI-1
tp2051
a((g218
g219
tI-1
tp2052
a((S'BandedPolyDataContourFilter'
p2053
S'tvtk_classes.banded_poly_data_contour_filter'
p2054
tI-1
tp2055
asg15
g2053
sg16
(dp2056
g18
Nsg19
g54
sg21
I9
ssg19
g22
sg21
I300
sg23
g2054
sg18
(dp2057
g18
(dp2058
g165
I0
sS'clipping'
p2059
I1
sg227
I0
sS'clipping_'
p2060
I1
sg668
S'value'
p2061
sS'generate_contour_edges'
p2062
I0
sg228
Nsg168
I0
sg155
I0
sg232
I0
sg1820
I1
sg233
I0
sg234
I0
sg235
F0
sg236
I1
sS'generate_contour_edges_'
p2063
I0
ssg19
g81
sg21
I301
sssg59
NsS'show_filled_contours'
p2064
I00
sS'auto_update_range'
p2065
I01
sg237
Nsg236
I1
sg19
S''
sS'_traits_cache_maximum_contour'
p2066
F22.39720344543457
ssg19
g81
sg21
I294
sssg821
g822
ssg19
g81
sg21
I282
ssa(dp2067
g2
(lp2068
((g4
g5
tI-1
tp2069
a((g30
g5
tI-1
tp2070
a((g32
g33
tI-1
tp2071
a((g35
g36
tI0
tp2072
a((g38
g39
tI0
tp2073
a((g570
g571
tI0
tp2074
a((S'Surface'
p2075
S'enthought.mayavi.modules.surface'
p2076
tI0
tp2077
asg15
g2075
sg16
(dp2078
g18
Nsg19
g54
sg21
I1
ssg19
g22
sg21
I316
sg23
g2076
sg18
(dp2079
g18
(dp2080
S'enable_contours'
p2081
I01
sg593
(dp2082
g18
(lp2083
sg19
g73
sg21
I318
ssg57
g2075
sg59
(dp2084
g18
Nsg19
g54
sg21
I106
ssg627
(dp2085
g2
(lp2086
((g4
g5
tI-1
tp2087
a((g30
g5
tI-1
tp2088
a((g32
g33
tI-1
tp2089
a((g35
g36
tI0
tp2090
a((g38
g39
tI0
tp2091
a((g94
g95
tI0
tp2092
a((g636
g637
tI0
tp2093
asg15
g636
sg16
(dp2094
g18
Nsg19
g54
sg21
I1
ssg19
g22
sg21
I333
sg23
g637
sg18
(dp2095
g18
(dp2096
g642
(dp2097
g2
(lp2098
((g4
g5
tI-1
tp2099
a((g7
g5
tI-1
tp2100
a((g108
g109
tI-1
tp2101
a((g111
g112
tI-1
tp2102
a((g114
g115
tI-1
tp2103
a((g215
g216
tI-1
tp2104
a((g651
g652
tI-1
tp2105
a((g654
g655
tI-1
tp2106
a((g657
g658
tI-1
tp2107
a((S'DataSetMapper'
p2108
S'tvtk_classes.data_set_mapper'
p2109
tI-1
tp2110
asg15
g2108
sg16
(dp2111
g18
Nsg19
g54
sg21
I9
ssg19
g22
sg21
I342
sg23
g2109
sg18
(dp2112
g18
(dp2113
g666
I0
sg667
I0
sg668
g669
sg670
I0
sg684
I0
sg671
F0.01
sg673
g669
sg674
I0
sg168
I0
sg675
I0
sg676
I1
sg232
I0
sg233
I0
sg235
F1
sg677
(dp2114
g18
S'H4sIAA3vH04C/2tgSs4rzS2o1EvOL0rVyy3NKclMLCpKrOSKL0pNzs8rLikqTS7hKmSEqOLKS4HI\nFjJ5M7SGMia1BxUya3gzejO1QhWklFQWpHIVsoQypVl4M3gzAhWwangzhzLa+Pn5ef0HAjDhzVCS\n1BkqwIACPtiXJOkBAIHIRA6RAAAA\n'
p2115
sg19
g136
sg21
I344
ssg228
Nsg680
I1
sg155
I0
sg681
I0
sg682
I1
sg227
I0
sg683
I1
sg165
I0
sg686
I0
sg689
g669
sg234
I0
sg687
F0
sg685
I0
sg692
g693
sg694
I1
ssg19
g81
sg21
I343
sssg593
(dp2116
g18
(lp2117
sg19
g73
sg21
I335
ssg57
S''
sg59
Nsg627
(dp2118
g2
(lp2119
((g4
g5
tI-1
tp2120
a((g7
g5
tI-1
tp2121
a((g108
g109
tI-1
tp2122
a((g111
g112
tI-1
tp2123
a((g114
g115
tI-1
tp2124
a((g419
g420
tI-1
tp2125
a((g705
g706
tI-1
tp2126
a((g636
g708
tI-1
tp2127
asg15
g636
sg16
(dp2128
g18
Nsg19
g54
sg21
I9
ssg19
g22
sg21
I336
sg23
g708
sg18
(dp2129
g18
(dp2130
g133
(dp2131
g18
S'H4sIAA3vH04C/2tgSs4rzS2o1EvOL0rVyy3NKclMLCpKrOSKL0pNzs8rLikqTS7hKmSEqOLKS4HI\nFjJ5M7SGMia1BxUya3gzejO3QhWklFQWpHIVsoQypVl4M3gzAhWwangzhzLa+Pn5ef0HAjDhzVCS\n1BkqwYADlCTpAQD67GqfmQAAAA==\n'
p2132
sg19
g136
sg21
I338
ssg292
(dp2133
g18
S'H4sIAA3vH04C/2tgSs4rzS2o1EvOL0rVyy3NKclMLCpKrOSKL0pNzs8rLikqTS7hKmSEqOLKS4HI\nFjJ5M7SGMia1BxUya3gzejO3QhWklFQWpHIVsoQypVl4M3gzAhWwangzhzLa+Pn5ef0HAjDhzVCS\n1BkqwQAGH+zR6ZIkPQDfyO6fmQAAAA==\n'
p2134
sg19
g136
sg21
I340
ssg338
(dp2135
g18
S'H4sIAA3vH04C/2tgSs4rzS2o1EvOL0rVyy3NKclMLCpKrOSKL0pNzs8rLikqTS7hKmSEqOLKS4HI\nFjJ5M7SGMia1BxUya3gzejO3QhWklFQWpHIVsoQypVl4M3gzAhWwangzhzLa+Pn5ef0HAjDhzVCS\n1BkqwYAKGmCMkiQ9ABqDrf+ZAAAA\n'
p2136
sg19
g136
sg21
I339
ssg168
I0
sg432
I1
sg446
I1
sg450
I1
sg447
I1
sg155
I0
sg165
I0
sg434
I1
sg455
(dp2137
g18
S'H4sIAA3vH04C/2tgSs4rzS2o1EvOL0rVyy3NKclMLCpKrOSKL0pNzs8rLikqTS7hKmSEqOLKS4HI\nFjJ5M7SGMia1BxUya3gzejO3QhWklFQWpHIVsoQypVl4M3gzAhWwangzhzLa+Pn5ef0HAjDhzVCS\n1BkqwYADlCTpAQD67GqfmQAAAA==\n'
p2138
sg19
g136
sg21
I341
ssg444
I1
ssg19
g81
sg21
I337
sssg82
I01
sg83
S''
sg613
Nsg237
Nsg721
(dp2139
g2
(lp2140
((g4
g5
tI-1
tp2141
a((g7
g5
tI-1
tp2142
a((g108
g109
tI-1
tp2143
a((g111
g112
tI-1
tp2144
a((g114
g115
tI-1
tp2145
a((g729
g730
tI-1
tp2146
a((g732
g733
tI-1
tp2147
asg15
g732
sg16
(dp2148
g18
Nsg19
g54
sg21
I9
ssg19
g22
sg21
I345
sg23
g733
sg18
(dp2149
g18
(dp2150
g738
(dp2151
g18
Nsg19
g54
sg21
I31
ssg740
I0
sg741
F1
sg742
(dp2152
g18
Nsg19
g54
sg21
I89
ssg745
F0
sg746
I0
sg747
g748
sg334
F1
sg749
I0
sg750
F1
sg751
(dp2153
g18
Nsg19
g54
sg21
I31
ssg753
(dp2154
g18
Nsg19
g54
sg21
I31
ssg755
I0
sg155
I0
sg756
I0
sg757
I0
sg758
F1
sg759
I0
sg165
I0
sg760
F0
sg761
I0
sg762
I65535
sg168
I0
sg763
g764
sg765
I1
sg766
F2
ssg19
g81
sg21
I346
sssg19
S''
ssg19
g81
sg21
I334
sssg82
I01
sg83
S''
sg613
(dp2155
g2
(lp2156
((g4
g5
tI-1
tp2157
a((g63
g64
tI-1
tp2158
asg15
g63
sg16
(dp2159
g18
Nsg19
g54
sg21
I1
ssg19
g22
sg21
I319
sg23
g64
sg18
(dp2160
g18
(dp2161
g69
(dp2162
g18
(lp2163
g72
asg19
g73
sg21
I321
ssg74
(dp2164
g18
(lp2165
g72
asg19
g73
sg21
I322
ssg78
(dp2166
g18
(lp2167
g72
asg19
g73
sg21
I323
sssg19
g81
sg21
I320
sssg237
Nsg19
g820
sg1994
(dp2168
g2
(lp2169
((g4
g5
tI-1
tp2170
a((g30
g5
tI-1
tp2171
a((g32
g33
tI-1
tp2172
a((g35
g36
tI0
tp2173
a((g38
g39
tI0
tp2174
a((g94
g95
tI0
tp2175
a((g2003
g2004
tI0
tp2176
asg15
g2003
sg16
(dp2177
g18
Nsg19
g54
sg21
I1
ssg19
g22
sg21
I324
sg23
g2004
sg18
(dp2178
g18
(dp2179
g593
(dp2180
g18
(lp2181
sg19
g73
sg21
I326
ssg57
S''
sg2011
I01
sg613
Nsg2012
(dp2182
g18
(F0.071657225489616394
F7.6595492362976074
tp2183
sg19
g20
sg21
I327
ssg2015
I00
sg82
I01
sg83
S''
sg2016
(dp2184
g2
(lp2185
((g4
g5
tI-1
tp2186
a((g7
g5
tI-1
tp2187
a((g108
g109
tI-1
tp2188
a((g111
g112
tI-1
tp2189
a((g114
g115
tI-1
tp2190
a((g215
g216
tI-1
tp2191
a((g218
g219
tI-1
tp2192
a((g2026
g2027
tI-1
tp2193
asg15
g2026
sg16
(dp2194
g18
Nsg19
g54
sg21
I9
ssg19
g22
sg21
I328
sg23
g2027
sg18
(dp2195
g18
(dp2196
g2032
I0
sg155
I0
sg2033
I0
sg228
Nsg2034
I0
sg227
I0
sg2035
I1
sg1022
I1
sg2036
I1
sg2037
I0
sg2038
I0
sg232
I0
sg165
I0
sg233
I0
sg1021
I1
sg234
I0
sg235
F1
sg236
I10
sg168
I0
ssg19
g81
sg21
I329
sssS'_traits_cache_minimum_contour'
p2197
F0.071657225489616394
sg2040
(dp2198
g18
(lp2199
F3.8656032308936119
asg19
g73
sg21
I330
ssg2043
(dp2200
g2
(lp2201
((g4
g5
tI-1
tp2202
a((g7
g5
tI-1
tp2203
a((g108
g109
tI-1
tp2204
a((g111
g112
tI-1
tp2205
a((g114
g115
tI-1
tp2206
a((g215
g216
tI-1
tp2207
a((g218
g219
tI-1
tp2208
a((g2053
g2054
tI-1
tp2209
asg15
g2053
sg16
(dp2210
g18
Nsg19
g54
sg21
I9
ssg19
g22
sg21
I331
sg23
g2054
sg18
(dp2211
g18
(dp2212
g165
I0
sg2059
I1
sg227
I0
sg2060
I1
sg668
g2061
sg2062
I0
sg228
Nsg168
I0
sg155
I0
sg232
I0
sg1820
I1
sg233
I0
sg234
I0
sg235
F0
sg236
I1
sg2063
I0
ssg19
g81
sg21
I332
sssg59
Nsg2064
I01
sg2065
I01
sg237
Nsg236
I10
sg19
S''
sS'_traits_cache_maximum_contour'
p2213
F7.6595492362976074
ssg19
g81
sg21
I325
sssg821
g822
ssg19
g81
sg21
I317
ssasg19
g73
sg21
I280
ssg83
S''
sg461
(dp2214
g2
(lp2215
((g4
g5
tI-1
tp2216
a((g30
g5
tI-1
tp2217
a((g32
g33
tI-1
tp2218
a((g35
g36
tI0
tp2219
a((g264
g265
tI0
tp2220
asg15
g264
sg16
(dp2221
g18
Nsg19
g54
sg21
I1
ssg19
g22
sg21
I377
sg23
g265
sg18
(dp2222
g18
(dp2223
g320
(dp2224
g2
(lp2225
((g4
g5
tI-1
tp2226
a((g7
g5
tI-1
tp2227
a((g108
g109
tI-1
tp2228
a((g111
g112
tI-1
tp2229
a((g114
g115
tI-1
tp2230
a((g328
g329
tI-1
tp2231
asg15
g328
sg16
(dp2232
g18
Nsg19
g54
sg21
I9
ssg19
g22
sg21
I379
sg23
g329
sg18
(dp2233
g18
(dp2234
g334
F1
sg335
g336
sg337
I12
sg338
F0
sg339
F0
sg340
I1
sg341
g342
sg343
I0
sg165
I0
sg344
F1.1000000000000001
sg345
(dp2235
g18
Nsg19
g54
sg21
I31
ssg348
I1
sg349
(dp2236
g18
S'H4sIAA3vH04C/2tgSs4rzS2o1EvOL0rVyy3NKclMLCpKrOSKL0pNzs8rLikqTS7hKmSEqOLKS4HI\nFjJ5M7SGMia1BxUya3gzejO1QhWklFQWpHIVsoQyZZp4M3gzAhWwangzhzLa+Pn5ef0HAjDhzVCS\n1BnKwcjAwADiliTpAQCk2G9tiQAAAA==\n'
p2237
sg19
g136
sg21
I381
ssg168
I0
sg352
I1
sg353
I0
sg354
g355
sg155
I0
sg356
I1
ssg19
g81
sg21
I380
sssS'file_name'
p2238
S''
sg391
S'point_scalars'
p2239
sg82
I01
sg270
(dp2240
g18
S'H4sIAA3vH04C/2tgSs4rzS2o1EvOL0rVyy3NKclMLCpKrOSKL0pNzs8rLikqTS7hKmSEqOLKS4HI\nFjJ5M7SGMia1BxUya3gzejO1QhWklFQWpHIVsoQypVl4M3gzAhWwangzhzLa+Pn5ef0HAjDhzVCS\n1BkqwAAES5+9twdSCutTzRxKkvQA0uIcppEAAAA=\n'
p2241
sg19
g136
sg21
I382
ssg274
(dp2242
g2
(lp2243
((g4
g5
tI-1
tp2244
a((g7
g5
tI-1
tp2245
a((g108
g109
tI-1
tp2246
a((g111
g112
tI-1
tp2247
a((g114
g115
tI-1
tp2248
a((g282
g283
tI-1
tp2249
a((g285
g286
tI-1
tp2250
asg15
g285
sg16
(dp2251
g18
Nsg19
g54
sg21
I9
ssg19
g22
sg21
I383
sg23
g286
sg18
(dp2252
g18
(dp2253
g291
I2
sg292
g293
sg294
(dp2254
g18
S'H4sIAA3vH04C/2tgSs4rzS2o1EvOL0rVyy3NKclMLCpKrOSKL0pNzs8rLikqTS7hKmSEqOLKS4HI\nFjJ5M7SGMia1BxUya3gzejO1QhWklFQWpHIVsoQypVl4M3gzAhWwangzhzLa+Pn5ef0HAjDhzVCS\n1BkqwAAGH+xhdEmSHgBnOGdykQAAAA==\n'
p2255
sg19
g136
sg21
I385
ssg297
(dp2256
g18
S'H4sIAA3vH04C/2tgSs4rzS2o1EvOL0rVyy3NKclMLCpKrOSKL0pNzs8rLikqTS7hKmSEqOLKS4HI\nFjJ5M7SGMia1BxUya3gzejO1QhWklFQWpHIVsoQypVl4M3gzAhWwangzhzLa+Pn5ef0HAjDhzVCS\n1BkqwAAES5+9twdSCutTzRxKkvQA0uIcppEAAAA=\n'
p2257
sg19
g136
sg21
I387
ssg300
(dp2258
g18
S'H4sIAA3vH04C/2tgSs4rzS2o1EvOL0rVyy3NKclMLCpKrOSKL0pNzs8rLikqTS7hKmSEqOLKS4HI\nFjJ5M7SGMia1BxUya3gzejO1QhWklFQWpHIVsoQypVl4M3gzAhWwangzhzLa+Pn5ef0HAjDhzVCS\n1Bkq4H2C3XZ26FN7BigoSdIDAObNAnCRAAAA\n'
p2259
sg19
g136
sg21
I386
ssg303
I256
sg304
g305
sg165
I0
sg306
I256
sg307
(dp2260
g18
S'H4sIAA3vH04C/2tgSs4rzS2o1EvOL0rVyy3NKclMLCpKrOSKL0pNzs8rLikqTS7hKmSEqOLKS4HI\nFjJ5M7SGMia1BxUya3gzejO1QhWklFQWpHIVsoQypVl4M3gzAhWwangzhzLa+Pn5ef0HAjDhzVCS\n1BkqwAAGH+xhdEmSHgBnOGdykQAAAA==\n'
p2261
sg19
g136
sg21
I388
ssg310
(dp2262
g18
S'H4sIAA3vH04C/2tgSs4rzS2o1EvOL0rVyy3NKclMLCpKrOSKL0pNzs8rLikqTS7hKmSEqOLKS4HI\nFjJ5M7SGMia1BxUya3gzejO1QhWklFQWpHIVsoQypVl4M3gzAhWwangzhzLa+Pn5ef0HAjDhzVCS\n1BkqwAAES5+9twdSCutTzRxKkvQA0uIcppEAAAA=\n'
p2263
sg19
g136
sg21
I389
ssg313
I0
sg314
(dp2264
g18
S'H4sIAA3vH04C/2tgSs4rzS2o1EvOL0rVyy3NKclMLCpKrOSKL0pNzs8rLikqTS7hKmSEqOLKS4HI\nFjJ5M7SGMia1BxUya3gzejO1QhWklFQWpHIVsoQypVl4M3gzAhWwangzhzLa+Pn5ef0HAjDhzVCS\n1BkqwAAGH+xhdEmSHgBnOGdykQAAAA==\n'
p2265
sg19
g136
sg21
I390
ssg168
I0
sg317
F1
sg318
g319
sg155
I0
ssg19
g81
sg21
I384
sssg394
(dp2266
g2
(lp2267
((g4
g5
tI-1
tp2268
a((g7
g5
tI-1
tp2269
a((g108
g109
tI-1
tp2270
a((g111
g112
tI-1
tp2271
a((g114
g115
tI-1
tp2272
a((g328
g329
tI-1
tp2273
asg15
g328
sg16
(dp2274
g18
Nsg19
g54
sg21
I9
ssg19
g22
sg21
I400
sg23
g329
sg18
(dp2275
g18
(dp2276
g334
F1
sg335
g336
sg337
I12
sg338
F0
sg339
F0
sg340
I1
sg341
g342
sg343
I0
sg165
I0
sg344
F1.1000000000000001
sg345
(dp2277
g18
Nsg19
g54
sg21
I31
ssg348
I1
sg349
(dp2278
g18
S'H4sIAA3vH04C/2tgSs4rzS2o1EvOL0rVyy3NKclMLCpKrOSKL0pNzs8rLikqTS7hKmSEqOLKS4HI\nFjJ5M7SGMia1BxUya3gzejO1QhWklFQWpHIVsoQyZZp4M3gzAhWwangzhzLa+Pn5ef0HAjDhzVCS\n1BnKwcjAwADiliTpAQCk2G9tiQAAAA==\n'
p2279
sg19
g136
sg21
I402
ssg168
I0
sg352
I1
sg353
I0
sg354
g355
sg155
I0
sg356
I1
ssg19
g81
sg21
I401
sssg306
I256
sS'_orig_data_range'
p2280
(dp2281
g18
S'H4sIAA3vH04C/2tgSs4rzS2o1EvOL0rVyy3NKclMLCpKrOSKL0pNzs8rLikqTS7hKmSEqOLKS4HI\nFjJ5M7SGMia1BxUya3gzejO1QhWklFQWpHIVsoQypVl4M3gzAhWwangzhzLa+Pn5ef0HAjDhzVCS\n1BkqwIACPtiXJOkBAIHIRA6RAAAA\n'
p2282
sg19
g136
sg21
I393
ssg237
Nsg458
I00
sg19
S''
sS'scalar_bar_representation'
p2283
(dp2284
g2
(lp2285
((g4
g5
tI-1
tp2286
a((g7
g5
tI-1
tp2287
a((g108
g109
tI-1
tp2288
a((g111
g112
tI-1
tp2289
a((g114
g115
tI-1
tp2290
a((g419
g420
tI-1
tp2291
a((S'WidgetRepresentation'
p2292
S'tvtk_classes.widget_representation'
p2293
tI-1
tp2294
a((S'BorderRepresentation'
p2295
S'tvtk_classes.border_representation'
p2296
tI-1
tp2297
a((S'ScalarBarRepresentation'
p2298
S'tvtk_classes.scalar_bar_representation'
p2299
tI-1
tp2300
asg15
g2298
sg16
(dp2301
g18
Nsg19
g54
sg21
I9
ssg19
g22
sg21
I394
sg23
g2299
sg18
(dp2302
g18
(dp2303
g338
I1
sS'need_to_render'
p2304
I0
sg432
I1
sg450
I1
sS'show_border'
p2305
S'active'
p2306
sg434
I1
sS'show_border_'
p2307
I2
sS'need_to_render_'
p2308
I0
sS'proportional_resize_'
p2309
I0
sg451
(dp2310
g18
S'H4sIAA3vH04C/2tgSs4rzS2o1EvOL0rVyy3NKclMLCpKrOSKL0pNzs8rLikqTS7hKmSEqOLKS4HI\nFjJ5M7SGMia1BxUya3gzejO1QhWklFQWpHIVsoQypVl4M3gzAhWwangzhzLa+Pn5ef0HAjDhzVCS\n1BkqcPirRkz/oaP2s2aCwEv7kiQ9AC+e0nyRAAAA\n'
p2311
sg19
g136
sg21
I397
ssS'moving_'
p2312
I0
sS'maximum_size'
p2313
(dp2314
g18
S'H4sIAA3vH04C/2tgSs4rzS2o1EvOL0rVyy3NKclMLCpKrOSKL0pNzs8rLikqTS7hKmSEqOLKS4HI\nFjJ5M7SGMia1BxUya3gzejO1QhWklFQWpHIVsoQyZZp4M3gzAhWwangzhzLa+Pn5ef0HAjDhzVCS\n1BnKsaCNkQGES5L0ALP9TXGJAAAA\n'
p2315
sg19
g136
sg21
I399
ssg444
I1
sg979
I3
sS'minimum_size'
p2316
(dp2317
g18
S'H4sIAA3vH04C/2tgSs4rzS2o1EvOL0rVyy3NKclMLCpKrOSKL0pNzs8rLikqTS7hKmSEqOLKS4HI\nFjJ5M7SGMia1BxUya3gzejO1QhWklFQWpHIVsoQyZZp4M3gzAhWwangzhzLa+Pn5ef0HAjDhzVCS\n1BnKwcjAwADCJUl6AJHzi6mJAAAA\n'
p2318
sg19
g136
sg21
I396
ssg446
I1
sg447
I1
sg155
I0
sS'moving'
p2319
I0
sg159
F0.5
sS'proportional_resize'
p2320
I0
sg165
I0
sg168
I0
sg455
(dp2321
g18
S'H4sIAA3vH04C/2tgSs4rzS2o1EvOL0rVyy3NKclMLCpKrOSKL0pNzs8rLikqTS7hKmSEqOLKS4HI\nFjJ5M7SGMia1BxUya3gzejO1QhWklFQWpHIVsoQypVl4M3gzAhWwangzhzLa+Pn5ef0HAjDhzVCS\n1BkqYMt1fXGB7Sv7WTNBYKd9SZIeADd4AQGRAAAA\n'
p2322
sg19
g136
sg21
I398
ssg137
F0.01
ssg19
g81
sg21
I395
sssg359
(dp2323
g2
(lp2324
((g4
g5
tI-1
tp2325
a((g7
g5
tI-1
tp2326
a((g108
g109
tI-1
tp2327
a((g111
g112
tI-1
tp2328
a((g114
g115
tI-1
tp2329
a((g117
g118
tI-1
tp2330
a((g368
g369
tI-1
tp2331
a((g371
g372
tI-1
tp2332
a((g374
g375
tI-1
tp2333
asg15
g374
sg16
(dp2334
g18
Nsg19
g54
sg21
I9
ssg19
g22
sg21
I391
sg23
g375
sg18
(dp2335
g18
(dp2336
g380
I1
sg149
S'i'
sg381
I1
sg155
I0
sg168
I0
sg164
I0
sg156
I0
sg165
I0
sg382
I1
sg146
F0.5
sg383
I1
sg384
I1
sg385
I1
sg158
I0
sg386
I1
sg387
I0
sg388
I0
sg141
I0
sg389
I1
ssg19
g81
sg21
I392
sssg410
I00
sg353
I00
sg459
g460
sg273
I01
sg57
S''
sg390
I8
sg392
(dp2337
g18
Nsg19
g54
sg21
I382
ssg357
g2239
sg83
S''
sg409
I01
sg411
(dp2338
g2
(lp2339
((g4
g5
tI-1
tp2340
a((g7
g5
tI-1
tp2341
a((g108
g109
tI-1
tp2342
a((g111
g112
tI-1
tp2343
a((g114
g115
tI-1
tp2344
a((g419
g420
tI-1
tp2345
a((g422
g423
tI-1
tp2346
a((g425
g426
tI-1
tp2347
asg15
g425
sg16
(dp2348
g18
Nsg19
g54
sg21
I9
ssg19
g22
sg21
I403
sg23
g426
sg18
(dp2349
g18
(dp2350
g338
g431
sg432
I1
sg433
F0.17000000000000001
sg434
I1
sg435
I0
sg436
S'point_scalars'
p2351
sg438
S'%-#6.3g'
p2352
sg440
F0.80000000000000004
sg441
F10
sg442
g443
sg444
I1
sg445
I0
sg446
I1
sg447
I1
sg155
I0
sg448
I256
sg449
I1
sg450
I1
sg390
I8
sg165
I0
sg451
(dp2353
g18
S'H4sIAA3vH04C/2tgSs4rzS2o1EvOL0rVyy3NKclMLCpKrOSKL0pNzs8rLikqTS7hKmSEqOLKS4HI\nFjJ5M7SGMia1BxUya3gzejO1QhWklFQWpHIVsoQypVl4M3gzAhWwangzhzLa+Pn5ef0HAjDhzVCS\n1BkqMGsmCLy0P/xVI6b/0FH7kiQ9AGpIg++RAAAA\n'
p2354
sg19
g136
sg21
I406
ssg454
I0
sg168
I0
sg455
(dp2355
g18
S'H4sIAA3vH04C/2tgSs4rzS2o1EvOL0rVyy3NKclMLCpKrOSKL0pNzs8rLikqTS7hKmSEqOLKS4HI\nFjJ5M7SGMia1BxUya3gzejO1QhWklFQWpHIVsoQypVl4M3gzAhWwangzhzLa+Pn5ef0HAjDhzVCS\n1BkqMGsmCOy0rxZZ5/6wqsW+JEkPAHMFfKeRAAAA\n'
p2356
sg19
g136
sg21
I405
sssg19
g81
sg21
I404
ssssg19
g81
sg21
I378
sssg19
S' colors and legends'
p2357
sg257
(dp2358
g2
(lp2359
((g4
g5
tI-1
tp2360
a((g30
g5
tI-1
tp2361
a((g32
g33
tI-1
tp2362
a((g35
g36
tI0
tp2363
a((g264
g265
tI0
tp2364
asg15
g264
sg16
(dp2365
g18
Nsg19
g54
sg21
I1
ssg19
g22
sg21
I347
sg23
g265
sg18
(dp2366
g18
(dp2367
g320
(dp2368
g2
(lp2369
((g4
g5
tI-1
tp2370
a((g7
g5
tI-1
tp2371
a((g108
g109
tI-1
tp2372
a((g111
g112
tI-1
tp2373
a((g114
g115
tI-1
tp2374
a((g328
g329
tI-1
tp2375
asg15
g328
sg16
(dp2376
g18
Nsg19
g54
sg21
I9
ssg19
g22
sg21
I349
sg23
g329
sg18
(dp2377
g18
(dp2378
g334
F1
sg335
g336
sg337
I12
sg338
F0
sg339
F0
sg340
I1
sg341
g342
sg343
I0
sg165
I0
sg344
F1.1000000000000001
sg345
(dp2379
g18
Nsg19
g54
sg21
I31
ssg348
I1
sg349
(dp2380
g18
S'H4sIAA3vH04C/2tgSs4rzS2o1EvOL0rVyy3NKclMLCpKrOSKL0pNzs8rLikqTS7hKmSEqOLKS4HI\nFjJ5M7SGMia1BxUya3gzejO1QhWklFQWpHIVsoQyZZp4M3gzAhWwangzhzLa+Pn5ef0HAjDhzVCS\n1BnKwcjAwADiliTpAQCk2G9tiQAAAA==\n'
p2381
sg19
g136
sg21
I351
ssg168
I0
sg352
I1
sg353
I0
sg354
g355
sg155
I0
sg356
I1
ssg19
g81
sg21
I350
sssg2238
S''
sg391
g358
sg82
I01
sg270
(dp2382
g18
S'H4sIAA3vH04C/2tgSs4rzS2o1EvOL0rVyy3NKclMLCpKrOSKL0pNzs8rLikqTS7hKmSEqOLKS4HI\nFjJ5M7SGMia1BxUya3gzejO1QhWklFQWpHIVsoQypVl4M3gzAhWwangzhzLa+Pn5ef0HAjDhzVCS\n1BkqwIACPtiXJOkBAIHIRA6RAAAA\n'
p2383
sg19
g136
sg21
I352
ssg274
(dp2384
g2
(lp2385
((g4
g5
tI-1
tp2386
a((g7
g5
tI-1
tp2387
a((g108
g109
tI-1
tp2388
a((g111
g112
tI-1
tp2389
a((g114
g115
tI-1
tp2390
a((g282
g283
tI-1
tp2391
a((g285
g286
tI-1
tp2392
asg15
g285
sg16
(dp2393
g18
Nsg19
g54
sg21
I9
ssg19
g22
sg21
I353
sg23
g286
sg18
(dp2394
g18
(dp2395
g291
I2
sg292
g293
sg294
(dp2396
g18
S'H4sIAA3vH04C/2tgSs4rzS2o1EvOL0rVyy3NKclMLCpKrOSKL0pNzs8rLikqTS7hKmSEqOLKS4HI\nFjJ5M7SGMia1BxUya3gzejO1QhWklFQWpHIVsoQypVl4M3gzAhWwangzhzLa+Pn5ef0HAjDhzVCS\n1BkqwAAGH+xhdEmSHgBnOGdykQAAAA==\n'
p2397
sg19
g136
sg21
I355
ssg297
(dp2398
g18
S'H4sIAA3vH04C/2tgSs4rzS2o1EvOL0rVyy3NKclMLCpKrOSKL0pNzs8rLikqTS7hKmSEqOLKS4HI\nFjJ5M7SGMia1BxUya3gzejO1QhWklFQWpHIVsoQypVl4M3gzAhWwangzhzLa+Pn5ef0HAjDhzVCS\n1BkqwIACPtiXJOkBAIHIRA6RAAAA\n'
p2399
sg19
g136
sg21
I357
ssg300
(dp2400
g18
S'H4sIAA3vH04C/2tgSs4rzS2o1EvOL0rVyy3NKclMLCpKrOSKL0pNzs8rLikqTS7hKmSEqOLKS4HI\nFjJ5M7SGMia1BxUya3gzejO1QhWklFQWpHIVsoQypVl4M3gzAhWwangzhzLa+Pn5ef0HAjDhzVCS\n1Bkq4H2C3XZ26FN7BigoSdIDAObNAnCRAAAA\n'
p2401
sg19
g136
sg21
I356
ssg303
I256
sg304
g305
sg165
I0
sg306
I256
sg307
(dp2402
g18
S'H4sIAA3vH04C/2tgSs4rzS2o1EvOL0rVyy3NKclMLCpKrOSKL0pNzs8rLikqTS7hKmSEqOLKS4HI\nFjJ5M7SGMia1BxUya3gzejO1QhWklFQWpHIVsoQypVl4M3gzAhWwangzhzLa+Pn5ef0HAjDhzVCS\n1BkqwAAGH+xhdEmSHgBnOGdykQAAAA==\n'
p2403
sg19
g136
sg21
I358
ssg310
(dp2404
g18
S'H4sIAA3vH04C/2tgSs4rzS2o1EvOL0rVyy3NKclMLCpKrOSKL0pNzs8rLikqTS7hKmSEqOLKS4HI\nFjJ5M7SGMia1BxUya3gzejO1QhWklFQWpHIVsoQypVl4M3gzAhWwangzhzLa+Pn5ef0HAjDhzVCS\n1BkqwIACPtiXJOkBAIHIRA6RAAAA\n'
p2405
sg19
g136
sg21
I359
ssg313
I0
sg314
(dp2406
g18
S'H4sIAA3vH04C/2tgSs4rzS2o1EvOL0rVyy3NKclMLCpKrOSKL0pNzs8rLikqTS7hKmSEqOLKS4HI\nFjJ5M7SGMia1BxUya3gzejO1QhWklFQWpHIVsoQypVl4M3gzAhWwangzhzLa+Pn5ef0HAjDhzVCS\n1BkqwAAGH+xhdEmSHgBnOGdykQAAAA==\n'
p2407
sg19
g136
sg21
I360
ssg168
I0
sg317
F1
sg318
g319
sg155
I0
ssg19
g81
sg21
I354
sssg394
(dp2408
g2
(lp2409
((g4
g5
tI-1
tp2410
a((g7
g5
tI-1
tp2411
a((g108
g109
tI-1
tp2412
a((g111
g112
tI-1
tp2413
a((g114
g115
tI-1
tp2414
a((g328
g329
tI-1
tp2415
asg15
g328
sg16
(dp2416
g18
Nsg19
g54
sg21
I9
ssg19
g22
sg21
I370
sg23
g329
sg18
(dp2417
g18
(dp2418
g334
F1
sg335
g336
sg337
I12
sg338
F0
sg339
F0
sg340
I1
sg341
g342
sg343
I0
sg165
I0
sg344
F1.1000000000000001
sg345
(dp2419
g18
Nsg19
g54
sg21
I31
ssg348
I1
sg349
(dp2420
g18
S'H4sIAA3vH04C/2tgSs4rzS2o1EvOL0rVyy3NKclMLCpKrOSKL0pNzs8rLikqTS7hKmSEqOLKS4HI\nFjJ5M7SGMia1BxUya3gzejO1QhWklFQWpHIVsoQyZZp4M3gzAhWwangzhzLa+Pn5ef0HAjDhzVCS\n1BnKwcjAwADiliTpAQCk2G9tiQAAAA==\n'
p2421
sg19
g136
sg21
I372
ssg168
I0
sg352
I1
sg353
I0
sg354
g355
sg155
I0
sg356
I1
ssg19
g81
sg21
I371
sssg306
I256
sg2280
(dp2422
g18
S'H4sIAA3vH04C/2tgSs4rzS2o1EvOL0rVyy3NKclMLCpKrOSKL0pNzs8rLikqTS7hKmSEqOLKS4HI\nFjJ5M7SGMia1BxUya3gzejO1QhWklFQWpHIVsoQypVl4M3gzAhWwangzhzLa+Pn5ef0HAjDhzVCS\n1BkqwIACPtiXJOkBAIHIRA6RAAAA\n'
p2423
sg19
g136
sg21
I363
ssg237
Nsg458
I00
sg19
S''
sg2283
(dp2424
g2
(lp2425
((g4
g5
tI-1
tp2426
a((g7
g5
tI-1
tp2427
a((g108
g109
tI-1
tp2428
a((g111
g112
tI-1
tp2429
a((g114
g115
tI-1
tp2430
a((g419
g420
tI-1
tp2431
a((g2292
g2293
tI-1
tp2432
a((g2295
g2296
tI-1
tp2433
a((g2298
g2299
tI-1
tp2434
asg15
g2298
sg16
(dp2435
g18
Nsg19
g54
sg21
I9
ssg19
g22
sg21
I364
sg23
g2299
sg18
(dp2436
g18
(dp2437
g338
I1
sg2304
I0
sg432
I1
sg450
I1
sg2305
g2306
sg434
I1
sg2307
I2
sg2308
I0
sg2309
I0
sg451
(dp2438
g18
S'H4sIAA3vH04C/2tgSs4rzS2o1EvOL0rVyy3NKclMLCpKrOSKL0pNzs8rLikqTS7hKmSEqOLKS4HI\nFjJ5M7SGMia1BxUya3gzejO1QhWklFQWpHIVsoQypVl4M3gzAhWwangzhzLa+Pn5ef0HAjDhzVCS\n1BkqcPirRkz/oaP2s2aCwEv7kiQ9AC+e0nyRAAAA\n'
p2439
sg19
g136
sg21
I367
ssg2312
I0
sg2313
(dp2440
g18
S'H4sIAA3vH04C/2tgSs4rzS2o1EvOL0rVyy3NKclMLCpKrOSKL0pNzs8rLikqTS7hKmSEqOLKS4HI\nFjJ5M7SGMia1BxUya3gzejO1QhWklFQWpHIVsoQyZZp4M3gzAhWwangzhzLa+Pn5ef0HAjDhzVCS\n1BnKsaCNkQGES5L0ALP9TXGJAAAA\n'
p2441
sg19
g136
sg21
I369
ssg444
I1
sg979
I3
sg2316
(dp2442
g18
S'H4sIAA3vH04C/2tgSs4rzS2o1EvOL0rVyy3NKclMLCpKrOSKL0pNzs8rLikqTS7hKmSEqOLKS4HI\nFjJ5M7SGMia1BxUya3gzejO1QhWklFQWpHIVsoQyZZp4M3gzAhWwangzhzLa+Pn5ef0HAjDhzVCS\n1BnKwcjAwADCJUl6AJHzi6mJAAAA\n'
p2443
sg19
g136
sg21
I366
ssg446
I1
sg447
I1
sg155
I0
sg2319
I0
sg159
F0.5
sg2320
I0
sg165
I0
sg168
I0
sg455
(dp2444
g18
S'H4sIAA3vH04C/2tgSs4rzS2o1EvOL0rVyy3NKclMLCpKrOSKL0pNzs8rLikqTS7hKmSEqOLKS4HI\nFjJ5M7SGMia1BxUya3gzejO1QhWklFQWpHIVsoQypVl4M3gzAhWwangzhzLa+Pn5ef0HAjDhzVCS\n1BkqYMt1fXGB7Sv7WTNBYKd9SZIeADd4AQGRAAAA\n'
p2445
sg19
g136
sg21
I368
ssg137
F0.01
ssg19
g81
sg21
I365
sssg359
(dp2446
g2
(lp2447
((g4
g5
tI-1
tp2448
a((g7
g5
tI-1
tp2449
a((g108
g109
tI-1
tp2450
a((g111
g112
tI-1
tp2451
a((g114
g115
tI-1
tp2452
a((g117
g118
tI-1
tp2453
a((g368
g369
tI-1
tp2454
a((g371
g372
tI-1
tp2455
a((g374
g375
tI-1
tp2456
asg15
g374
sg16
(dp2457
g18
Nsg19
g54
sg21
I9
ssg19
g22
sg21
I361
sg23
g375
sg18
(dp2458
g18
(dp2459
g380
I1
sg149
S'i'
sg381
I1
sg155
I0
sg168
I0
sg164
I0
sg156
I0
sg165
I0
sg382
I1
sg146
F0.5
sg383
I1
sg384
I1
sg385
I1
sg158
I0
sg386
I1
sg387
I0
sg388
I0
sg141
I0
sg389
I1
ssg19
g81
sg21
I362
sssg410
I00
sg353
I00
sg459
g460
sg273
I01
sg57
S''
sg390
I8
sg392
(dp2460
g18
Nsg19
g54
sg21
I352
ssg357
g358
sg83
S''
sg409
I01
sg411
(dp2461
g2
(lp2462
((g4
g5
tI-1
tp2463
a((g7
g5
tI-1
tp2464
a((g108
g109
tI-1
tp2465
a((g111
g112
tI-1
tp2466
a((g114
g115
tI-1
tp2467
a((g419
g420
tI-1
tp2468
a((g422
g423
tI-1
tp2469
a((g425
g426
tI-1
tp2470
asg15
g425
sg16
(dp2471
g18
Nsg19
g54
sg21
I9
ssg19
g22
sg21
I373
sg23
g426
sg18
(dp2472
g18
(dp2473
g338
g431
sg432
I1
sg433
F0.17000000000000001
sg434
I1
sg435
I0
sg436
S'No vectors'
p2474
sg438
S'%-#6.3g'
p2475
sg440
F0.80000000000000004
sg441
F10
sg442
g443
sg444
I1
sg445
I0
sg446
I1
sg447
I1
sg155
I0
sg448
I256
sg449
I1
sg450
I1
sg390
I8
sg165
I0
sg451
(dp2476
g18
S'H4sIAA3vH04C/2tgSs4rzS2o1EvOL0rVyy3NKclMLCpKrOSKL0pNzs8rLikqTS7hKmSEqOLKS4HI\nFjJ5M7SGMia1BxUya3gzejO1QhWklFQWpHIVsoQypVl4M3gzAhWwangzhzLa+Pn5ef0HAjDhzVCS\n1BkqMGsmCLy0P/xVI6b/0FH7kiQ9AGpIg++RAAAA\n'
p2477
sg19
g136
sg21
I376
ssg454
I0
sg168
I0
sg455
(dp2478
g18
S'H4sIAA3vH04C/2tgSs4rzS2o1EvOL0rVyy3NKclMLCpKrOSKL0pNzs8rLikqTS7hKmSEqOLKS4HI\nFjJ5M7SGMia1BxUya3gzejO1QhWklFQWpHIVsoQypVl4M3gzAhWwangzhzLa+Pn5ef0HAjDhzVCS\n1BkqMGsmCOy0rxZZ5/6wqsW+JEkPAHMFfKeRAAAA\n'
p2479
sg19
g136
sg21
I375
sssg19
g81
sg21
I374
ssssg19
g81
sg21
I348
sssg821
g823
ssg19
g81
sg21
I279
ssa(dp2480
g2
(lp2481
((g4
g5
tI-1
tp2482
a((g30
g5
tI-1
tp2483
a((g32
g33
tI-1
tp2484
a((g35
g36
tI0
tp2485
a((g38
g39
tI0
tp2486
a((g41
g42
tI0
tp2487
a((g44
g45
tI0
tp2488
a((S'TransformData'
p2489
S'enthought.mayavi.filters.transform_data'
p2490
tI0
tp2491
asg15
g2489
sg16
(dp2492
g18
Nsg19
g54
sg21
I1
ssg19
g22
sg21
I407
sg23
g2490
sg18
(dp2493
g18
(dp2494
S'update_mode'
p2495
S'semi-interactive'
p2496
sg103
(dp2497
g2
(lp2498
((g4
g5
tI-1
tp2499
a((g7
g5
tI-1
tp2500
a((g108
g109
tI-1
tp2501
a((g111
g112
tI-1
tp2502
a((g114
g115
tI-1
tp2503
a((g117
g118
tI-1
tp2504
a((g120
g121
tI-1
tp2505
a((S'BoxWidget'
p2506
S'tvtk_classes.box_widget'
p2507
tI-1
tp2508
asg15
g2506
sg16
(dp2509
g18
Nsg19
g54
sg21
I9
ssg19
g22
sg21
I409
sg23
g2507
sg18
(dp2510
g18
(dp2511
S'translation_enabled'
p2512
I1
sg137
F0.01
sS'inside_out'
p2513
I0
sS'outline_face_wires_'
p2514
I0
sS'scaling_enabled_'
p2515
I0
sS'outline_face_wires'
p2516
I0
sg141
I1
sS'rotation_enabled'
p2517
I0
sS'outline_cursor_wires'
p2518
I1
sg146
F0.5
sS'scaling_enabled'
p2519
I0
sg149
S'i'
sS'translation_enabled_'
p2520
I1
sg155
I0
sg156
I1
sg158
I1
sg159
F1.1000000000000001
sS'rotation_enabled_'
p2521
I0
sS'inside_out_'
p2522
I0
sg164
I1
sg165
I0
sg168
I0
sS'outline_cursor_wires_'
p2523
I1
ssg19
g81
sg21
I410
sssS'matrix'
p2524
S"centhought.traits.traits\n__newobj__\np1\n(ctvtk_classes.matrix4x4\nMatrix4x4\np2\ntRp3\n(dp4\nS'global_warning_display_'\np5\nI0\nsS'elements'\np6\n(lp7\nF1\naF0\naF0\naF0\naF0\naF1\naF0\naF0\naF0\naF0\naF0.99999999999999989\naF4.2912721986976265e-16\naF0\naF0\naF0\naF1\nasS'debug'\np8\nI0\nsS'debug_'\np9\nI0\nsb."
p2525
sg59
(dp2526
g2
(lp2527
((g4
g5
tI-1
tp2528
a((g63
g64
tI-1
tp2529
asg15
g63
sg16
(dp2530
g18
Nsg19
g54
sg21
I1
ssg19
g22
sg21
I504
sg23
g64
sg18
(dp2531
g18
(dp2532
g69
(dp2533
g18
(lp2534
g72
asg19
g73
sg21
I506
ssg74
(dp2535
g18
(lp2536
g77
asg19
g73
sg21
I507
ssg78
(dp2537
g18
(lp2538
g72
asg19
g73
sg21
I508
sssg19
g81
sg21
I505
sssS'_transform'
p2539
(dp2540
g2
(lp2541
((g4
g5
tI-1
tp2542
a((g7
g5
tI-1
tp2543
a((g108
g109
tI-1
tp2544
a((g111
g112
tI-1
tp2545
a((g114
g115
tI-1
tp2546
a((S'AbstractTransform'
p2547
S'tvtk_classes.abstract_transform'
p2548
tI-1
tp2549
a((S'HomogeneousTransform'
p2550
S'tvtk_classes.homogeneous_transform'
p2551
tI-1
tp2552
a((S'LinearTransform'
p2553
S'tvtk_classes.linear_transform'
p2554
tI-1
tp2555
a((S'Transform'
p2556
S'tvtk_classes.transform'
p2557
tI-1
tp2558
asg15
g2556
sg16
(dp2559
g18
Nsg19
g54
sg21
I9
ssg19
g22
sg21
I500
sg23
g2557
sg18
(dp2560
g18
(dp2561
g168
I0
sg155
I0
sg165
I0
ssg19
g81
sg21
I501
sssg83
S''
sg1964
(dp2562
g2
(lp2563
((g4
g5
tI-1
tp2564
a((g7
g5
tI-1
tp2565
a((g108
g109
tI-1
tp2566
a((g111
g112
tI-1
tp2567
a((g114
g115
tI-1
tp2568
a((g215
g216
tI-1
tp2569
a((S'PointSetAlgorithm'
p2570
S'tvtk_classes.point_set_algorithm'
p2571
tI-1
tp2572
a((S'TransformFilter'
p2573
S'tvtk_classes.transform_filter'
p2574
tI-1
tp2575
asg15
g2573
sg16
(dp2576
g18
Nsg19
g54
sg21
I9
ssg19
g22
sg21
I502
sg23
g2574
sg18
(dp2577
g18
(dp2578
g227
I0
sg228
Nsg234
I0
sg165
I0
sg155
I0
sg232
I0
sg233
I0
sg168
I0
sg235
F1
ssg19
g81
sg21
I503
sssg82
I01
sS'update_mode_'
p2579
S'EndInteractionEvent'
p2580
sg237
Nsg821
g824
sg19
g238
sg239
(dp2581
g18
(lp2582
(dp2583
g2
(lp2584
((g4
g5
tI-1
tp2585
a((g30
g5
tI-1
tp2586
a((g32
g33
tI-1
tp2587
a((g35
g36
tI0
tp2588
a((g248
g249
tI0
tp2589
asg15
g248
sg16
(dp2590
g18
Nsg19
g54
sg21
I1
ssg19
g22
sg21
I412
sg23
g249
sg18
(dp2591
g18
(dp2592
g57
g254
sg255
g256
sg239
(dp2593
g18
(lp2594
(dp2595
g2
(lp2596
((g4
g5
tI-1
tp2597
a((g30
g5
tI-1
tp2598
a((g32
g33
tI-1
tp2599
a((g35
g36
tI0
tp2600
a((g38
g39
tI0
tp2601
a((g570
g571
tI0
tp2602
a((g2075
g2076
tI0
tp2603
asg15
g2075
sg16
(dp2604
g18
Nsg19
g54
sg21
I1
ssg19
g22
sg21
I415
sg23
g2076
sg18
(dp2605
g18
(dp2606
g2081
I01
sg593
(dp2607
g18
(lp2608
sg19
g73
sg21
I417
ssg57
g2075
sg59
(dp2609
g18
Nsg19
g54
sg21
I106
ssg627
(dp2610
g2
(lp2611
((g4
g5
tI-1
tp2612
a((g30
g5
tI-1
tp2613
a((g32
g33
tI-1
tp2614
a((g35
g36
tI0
tp2615
a((g38
g39
tI0
tp2616
a((g94
g95
tI0
tp2617
a((g636
g637
tI0
tp2618
asg15
g636
sg16
(dp2619
g18
Nsg19
g54
sg21
I1
ssg19
g22
sg21
I426
sg23
g637
sg18
(dp2620
g18
(dp2621
g642
(dp2622
g2
(lp2623
((g4
g5
tI-1
tp2624
a((g7
g5
tI-1
tp2625
a((g108
g109
tI-1
tp2626
a((g111
g112
tI-1
tp2627
a((g114
g115
tI-1
tp2628
a((g215
g216
tI-1
tp2629
a((g651
g652
tI-1
tp2630
a((g654
g655
tI-1
tp2631
a((g657
g658
tI-1
tp2632
a((g2108
g2109
tI-1
tp2633
asg15
g2108
sg16
(dp2634
g18
Nsg19
g54
sg21
I9
ssg19
g22
sg21
I435
sg23
g2109
sg18
(dp2635
g18
(dp2636
g666
I0
sg667
I0
sg668
S'use_cell_data'
p2637
sg670
I0
sg684
I0
sg671
F0.01
sg673
g669
sg674
I0
sg168
I0
sg675
I0
sg676
I1
sg232
I0
sg233
I0
sg235
F1
sg677
(dp2638
g18
S'H4sIAA3vH04C/2tgSs4rzS2o1EvOL0rVyy3NKclMLCpKrOSKL0pNzs8rLikqTS7hKmSEqOLKS4HI\nFjJ5M7SGMia1BxUya3gzejO1QhWklFQWpHIVsoQypVl4M3gzAhWwangzhzLa+Pn5ef0HAjDhzVCS\n1BkqwIACPtiXJOkBAIHIRA6RAAAA\n'
p2639
sg19
g136
sg21
I437
ssg228
Nsg680
I1
sg155
I0
sg1820
I2
sg681
I0
sg682
I1
sg227
I0
sg683
I1
sg165
I0
sg686
I0
sg689
g669
sg234
I0
sg687
F0
sg685
I0
sg692
g693
sg694
I1
ssg19
g81
sg21
I436
sssg593
(dp2640
g18
(lp2641
sg19
g73
sg21
I428
ssg57
S''
sg59
Nsg627
(dp2642
g2
(lp2643
((g4
g5
tI-1
tp2644
a((g7
g5
tI-1
tp2645
a((g108
g109
tI-1
tp2646
a((g111
g112
tI-1
tp2647
a((g114
g115
tI-1
tp2648
a((g419
g420
tI-1
tp2649
a((g705
g706
tI-1
tp2650
a((g636
g708
tI-1
tp2651
asg15
g636
sg16
(dp2652
g18
Nsg19
g54
sg21
I9
ssg19
g22
sg21
I429
sg23
g708
sg18
(dp2653
g18
(dp2654
g133
(dp2655
g18
S'H4sIAA3vH04C/2tgSs4rzS2o1EvOL0rVyy3NKclMLCpKrOSKL0pNzs8rLikqTS7hKmSEqOLKS4HI\nFjJ5M7SGMia1BxUya3gzejO3QhWklFQWpHIVsoQypVl4M3gzAhWwangzhzLa+Pn5ef0HAjDhzVCS\n1BkqwYADlCTpAQD67GqfmQAAAA==\n'
p2656
sg19
g136
sg21
I431
ssg292
(dp2657
g18
S'H4sIAA3vH04C/2tgSs4rzS2o1EvOL0rVyy3NKclMLCpKrOSKL0pNzs8rLikqTS7hKmSEqOLKS4HI\nFjJ5M7SGMia1BxUya3gzejO3QhWklFQWpHIVsoQypVl4M3gzAhWwangzhzLa+Pn5ef0HAjDhzVCS\n1BkqwQAGH+zR6ZIkPQDfyO6fmQAAAA==\n'
p2658
sg19
g136
sg21
I433
ssg338
(dp2659
g18
S'H4sIAA3vH04C/2tgSs4rzS2o1EvOL0rVyy3NKclMLCpKrOSKL0pNzs8rLikqTS7hKmSEqOLKS4HI\nFjJ5M7SGMia1BxUya3gzejO3QhWklFQWpHIVsoQypVl4M3gzAhWwangzhzLa+Pn5ef0HAjDhzVCS\n1BkqwYAKGmCMkiQ9ABqDrf+ZAAAA\n'
p2660
sg19
g136
sg21
I432
ssg168
I0
sg432
I1
sg446
I1
sg450
I1
sg447
I1
sg155
I0
sg165
I0
sg434
I1
sg455
(dp2661
g18
S'H4sIAA3vH04C/2tgSs4rzS2o1EvOL0rVyy3NKclMLCpKrOSKL0pNzs8rLikqTS7hKmSEqOLKS4HI\nFjJ5M7SGMia1BxUya3gzejO3QhWklFQWpHIVsoQypVl4M3gzAhWwangzhzLa+Pn5ef0HAjDhzVCS\n1BkqwYADlCTpAQD67GqfmQAAAA==\n'
p2662
sg19
g136
sg21
I434
ssg444
I1
ssg19
g81
sg21
I430
sssg82
I01
sg83
S''
sg613
Nsg237
Nsg721
(dp2663
g2
(lp2664
((g4
g5
tI-1
tp2665
a((g7
g5
tI-1
tp2666
a((g108
g109
tI-1
tp2667
a((g111
g112
tI-1
tp2668
a((g114
g115
tI-1
tp2669
a((g729
g730
tI-1
tp2670
a((g732
g733
tI-1
tp2671
asg15
g732
sg16
(dp2672
g18
Nsg19
g54
sg21
I9
ssg19
g22
sg21
I438
sg23
g733
sg18
(dp2673
g18
(dp2674
g738
(dp2675
g18
Nsg19
g54
sg21
I31
ssg740
I0
sg741
F1.8999999999999999
sg751
(dp2676
g18
Nsg19
g54
sg21
I31
ssg745
F0.018499999999999999
sg746
I0
sg742
(dp2677
g18
Nsg19
g54
sg21
I89
ssg747
g748
sg334
F0.50449999999999995
sg749
I0
sg750
F16.766231536865234
sS'interpolation_'
p2678
I1
sg753
(dp2679
g18
Nsg19
g54
sg21
I31
ssg755
I0
sg155
I0
sg756
I0
sg757
I0
sg758
F1
sg759
I0
sg165
I0
sg760
F0
sg761
I0
sS'representation_'
p2680
I2
sg762
I65535
sg168
I0
sg763
g764
sg765
I1
sg766
F2
ssg19
g81
sg21
I439
sssg19
S''
ssg19
g81
sg21
I427
sssg82
I01
sg83
S''
sg613
(dp2681
g18
Nsg19
g54
sg21
I319
ssg237
Nsg19
g820
sg1994
(dp2682
g2
(lp2683
((g4
g5
tI-1
tp2684
a((g30
g5
tI-1
tp2685
a((g32
g33
tI-1
tp2686
a((g35
g36
tI0
tp2687
a((g38
g39
tI0
tp2688
a((g94
g95
tI0
tp2689
a((g2003
g2004
tI0
tp2690
asg15
g2003
sg16
(dp2691
g18
Nsg19
g54
sg21
I1
ssg19
g22
sg21
I418
sg23
g2004
sg18
(dp2692
g18
(dp2693
g593
(dp2694
g18
(lp2695
sg19
g73
sg21
I420
ssg57
S''
sg2011
I01
sg613
Nsg2012
(dp2696
g18
Nsg19
g54
sg21
I327
ssg2015
I01
sg82
I01
sg83
S''
sg2016
(dp2697
g2
(lp2698
((g4
g5
tI-1
tp2699
a((g7
g5
tI-1
tp2700
a((g108
g109
tI-1
tp2701
a((g111
g112
tI-1
tp2702
a((g114
g115
tI-1
tp2703
a((g215
g216
tI-1
tp2704
a((g218
g219
tI-1
tp2705
a((g2026
g2027
tI-1
tp2706
asg15
g2026
sg16
(dp2707
g18
Nsg19
g54
sg21
I9
ssg19
g22
sg21
I421
sg23
g2027
sg18
(dp2708
g18
(dp2709
g2032
I0
sg155
I0
sg2033
I0
sg228
Nsg2034
I0
sg227
I0
sg2035
I1
sg1022
I1
sg2036
I1
sg2037
I0
sg2038
I0
sg232
I0
sg165
I0
sg233
I0
sg1021
I1
sg234
I0
sg235
F1
sg236
I10
sg168
I0
ssg19
g81
sg21
I422
sssS'_traits_cache_minimum_contour'
p2710
F0.071657225489616394
sg2040
(dp2711
g18
(lp2712
F3.8656032308936119
asg19
g73
sg21
I423
ssg2043
(dp2713
g2
(lp2714
((g4
g5
tI-1
tp2715
a((g7
g5
tI-1
tp2716
a((g108
g109
tI-1
tp2717
a((g111
g112
tI-1
tp2718
a((g114
g115
tI-1
tp2719
a((g215
g216
tI-1
tp2720
a((g218
g219
tI-1
tp2721
a((g2053
g2054
tI-1
tp2722
asg15
g2053
sg16
(dp2723
g18
Nsg19
g54
sg21
I9
ssg19
g22
sg21
I424
sg23
g2054
sg18
(dp2724
g18
(dp2725
g165
I0
sg2059
I1
sg227
I0
sg2060
I1
sg668
g2061
sg2062
I0
sg228
Nsg168
I0
sg155
I0
sg232
I0
sg1820
I1
sg233
I0
sg234
I0
sg235
F1
sg236
I10
sg2063
I0
ssg19
g81
sg21
I425
sssg59
Nsg2064
I01
sg2065
I01
sg237
Nsg236
I10
sg19
S''
sS'_traits_cache_maximum_contour'
p2726
F7.6595492362976074
ssg19
g81
sg21
I419
sssg821
g822
ssg19
g81
sg21
I416
ssasg19
g73
sg21
I414
ssg83
S''
sg461
(dp2727
g2
(lp2728
((g4
g5
tI-1
tp2729
a((g30
g5
tI-1
tp2730
a((g32
g33
tI-1
tp2731
a((g35
g36
tI0
tp2732
a((g264
g265
tI0
tp2733
asg15
g264
sg16
(dp2734
g18
Nsg19
g54
sg21
I1
ssg19
g22
sg21
I470
sg23
g265
sg18
(dp2735
g18
(dp2736
g320
(dp2737
g2
(lp2738
((g4
g5
tI-1
tp2739
a((g7
g5
tI-1
tp2740
a((g108
g109
tI-1
tp2741
a((g111
g112
tI-1
tp2742
a((g114
g115
tI-1
tp2743
a((g328
g329
tI-1
tp2744
asg15
g328
sg16
(dp2745
g18
Nsg19
g54
sg21
I9
ssg19
g22
sg21
I472
sg23
g329
sg18
(dp2746
g18
(dp2747
g334
F1
sg335
g336
sg337
I12
sg338
F0
sg339
F0
sg340
I1
sg341
g342
sg343
I0
sg165
I0
sg344
F1.1000000000000001
sg345
(dp2748
g18
Nsg19
g54
sg21
I31
ssg348
I1
sg349
(dp2749
g18
S'H4sIAA3vH04C/2tgSs4rzS2o1EvOL0rVyy3NKclMLCpKrOSKL0pNzs8rLikqTS7hKmSEqOLKS4HI\nFjJ5M7SGMia1BxUya3gzejO1QhWklFQWpHIVsoQyZZp4M3gzAhWwangzhzLa+Pn5ef0HAjDhzVCS\n1BnKwcjAwADiliTpAQCk2G9tiQAAAA==\n'
p2750
sg19
g136
sg21
I474
ssg168
I0
sg352
I1
sg353
I0
sg354
g355
sg155
I0
sg356
I1
ssg19
g81
sg21
I473
sssg2238
S''
sg391
S'point_scalars'
p2751
sg82
I01
sg270
(dp2752
g18
S'H4sIAA3vH04C/2tgSs4rzS2o1EvOL0rVyy3NKclMLCpKrOSKL0pNzs8rLikqTS7hKmSEqOLKS4HI\nFjJ5M7SGMia1BxUya3gzejO1QhWklFQWpHIVsoQypVl4M3gzAhWwangzhzLa+Pn5ef0HAjDhzVCS\n1BkqwMDAcEAhYpM9kH6QsFjOoSRJDwAML/RykQAAAA==\n'
p2753
sg19
g136
sg21
I475
ssg274
(dp2754
g2
(lp2755
((g4
g5
tI-1
tp2756
a((g7
g5
tI-1
tp2757
a((g108
g109
tI-1
tp2758
a((g111
g112
tI-1
tp2759
a((g114
g115
tI-1
tp2760
a((g282
g283
tI-1
tp2761
a((g285
g286
tI-1
tp2762
asg15
g285
sg16
(dp2763
g18
Nsg19
g54
sg21
I9
ssg19
g22
sg21
I476
sg23
g286
sg18
(dp2764
g18
(dp2765
g291
I2
sg292
g293
sg294
(dp2766
g18
S'H4sIAA3vH04C/2tgSs4rzS2o1EvOL0rVyy3NKclMLCpKrOSKL0pNzs8rLikqTS7hKmSEqOLKS4HI\nFjJ5M7SGMia1BxUya3gzejO1QhWklFQWpHIVsoQypVl4M3gzAhWwangzhzLa+Pn5ef0HAjDhzVCS\n1BkqwAAGH+xhdEmSHgBnOGdykQAAAA==\n'
p2767
sg19
g136
sg21
I478
ssg297
(dp2768
g18
S'H4sIAA3vH04C/2tgSs4rzS2o1EvOL0rVyy3NKclMLCpKrOSKL0pNzs8rLikqTS7hKmSEqOLKS4HI\nFjJ5M7SGMia1BxUya3gzejO1QhWklFQWpHIVsoQypVl4M3gzAhWwangzhzLa+Pn5ef0HAjDhzVCS\n1BkqwMDAcEAhYpM9kH6QsFjOoSRJDwAML/RykQAAAA==\n'
p2769
sg19
g136
sg21
I480
ssg300
(dp2770
g18
S'H4sIAA3vH04C/2tgSs4rzS2o1EvOL0rVyy3NKclMLCpKrOSKL0pNzs8rLikqTS7hKmSEqOLKS4HI\nFjJ5M7SGMia1BxUya3gzejO1QhWklFQWpHIVsoQypVl4M3gzAhWwangzhzLa+Pn5ef0HAjDhzVCS\n1Bkq4H2C3XZ26FN7BigoSdIDAObNAnCRAAAA\n'
p2771
sg19
g136
sg21
I479
ssg303
I256
sg304
g305
sg165
I0
sg306
I256
sg307
(dp2772
g18
S'H4sIAA3vH04C/2tgSs4rzS2o1EvOL0rVyy3NKclMLCpKrOSKL0pNzs8rLikqTS7hKmSEqOLKS4HI\nFjJ5M7SGMia1BxUya3gzejO1QhWklFQWpHIVsoQypVl4M3gzAhWwangzhzLa+Pn5ef0HAjDhzVCS\n1BkqwAAGH+xhdEmSHgBnOGdykQAAAA==\n'
p2773
sg19
g136
sg21
I481
ssg310
(dp2774
g18
S'H4sIAA3vH04C/2tgSs4rzS2o1EvOL0rVyy3NKclMLCpKrOSKL0pNzs8rLikqTS7hKmSEqOLKS4HI\nFjJ5M7SGMia1BxUya3gzejO1QhWklFQWpHIVsoQypVl4M3gzAhWwangzhzLa+Pn5ef0HAjDhzVCS\n1BkqwMDAcEAhYpM9kH6QsFjOoSRJDwAML/RykQAAAA==\n'
p2775
sg19
g136
sg21
I482
ssg313
I0
sg314
(dp2776
g18
S'H4sIAA3vH04C/2tgSs4rzS2o1EvOL0rVyy3NKclMLCpKrOSKL0pNzs8rLikqTS7hKmSEqOLKS4HI\nFjJ5M7SGMia1BxUya3gzejO1QhWklFQWpHIVsoQypVl4M3gzAhWwangzhzLa+Pn5ef0HAjDhzVCS\n1BkqwAAGH+xhdEmSHgBnOGdykQAAAA==\n'
p2777
sg19
g136
sg21
I483
ssg168
I0
sg317
F0.50449999999999995
sg318
g319
sg155
I0
ssg19
g81
sg21
I477
sssg394
(dp2778
g2
(lp2779
((g4
g5
tI-1
tp2780
a((g7
g5
tI-1
tp2781
a((g108
g109
tI-1
tp2782
a((g111
g112
tI-1
tp2783
a((g114
g115
tI-1
tp2784
a((g328
g329
tI-1
tp2785
asg15
g328
sg16
(dp2786
g18
Nsg19
g54
sg21
I9
ssg19
g22
sg21
I493
sg23
g329
sg18
(dp2787
g18
(dp2788
g334
F1
sg335
g336
sg337
I12
sg338
F0
sg339
F0
sg340
I1
sg341
g342
sg343
I0
sg165
I0
sg344
F1.1000000000000001
sg345
(dp2789
g18
Nsg19
g54
sg21
I31
ssg348
I1
sg349
(dp2790
g18
S'H4sIAA3vH04C/2tgSs4rzS2o1EvOL0rVyy3NKclMLCpKrOSKL0pNzs8rLikqTS7hKmSEqOLKS4HI\nFjJ5M7SGMia1BxUya3gzejO1QhWklFQWpHIVsoQyZZp4M3gzAhWwangzhzLa+Pn5ef0HAjDhzVCS\n1BnKwcjAwADiliTpAQCk2G9tiQAAAA==\n'
p2791
sg19
g136
sg21
I495
ssg168
I0
sg352
I1
sg353
I0
sg354
g355
sg155
I0
sg356
I1
ssg19
g81
sg21
I494
sssg306
I256
sg2280
(dp2792
g18
S'H4sIAA3vH04C/2tgSs4rzS2o1EvOL0rVyy3NKclMLCpKrOSKL0pNzs8rLikqTS7hKmSEqOLKS4HI\nFjJ5M7SGMia1BxUya3gzejO1QhWklFQWpHIVsoQypVl4M3gzAhWwangzhzLa+Pn5ef0HAjDhzVCS\n1BkqwIACPtiXJOkBAIHIRA6RAAAA\n'
p2793
sg19
g136
sg21
I486
ssg237
Nsg458
I00
sg19
S''
sg2283
(dp2794
g2
(lp2795
((g4
g5
tI-1
tp2796
a((g7
g5
tI-1
tp2797
a((g108
g109
tI-1
tp2798
a((g111
g112
tI-1
tp2799
a((g114
g115
tI-1
tp2800
a((g419
g420
tI-1
tp2801
a((g2292
g2293
tI-1
tp2802
a((g2295
g2296
tI-1
tp2803
a((g2298
g2299
tI-1
tp2804
asg15
g2298
sg16
(dp2805
g18
Nsg19
g54
sg21
I9
ssg19
g22
sg21
I487
sg23
g2299
sg18
(dp2806
g18
(dp2807
g338
I1
sg2304
I0
sg432
I1
sg450
I1
sg2305
g2306
sg434
I1
sg2307
I2
sg2308
I0
sg2309
I0
sg451
(dp2808
g18
S'H4sIAA3vH04C/2tgSs4rzS2o1EvOL0rVyy3NKclMLCpKrOSKL0pNzs8rLikqTS7hKmSEqOLKS4HI\nFjJ5M7SGMia1BxUya3gzejO1QhWklFQWpHIVsoQypVl4M3gzAhWwangzhzLa+Pn5ef0HAjDhzVCS\n1BkqcPirRkz/oaP2s2aCwEv7kiQ9AC+e0nyRAAAA\n'
p2809
sg19
g136
sg21
I490
ssg2312
I0
sg2313
(dp2810
g18
S'H4sIAA3vH04C/2tgSs4rzS2o1EvOL0rVyy3NKclMLCpKrOSKL0pNzs8rLikqTS7hKmSEqOLKS4HI\nFjJ5M7SGMia1BxUya3gzejO1QhWklFQWpHIVsoQyZZp4M3gzAhWwangzhzLa+Pn5ef0HAjDhzVCS\n1BnKsaCNkQGES5L0ALP9TXGJAAAA\n'
p2811
sg19
g136
sg21
I492
ssg444
I1
sg979
I3
sg2316
(dp2812
g18
S'H4sIAA3vH04C/2tgSs4rzS2o1EvOL0rVyy3NKclMLCpKrOSKL0pNzs8rLikqTS7hKmSEqOLKS4HI\nFjJ5M7SGMia1BxUya3gzejO1QhWklFQWpHIVsoQyZZp4M3gzAhWwangzhzLa+Pn5ef0HAjDhzVCS\n1BnKwcjAwADCJUl6AJHzi6mJAAAA\n'
p2813
sg19
g136
sg21
I489
ssg446
I1
sg447
I1
sg155
I0
sg2319
I0
sg159
F0.5
sg2320
I0
sg165
I0
sg168
I0
sg455
(dp2814
g18
S'H4sIAA3vH04C/2tgSs4rzS2o1EvOL0rVyy3NKclMLCpKrOSKL0pNzs8rLikqTS7hKmSEqOLKS4HI\nFjJ5M7SGMia1BxUya3gzejO1QhWklFQWpHIVsoQypVl4M3gzAhWwangzhzLa+Pn5ef0HAjDhzVCS\n1BkqYMt1fXGB7Sv7WTNBYKd9SZIeADd4AQGRAAAA\n'
p2815
sg19
g136
sg21
I491
ssg137
F0.01
ssg19
g81
sg21
I488
sssg359
(dp2816
g2
(lp2817
((g4
g5
tI-1
tp2818
a((g7
g5
tI-1
tp2819
a((g108
g109
tI-1
tp2820
a((g111
g112
tI-1
tp2821
a((g114
g115
tI-1
tp2822
a((g117
g118
tI-1
tp2823
a((g368
g369
tI-1
tp2824
a((g371
g372
tI-1
tp2825
a((g374
g375
tI-1
tp2826
asg15
g374
sg16
(dp2827
g18
Nsg19
g54
sg21
I9
ssg19
g22
sg21
I484
sg23
g375
sg18
(dp2828
g18
(dp2829
g380
I1
sg149
S'i'
sg381
I1
sg155
I0
sg168
I0
sg164
I0
sg156
I0
sg165
I0
sg382
I1
sg146
F0.5
sg383
I1
sg384
I1
sg385
I1
sg158
I0
sg386
I1
sg387
I0
sg388
I0
sg141
I0
sg389
I1
ssg19
g81
sg21
I485
sssg410
I00
sg353
I00
sg459
g460
sg273
I01
sg57
S''
sg390
I8
sg392
(dp2830
g18
Nsg19
g54
sg21
I475
ssg357
g2751
sg83
S''
sg409
I01
sg411
(dp2831
g2
(lp2832
((g4
g5
tI-1
tp2833
a((g7
g5
tI-1
tp2834
a((g108
g109
tI-1
tp2835
a((g111
g112
tI-1
tp2836
a((g114
g115
tI-1
tp2837
a((g419
g420
tI-1
tp2838
a((g422
g423
tI-1
tp2839
a((g425
g426
tI-1
tp2840
asg15
g425
sg16
(dp2841
g18
Nsg19
g54
sg21
I9
ssg19
g22
sg21
I496
sg23
g426
sg18
(dp2842
g18
(dp2843
g338
g431
sg432
I1
sg433
F0.17000000000000001
sg434
I1
sg435
I0
sg436
S'point_scalars'
p2844
sg438
S'%-#6.3g'
p2845
sg440
F0.80000000000000004
sg441
F10
sg442
g443
sg444
I1
sg445
I0
sg446
I1
sg447
I1
sg155
I0
sg448
I256
sg449
I1
sg450
I1
sg390
I8
sg165
I0
sg451
(dp2846
g18
S'H4sIAA3vH04C/2tgSs4rzS2o1EvOL0rVyy3NKclMLCpKrOSKL0pNzs8rLikqTS7hKmSEqOLKS4HI\nFjJ5M7SGMia1BxUya3gzejO1QhWklFQWpHIVsoQypVl4M3gzAhWwangzhzLa+Pn5ef0HAjDhzVCS\n1BkqMGsmCLy0P/xVI6b/0FH7kiQ9AGpIg++RAAAA\n'
p2847
sg19
g136
sg21
I499
ssg454
I0
sg168
I0
sg455
(dp2848
g18
S'H4sIAA3vH04C/2tgSs4rzS2o1EvOL0rVyy3NKclMLCpKrOSKL0pNzs8rLikqTS7hKmSEqOLKS4HI\nFjJ5M7SGMia1BxUya3gzejO1QhWklFQWpHIVsoQypVl4M3gzAhWwangzhzLa+Pn5ef0HAjDhzVCS\n1BkqMGsmCOy0rxZZ5/6wqsW+JEkPAHMFfKeRAAAA\n'
p2849
sg19
g136
sg21
I498
sssg19
g81
sg21
I497
ssssg19
g81
sg21
I471
sssg19
g2357
sg257
(dp2850
g2
(lp2851
((g4
g5
tI-1
tp2852
a((g30
g5
tI-1
tp2853
a((g32
g33
tI-1
tp2854
a((g35
g36
tI0
tp2855
a((g264
g265
tI0
tp2856
asg15
g264
sg16
(dp2857
g18
Nsg19
g54
sg21
I1
ssg19
g22
sg21
I440
sg23
g265
sg18
(dp2858
g18
(dp2859
g320
(dp2860
g2
(lp2861
((g4
g5
tI-1
tp2862
a((g7
g5
tI-1
tp2863
a((g108
g109
tI-1
tp2864
a((g111
g112
tI-1
tp2865
a((g114
g115
tI-1
tp2866
a((g328
g329
tI-1
tp2867
asg15
g328
sg16
(dp2868
g18
Nsg19
g54
sg21
I9
ssg19
g22
sg21
I442
sg23
g329
sg18
(dp2869
g18
(dp2870
g334
F1
sg335
g336
sg337
I12
sg338
F0
sg339
F0
sg340
I1
sg341
g342
sg343
I0
sg165
I0
sg344
F1.1000000000000001
sg345
(dp2871
g18
Nsg19
g54
sg21
I31
ssg348
I1
sg349
(dp2872
g18
S'H4sIAA3vH04C/2tgSs4rzS2o1EvOL0rVyy3NKclMLCpKrOSKL0pNzs8rLikqTS7hKmSEqOLKS4HI\nFjJ5M7SGMia1BxUya3gzejO1QhWklFQWpHIVsoQyZZp4M3gzAhWwangzhzLa+Pn5ef0HAjDhzVCS\n1BnKwcjAwADiliTpAQCk2G9tiQAAAA==\n'
p2873
sg19
g136
sg21
I444
ssg168
I0
sg352
I1
sg353
I0
sg354
g355
sg155
I0
sg356
I1
ssg19
g81
sg21
I443
sssg2238
S''
sg391
g358
sg82
I01
sg270
(dp2874
g18
S'H4sIAA3vH04C/2tgSs4rzS2o1EvOL0rVyy3NKclMLCpKrOSKL0pNzs8rLikqTS7hKmSEqOLKS4HI\nFjJ5M7SGMia1BxUya3gzejO1QhWklFQWpHIVsoQypVl4M3gzAhWwangzhzLa+Pn5ef0HAjDhzVCS\n1BkqwIACPtiXJOkBAIHIRA6RAAAA\n'
p2875
sg19
g136
sg21
I445
ssg274
(dp2876
g2
(lp2877
((g4
g5
tI-1
tp2878
a((g7
g5
tI-1
tp2879
a((g108
g109
tI-1
tp2880
a((g111
g112
tI-1
tp2881
a((g114
g115
tI-1
tp2882
a((g282
g283
tI-1
tp2883
a((g285
g286
tI-1
tp2884
asg15
g285
sg16
(dp2885
g18
Nsg19
g54
sg21
I9
ssg19
g22
sg21
I446
sg23
g286
sg18
(dp2886
g18
(dp2887
g291
I2
sg292
g293
sg294
(dp2888
g18
S'H4sIAA3vH04C/2tgSs4rzS2o1EvOL0rVyy3NKclMLCpKrOSKL0pNzs8rLikqTS7hKmSEqOLKS4HI\nFjJ5M7SGMia1BxUya3gzejO1QhWklFQWpHIVsoQypVl4M3gzAhWwangzhzLa+Pn5ef0HAjDhzVCS\n1BkqwAAGH+xhdEmSHgBnOGdykQAAAA==\n'
p2889
sg19
g136
sg21
I448
ssg297
(dp2890
g18
S'H4sIAA3vH04C/2tgSs4rzS2o1EvOL0rVyy3NKclMLCpKrOSKL0pNzs8rLikqTS7hKmSEqOLKS4HI\nFjJ5M7SGMia1BxUya3gzejO1QhWklFQWpHIVsoQypVl4M3gzAhWwangzhzLa+Pn5ef0HAjDhzVCS\n1BkqwIACPtiXJOkBAIHIRA6RAAAA\n'
p2891
sg19
g136
sg21
I450
ssg300
(dp2892
g18
S'H4sIAA3vH04C/2tgSs4rzS2o1EvOL0rVyy3NKclMLCpKrOSKL0pNzs8rLikqTS7hKmSEqOLKS4HI\nFjJ5M7SGMia1BxUya3gzejO1QhWklFQWpHIVsoQypVl4M3gzAhWwangzhzLa+Pn5ef0HAjDhzVCS\n1Bkq4H2C3XZ26FN7BigoSdIDAObNAnCRAAAA\n'
p2893
sg19
g136
sg21
I449
ssg303
I256
sg304
g305
sg165
I0
sg306
I256
sg307
(dp2894
g18
S'H4sIAA3vH04C/2tgSs4rzS2o1EvOL0rVyy3NKclMLCpKrOSKL0pNzs8rLikqTS7hKmSEqOLKS4HI\nFjJ5M7SGMia1BxUya3gzejO1QhWklFQWpHIVsoQypVl4M3gzAhWwangzhzLa+Pn5ef0HAjDhzVCS\n1BkqwAAGH+xhdEmSHgBnOGdykQAAAA==\n'
p2895
sg19
g136
sg21
I451
ssg310
(dp2896
g18
S'H4sIAA3vH04C/2tgSs4rzS2o1EvOL0rVyy3NKclMLCpKrOSKL0pNzs8rLikqTS7hKmSEqOLKS4HI\nFjJ5M7SGMia1BxUya3gzejO1QhWklFQWpHIVsoQypVl4M3gzAhWwangzhzLa+Pn5ef0HAjDhzVCS\n1BkqwIACPtiXJOkBAIHIRA6RAAAA\n'
p2897
sg19
g136
sg21
I452
ssg313
I0
sg314
(dp2898
g18
S'H4sIAA3vH04C/2tgSs4rzS2o1EvOL0rVyy3NKclMLCpKrOSKL0pNzs8rLikqTS7hKmSEqOLKS4HI\nFjJ5M7SGMia1BxUya3gzejO1QhWklFQWpHIVsoQypVl4M3gzAhWwangzhzLa+Pn5ef0HAjDhzVCS\n1BkqwAAGH+xhdEmSHgBnOGdykQAAAA==\n'
p2899
sg19
g136
sg21
I453
ssg168
I0
sg317
F1
sg318
g319
sg155
I0
ssg19
g81
sg21
I447
sssg394
(dp2900
g2
(lp2901
((g4
g5
tI-1
tp2902
a((g7
g5
tI-1
tp2903
a((g108
g109
tI-1
tp2904
a((g111
g112
tI-1
tp2905
a((g114
g115
tI-1
tp2906
a((g328
g329
tI-1
tp2907
asg15
g328
sg16
(dp2908
g18
Nsg19
g54
sg21
I9
ssg19
g22
sg21
I463
sg23
g329
sg18
(dp2909
g18
(dp2910
g334
F1
sg335
g336
sg337
I12
sg338
F0
sg339
F0
sg340
I1
sg341
g342
sg343
I0
sg165
I0
sg344
F1.1000000000000001
sg345
(dp2911
g18
Nsg19
g54
sg21
I31
ssg348
I1
sg349
(dp2912
g18
S'H4sIAA3vH04C/2tgSs4rzS2o1EvOL0rVyy3NKclMLCpKrOSKL0pNzs8rLikqTS7hKmSEqOLKS4HI\nFjJ5M7SGMia1BxUya3gzejO1QhWklFQWpHIVsoQyZZp4M3gzAhWwangzhzLa+Pn5ef0HAjDhzVCS\n1BnKwcjAwADiliTpAQCk2G9tiQAAAA==\n'
p2913
sg19
g136
sg21
I465
ssg168
I0
sg352
I1
sg353
I0
sg354
g355
sg155
I0
sg356
I1
ssg19
g81
sg21
I464
sssg306
I256
sg2280
(dp2914
g18
S'H4sIAA3vH04C/2tgSs4rzS2o1EvOL0rVyy3NKclMLCpKrOSKL0pNzs8rLikqTS7hKmSEqOLKS4HI\nFjJ5M7SGMia1BxUya3gzejO1QhWklFQWpHIVsoQypVl4M3gzAhWwangzhzLa+Pn5ef0HAjDhzVCS\n1BkqwIACPtiXJOkBAIHIRA6RAAAA\n'
p2915
sg19
g136
sg21
I456
ssg237
Nsg458
I00
sg19
S''
sg2283
(dp2916
g2
(lp2917
((g4
g5
tI-1
tp2918
a((g7
g5
tI-1
tp2919
a((g108
g109
tI-1
tp2920
a((g111
g112
tI-1
tp2921
a((g114
g115
tI-1
tp2922
a((g419
g420
tI-1
tp2923
a((g2292
g2293
tI-1
tp2924
a((g2295
g2296
tI-1
tp2925
a((g2298
g2299
tI-1
tp2926
asg15
g2298
sg16
(dp2927
g18
Nsg19
g54
sg21
I9
ssg19
g22
sg21
I457
sg23
g2299
sg18
(dp2928
g18
(dp2929
g338
I1
sg2304
I0
sg432
I1
sg450
I1
sg2305
g2306
sg434
I1
sg2307
I2
sg2308
I0
sg2309
I0
sg451
(dp2930
g18
S'H4sIAA3vH04C/2tgSs4rzS2o1EvOL0rVyy3NKclMLCpKrOSKL0pNzs8rLikqTS7hKmSEqOLKS4HI\nFjJ5M7SGMia1BxUya3gzejO1QhWklFQWpHIVsoQypVl4M3gzAhWwangzhzLa+Pn5ef0HAjDhzVCS\n1BkqcPirRkz/oaP2s2aCwEv7kiQ9AC+e0nyRAAAA\n'
p2931
sg19
g136
sg21
I460
ssg2312
I0
sg2313
(dp2932
g18
S'H4sIAA3vH04C/2tgSs4rzS2o1EvOL0rVyy3NKclMLCpKrOSKL0pNzs8rLikqTS7hKmSEqOLKS4HI\nFjJ5M7SGMia1BxUya3gzejO1QhWklFQWpHIVsoQyZZp4M3gzAhWwangzhzLa+Pn5ef0HAjDhzVCS\n1BnKsaCNkQGES5L0ALP9TXGJAAAA\n'
p2933
sg19
g136
sg21
I462
ssg444
I1
sg979
I3
sg2316
(dp2934
g18
S'H4sIAA3vH04C/2tgSs4rzS2o1EvOL0rVyy3NKclMLCpKrOSKL0pNzs8rLikqTS7hKmSEqOLKS4HI\nFjJ5M7SGMia1BxUya3gzejO1QhWklFQWpHIVsoQyZZp4M3gzAhWwangzhzLa+Pn5ef0HAjDhzVCS\n1BnKwcjAwADCJUl6AJHzi6mJAAAA\n'
p2935
sg19
g136
sg21
I459
ssg446
I1
sg447
I1
sg155
I0
sg2319
I0
sg159
F0.5
sg2320
I0
sg165
I0
sg168
I0
sg455
(dp2936
g18
S'H4sIAA3vH04C/2tgSs4rzS2o1EvOL0rVyy3NKclMLCpKrOSKL0pNzs8rLikqTS7hKmSEqOLKS4HI\nFjJ5M7SGMia1BxUya3gzejO1QhWklFQWpHIVsoQypVl4M3gzAhWwangzhzLa+Pn5ef0HAjDhzVCS\n1BkqYMt1fXGB7Sv7WTNBYKd9SZIeADd4AQGRAAAA\n'
p2937
sg19
g136
sg21
I461
ssg137
F0.01
ssg19
g81
sg21
I458
sssg359
(dp2938
g2
(lp2939
((g4
g5
tI-1
tp2940
a((g7
g5
tI-1
tp2941
a((g108
g109
tI-1
tp2942
a((g111
g112
tI-1
tp2943
a((g114
g115
tI-1
tp2944
a((g117
g118
tI-1
tp2945
a((g368
g369
tI-1
tp2946
a((g371
g372
tI-1
tp2947
a((g374
g375
tI-1
tp2948
asg15
g374
sg16
(dp2949
g18
Nsg19
g54
sg21
I9
ssg19
g22
sg21
I454
sg23
g375
sg18
(dp2950
g18
(dp2951
g380
I1
sg149
S'i'
sg381
I1
sg155
I0
sg168
I0
sg164
I0
sg156
I0
sg165
I0
sg382
I1
sg146
F0.5
sg383
I1
sg384
I1
sg385
I1
sg158
I0
sg386
I1
sg387
I0
sg388
I0
sg141
I0
sg389
I1
ssg19
g81
sg21
I455
sssg410
I00
sg353
I00
sg459
g460
sg273
I01
sg57
S''
sg390
I8
sg392
(dp2952
g18
Nsg19
g54
sg21
I445
ssg357
g358
sg83
S''
sg409
I01
sg411
(dp2953
g2
(lp2954
((g4
g5
tI-1
tp2955
a((g7
g5
tI-1
tp2956
a((g108
g109
tI-1
tp2957
a((g111
g112
tI-1
tp2958
a((g114
g115
tI-1
tp2959
a((g419
g420
tI-1
tp2960
a((g422
g423
tI-1
tp2961
a((g425
g426
tI-1
tp2962
asg15
g425
sg16
(dp2963
g18
Nsg19
g54
sg21
I9
ssg19
g22
sg21
I466
sg23
g426
sg18
(dp2964
g18
(dp2965
g338
g431
sg432
I1
sg433
F0.17000000000000001
sg434
I1
sg435
I0
sg436
S'No vectors'
p2966
sg438
S'%-#6.3g'
p2967
sg440
F0.80000000000000004
sg441
F10
sg442
g443
sg444
I1
sg445
I0
sg446
I1
sg447
I1
sg155
I0
sg448
I256
sg449
I1
sg450
I1
sg390
I8
sg165
I0
sg451
(dp2968
g18
S'H4sIAA3vH04C/2tgSs4rzS2o1EvOL0rVyy3NKclMLCpKrOSKL0pNzs8rLikqTS7hKmSEqOLKS4HI\nFjJ5M7SGMia1BxUya3gzejO1QhWklFQWpHIVsoQypVl4M3gzAhWwangzhzLa+Pn5ef0HAjDhzVCS\n1BkqMGsmCLy0P/xVI6b/0FH7kiQ9AGpIg++RAAAA\n'
p2969
sg19
g136
sg21
I469
ssg454
I0
sg168
I0
sg455
(dp2970
g18
S'H4sIAA3vH04C/2tgSs4rzS2o1EvOL0rVyy3NKclMLCpKrOSKL0pNzs8rLikqTS7hKmSEqOLKS4HI\nFjJ5M7SGMia1BxUya3gzejO1QhWklFQWpHIVsoQypVl4M3gzAhWwangzhzLa+Pn5ef0HAjDhzVCS\n1BkqMGsmCOy0rxZZ5/6wqsW+JEkPAHMFfKeRAAAA\n'
p2971
sg19
g136
sg21
I468
sssg19
g81
sg21
I467
ssssg19
g81
sg21
I441
sssg821
g823
ssg19
g81
sg21
I413
ssasg19
g73
sg21
I411
ssg57
g2489
ssg19
g81
sg21
I408
ssa(dp2972
g18
Nsg19
g54
sg21
I3
sasg19
g73
sg21
I277
ssS'parametric_function'
p2973
(dp2974
g18
Nsg19
g54
sg21
I253
sssg19
g81
sg21
I245
ssasg19
g73
sg21
I243
ssg821
S'scene.ico'
p2975
ssg19
g81
sg21
I120
ssasg19
g73
sg21
I118
ssS'running'
p2976
I01
sg237
Nssg19
g81
sg21
I2
ss.