(dp1
S'version'
p2
(lp3
((S'HasTraits'
p4
S'enthought.traits.has_traits'
p5
tI-1
tp6
a((S'HasStrictTraits'
p7
g5
tI-1
tp8
a((S'Engine'
p9
S'enthought.mayavi.core.engine'
p10
tI0
tp11
a((S'EnvisageEngine'
p12
S'enthought.mayavi.plugins.envisage_engine'
p13
tI0
tp14
asS'class_name'
p15
g12
sS'initargs'
p16
(dp17
S'data'
p18
(tsS'type'
p19
S'tuple'
p20
sS'id'
p21
I1
ssg19
S'instance'
p22
sg21
I0
sS'module'
p23
g13
sg18
(dp24
g18
(dp25
S'_current_selection'
p26
(dp27
g2
(lp28
((g4
g5
tI-1
tp29
a((S'HasPrivateTraits'
p30
g5
tI-1
tp31
a((S'TreeNodeObject'
p32
S'enthought.traits.ui.tree_node'
p33
tI-1
tp34
a((S'Base'
p35
S'enthought.mayavi.core.base'
p36
tI0
tp37
a((S'PipelineBase'
p38
S'enthought.mayavi.core.pipeline_base'
p39
tI0
tp40
a((S'Module'
p41
S'enthought.mayavi.core.module'
p42
tI0
tp43
a((S'Surface'
p44
S'enthought.mayavi.modules.surface'
p45
tI0
tp46
asg15
g44
sg16
(dp47
g18
Nsg19
S'reference'
p48
sg21
I1
ssg19
g22
sg21
I3
sg23
g45
sg18
(dp49
g18
(dp50
S'enable_contours'
p51
I00
sS'_widget_state'
p52
(dp53
g18
(lp54
sg19
S'list'
p55
sg21
I10
ssS'name'
p56
S'Surface'
p57
sS'output_info'
p58
(dp59
g2
(lp60
((g4
g5
tI-1
tp61
a((S'PipelineInfo'
p62
S'enthought.mayavi.core.pipeline_info'
p63
tI-1
tp64
asg15
g62
sg16
(dp65
g18
Nsg19
g48
sg21
I1
ssg19
g22
sg21
I5
sg23
g63
sg18
(dp66
g18
(dp67
S'attribute_types'
p68
(dp69
g18
(lp70
sg19
g55
sg21
I7
ssS'datasets'
p71
(dp72
g18
(lp73
S'none'
p74
asg19
g55
sg21
I8
ssS'attributes'
p75
(dp76
g18
(lp77
sg19
g55
sg21
I9
sssg19
S'dict'
p78
sg21
I6
sssS'actor'
p79
(dp80
g2
(lp81
((g4
g5
tI-1
tp82
a((g30
g5
tI-1
tp83
a((g32
g33
tI-1
tp84
a((g35
g36
tI0
tp85
a((g38
g39
tI0
tp86
a((S'Component'
p87
S'enthought.mayavi.core.component'
p88
tI0
tp89
a((S'Actor'
p90
S'enthought.mayavi.components.actor'
p91
tI0
tp92
asg15
g90
sg16
(dp93
g18
Nsg19
g48
sg21
I1
ssg19
g22
sg21
I21
sg23
g91
sg18
(dp94
g18
(dp95
S'mapper'
p96
(dp97
g2
(lp98
((g4
g5
tI-1
tp99
a((g7
g5
tI-1
tp100
a((S'TVTKBase'
p101
S'enthought.tvtk.tvtk_base'
p102
tI-1
tp103
a((S'ObjectBase'
p104
S'tvtk_classes.object_base'
p105
tI-1
tp106
a((S'Object'
p107
S'tvtk_classes.object'
p108
tI-1
tp109
a((S'Algorithm'
p110
S'tvtk_classes.algorithm'
p111
tI-1
tp112
a((S'AbstractMapper'
p113
S'tvtk_classes.abstract_mapper'
p114
tI-1
tp115
a((S'AbstractMapper3D'
p116
S'tvtk_classes.abstract_mapper3d'
p117
tI-1
tp118
a((S'Mapper'
p119
S'tvtk_classes.mapper'
p120
tI-1
tp121
a((S'DataSetMapper'
p122
S'tvtk_classes.data_set_mapper'
p123
tI-1
tp124
asg15
g122
sg16
(dp125
g18
Nsg19
g48
sg21
I16
ssg19
g22
sg21
I30
sg23
g123
sg18
(dp126
g18
(dp127
S'immediate_mode_rendering'
p128
I0
sS'immediate_mode_rendering_'
p129
I0
sS'scalar_mode'
p130
S'default'
p131
sS'static'
p132
I0
sS'static_'
p133
I0
sS'resolve_coincident_topology_z_shift'
p134
F0.01
sS'color_mode'
p135
g131
sS'interpolate_scalars_before_mapping'
p136
I0
sS'debug'
p137
I0
sS'resolve_coincident_topology_'
p138
I0
sS'use_lookup_table_scalar_range'
p139
I1
sS'abort_execute'
p140
I0
sS'release_data_flag'
p141
I0
sS'progress'
p142
F1
sS'scalar_range'
p143
(dp144
g18
S'H4sIAIvzH04C/2tgSs4rzS2o1EvOL0rVyy3NKclMLCpKrOSKL0pNzs8rLikqTS7hKmSEqOLKS4HI\nFjJ5M7SGMia1BxUya3gzejO1QhWklFQWpHIVsoQypVl4M3gzAhWwangzhzLa+Pn5ef0HAjDhzVCS\n1BkqwIACPtiXJOkBAIHIRA6RAAAA\n'
p145
sg19
S'numeric'
p146
sg21
I32
ssS'progress_text'
p147
NsS'use_lookup_table_scalar_range_'
p148
I1
sS'global_warning_display_'
p149
I0
sS'scalar_mode_'
p150
I0
sS'global_immediate_mode_rendering_'
p151
I0
sS'scalar_visibility'
p152
I1
sS'abort_execute_'
p153
I0
sS'scalar_visibility_'
p154
I1
sS'debug_'
p155
I0
sS'interpolate_scalars_before_mapping_'
p156
I0
sS'scalar_material_mode'
p157
g131
sS'release_data_flag_'
p158
I0
sS'render_time'
p159
F0
sS'global_immediate_mode_rendering'
p160
I0
sS'resolve_coincident_topology'
p161
S'off'
p162
sS'resolve_coincident_topology_polygon_offset_faces'
p163
I1
ssg19
g78
sg21
I31
sssg52
(dp164
g18
(lp165
sg19
g55
sg21
I23
ssS'name'
p166
S''
sg58
Nsg79
(dp167
g2
(lp168
((g4
g5
tI-1
tp169
a((g7
g5
tI-1
tp170
a((g101
g102
tI-1
tp171
a((g104
g105
tI-1
tp172
a((g107
g108
tI-1
tp173
a((S'Prop'
p174
S'tvtk_classes.prop'
p175
tI-1
tp176
a((S'Prop3D'
p177
S'tvtk_classes.prop3d'
p178
tI-1
tp179
a((g90
S'tvtk_classes.actor'
p180
tI-1
tp181
asg15
g90
sg16
(dp182
g18
Nsg19
g48
sg21
I16
ssg19
g22
sg21
I24
sg23
g180
sg18
(dp183
g18
(dp184
S'origin'
p185
(dp186
g18
S'H4sIAIvzH04C/2tgSs4rzS2o1EvOL0rVyy3NKclMLCpKrOSKL0pNzs8rLikqTS7hKmSEqOLKS4HI\nFjJ5M7SGMia1BxUya3gzejO3QhWklFQWpHIVsoQypVl4M3gzAhWwangzhzLa+Pn5ef0HAjDhzVCS\n1BkqwYADlCTpAQD67GqfmQAAAA==\n'
p187
sg19
g146
sg21
I26
ssS'scale'
p188
(dp189
g18
S'H4sIAIvzH04C/2tgSs4rzS2o1EvOL0rVyy3NKclMLCpKrOSKL0pNzs8rLikqTS7hKmSEqOLKS4HI\nFjJ5M7SGMia1BxUya3gzejO3QhWklFQWpHIVsoQypVl4M3gzAhWwangzhzLa+Pn5ef0HAjDhzVCS\n1BkqwQAGH+zR6ZIkPQDfyO6fmQAAAA==\n'
p190
sg19
g146
sg21
I28
ssS'orientation'
p191
(dp192
g18
S'H4sIAIvzH04C/2tgSs4rzS2o1EvOL0rVyy3NKclMLCpKrOSKL0pNzs8rLikqTS7hKmSEqOLKS4HI\nFjJ5M7SGMia1BxUya3gzejO3QhWklFQWpHIVsoQypVl4M3gzAhWwangzhzLa+Pn5ef0HAjDhzVCS\n1BkqwYAKGmCMkiQ9ABqDrf+ZAAAA\n'
p193
sg19
g146
sg21
I27
ssg137
I0
sS'dragable'
p194
I1
sS'visibility'
p195
I1
sS'pickable_'
p196
I1
sS'dragable_'
p197
I1
sg149
I0
sg155
I0
sS'visibility_'
p198
I1
sS'position'
p199
(dp200
g18
S'H4sIAIvzH04C/2tgSs4rzS2o1EvOL0rVyy3NKclMLCpKrOSKL0pNzs8rLikqTS7hKmSEqOLKS4HI\nFjJ5M7SGMia1BxUya3gzejO3QhWklFQWpHIVsoQypVl4M3gzAhWwangzhzLa+Pn5ef0HAjDhzVCS\n1BkqwYADlCTpAQD67GqfmQAAAA==\n'
p201
sg19
g146
sg21
I29
ssS'pickable'
p202
I1
ssg19
g78
sg21
I25
sssS'visible'
p203
I01
sS'_saved_state'
p204
S''
sS'input_info'
p205
NsS'recorder'
p206
NsS'property'
p207
(dp208
g2
(lp209
((g4
g5
tI-1
tp210
a((g7
g5
tI-1
tp211
a((g101
g102
tI-1
tp212
a((g104
g105
tI-1
tp213
a((g107
g108
tI-1
tp214
a((S'Property'
p215
S'tvtk_classes.property'
p216
tI-1
tp217
a((S'OpenGLProperty'
p218
S'tvtk_classes.open_gl_property'
p219
tI-1
tp220
asg15
g218
sg16
(dp221
g18
Nsg19
g48
sg21
I16
ssg19
g22
sg21
I33
sg23
g219
sg18
(dp222
g18
(dp223
S'diffuse_color'
p224
(dp225
g18
(F1
F1
F1
tp226
sg19
g20
sg21
I36
ssS'backface_culling'
p227
I0
sS'specular_power'
p228
F1
sS'edge_color'
p229
(dp230
g18
(F0
F0
F0
tp231
sg19
g20
sg21
I35
ssS'ambient'
p232
F0
sS'edge_visibility'
p233
I0
sS'interpolation'
p234
S'gouraud'
p235
sS'opacity'
p236
F1
sS'frontface_culling'
p237
I0
sS'point_size'
p238
F1
sS'specular_color'
p239
(dp240
g18
Nsg19
g48
sg21
I36
ssS'ambient_color'
p241
(dp242
g18
Nsg19
g48
sg21
I36
ssS'shading_'
p243
I0
sg149
I0
sS'backface_culling_'
p244
I0
sS'shading'
p245
I0
sS'diffuse'
p246
F1
sS'edge_visibility_'
p247
I0
sg155
I0
sS'specular'
p248
F0
sS'frontface_culling_'
p249
I0
sS'line_stipple_pattern'
p250
I65535
sg137
I0
sS'representation'
p251
S'surface'
p252
sS'line_stipple_repeat_factor'
p253
I1
sS'line_width'
p254
F2
ssg19
g78
sg21
I34
sssS'type'
p255
S''
ssg19
g78
sg21
I22
sssg203
I01
sg204
S''
sg205
(dp256
g2
(lp257
((g4
g5
tI-1
tp258
a((g62
g63
tI-1
tp259
asg15
g62
sg16
(dp260
g18
Nsg19
g48
sg21
I1
ssg19
g22
sg21
I37
sg23
g63
sg18
(dp261
g18
(dp262
g68
(dp263
g18
(lp264
S'any'
p265
asg19
g55
sg21
I39
ssg71
(dp266
g18
(lp267
g265
asg19
g55
sg21
I40
ssg75
(dp268
g18
(lp269
g265
asg19
g55
sg21
I41
sssg19
g78
sg21
I38
sssg206
Nsg255
S' module'
p270
sS'contour'
p271
(dp272
g2
(lp273
((g4
g5
tI-1
tp274
a((g30
g5
tI-1
tp275
a((g32
g33
tI-1
tp276
a((g35
g36
tI0
tp277
a((g38
g39
tI0
tp278
a((g87
g88
tI0
tp279
a((S'Contour'
p280
S'enthought.mayavi.components.contour'
p281
tI0
tp282
asg15
g280
sg16
(dp283
g18
Nsg19
g48
sg21
I1
ssg19
g22
sg21
I11
sg23
g281
sg18
(dp284
g18
(dp285
g52
(dp286
g18
(lp287
sg19
g55
sg21
I13
ssg166
S''
sS'auto_contours'
p288
I01
sg205
NsS'_current_range'
p289
(dp290
g18
(F0.071657225489616394
F7.6595492362976074
tp291
sg19
g20
sg21
I14
ssS'filled_contours'
p292
I00
sg203
I01
sg204
S''
sS'_cont_filt'
p293
(dp294
g2
(lp295
((g4
g5
tI-1
tp296
a((g7
g5
tI-1
tp297
a((g101
g102
tI-1
tp298
a((g104
g105
tI-1
tp299
a((g107
g108
tI-1
tp300
a((g110
g111
tI-1
tp301
a((S'PolyDataAlgorithm'
p302
S'tvtk_classes.poly_data_algorithm'
p303
tI-1
tp304
a((S'ContourFilter'
p305
S'tvtk_classes.contour_filter'
p306
tI-1
tp307
asg15
g305
sg16
(dp308
g18
(NI0
tp309
sg19
g20
sg21
I16
ssg19
g22
sg21
I15
sg23
g306
sg18
(dp310
g18
(dp311
S'compute_gradients'
p312
I0
sg149
I0
sS'array_component'
p313
I0
sg147
NsS'use_scalar_tree_'
p314
I0
sg153
I0
sS'compute_scalars_'
p315
I1
sS'compute_normals'
p316
I1
sS'compute_scalars'
p317
I1
sS'use_scalar_tree'
p318
I0
sS'compute_gradients_'
p319
I0
sg140
I0
sg155
I0
sg141
I0
sS'compute_normals_'
p320
I1
sg158
I0
sg142
F1
sS'number_of_contours'
p321
I10
sg137
I0
ssg19
g78
sg21
I17
sssS'_traits_cache_minimum_contour'
p322
F0.071657225489616394
sS'contours'
p323
(dp324
g18
(lp325
F1
asg19
g55
sg21
I18
ssS'_fill_cont_filt'
p326
(dp327
g2
(lp328
((g4
g5
tI-1
tp329
a((g7
g5
tI-1
tp330
a((g101
g102
tI-1
tp331
a((g104
g105
tI-1
tp332
a((g107
g108
tI-1
tp333
a((g110
g111
tI-1
tp334
a((g302
g303
tI-1
tp335
a((S'BandedPolyDataContourFilter'
p336
S'tvtk_classes.banded_poly_data_contour_filter'
p337
tI-1
tp338
asg15
g336
sg16
(dp339
g18
Nsg19
g48
sg21
I16
ssg19
g22
sg21
I19
sg23
g337
sg18
(dp340
g18
(dp341
g155
I0
sS'clipping'
p342
I1
sg153
I0
sS'clipping_'
p343
I1
sg130
S'value'
p344
sS'generate_contour_edges'
p345
I0
sg147
Nsg137
I0
sg149
I0
sg140
I0
sg150
I1
sg141
I0
sg158
I0
sg142
F1
sg321
I10
sS'generate_contour_edges_'
p346
I0
ssg19
g78
sg21
I20
sssg58
NsS'show_filled_contours'
p347
I01
sS'auto_update_range'
p348
I01
sg206
Nsg321
I10
sg255
S''
sS'_traits_cache_maximum_contour'
p349
F7.6595492362976074
ssg19
g78
sg21
I12
sssS'icon'
p350
S'module.ico'
p351
ssg19
g78
sg21
I4
sssg56
S'Mayavi Envisage Engine'
p352
sS'scene_factory'
p353
(dp354
g2
(lp355
sg15
S'function'
p356
sg16
(dp357
g18
Nsg19
g48
sg21
I1
ssg19
g22
sg21
I42
sg23
S'__builtin__'
p358
sg18
(dp359
g18
(dp360
sg19
g78
sg21
I43
sssS'scenes'
p361
(dp362
g18
(lp363
(dp364
g2
(lp365
((g4
g5
tI-1
tp366
a((g30
g5
tI-1
tp367
a((g32
g33
tI-1
tp368
a((g35
g36
tI0
tp369
a((S'Scene'
p370
S'enthought.mayavi.core.scene'
p371
tI0
tp372
asg15
g370
sg16
(dp373
g18
Nsg19
g48
sg21
I1
ssg19
g22
sg21
I45
sg23
g371
sg18
(dp374
g18
(dp375
g56
VMayavi Scene 1
p376
sS'scene'
p377
(dp378
g2
(lp379
((g4
g5
tI-1
tp380
a((S'MWidget'
p381
S'enthought.pyface.i_widget'
p382
tI-1
tp383
a((S'Widget'
p384
S'enthought.pyface.ui.wx.widget'
p385
tI-1
tp386
a((g30
g5
tI-1
tp387
a((S'TVTKScene'
p388
S'enthought.tvtk.pyface.tvtk_scene'
p389
tI0
tp390
a((g370
S'enthought.tvtk.pyface.ui.wx.scene'
p391
tI0
tp392
a((S'DecoratedScene'
p393
S'enthought.tvtk.pyface.ui.wx.decorated_scene'
p394
tI0
tp395
asg15
g393
sg16
(dp396
g18
Nsg19
g48
sg21
I1
ssg19
g22
sg21
I47
sg23
g394
sg18
(dp397
g18
(dp398
S'picker'
p399
(dp400
g2
(lp401
((g4
g5
tI-1
tp402
a((S'Picker'
p403
S'enthought.tvtk.pyface.picker'
p404
tI0
tp405
asg15
g403
sg16
(dp406
g18
Nsg19
g48
sg21
I1
ssg19
g22
sg21
I49
sg23
g404
sg18
(dp407
g18
(dp408
S'p_mapper'
p409
(dp410
g2
(lp411
((g4
g5
tI-1
tp412
a((g7
g5
tI-1
tp413
a((g101
g102
tI-1
tp414
a((g104
g105
tI-1
tp415
a((g107
g108
tI-1
tp416
a((g110
g111
tI-1
tp417
a((g113
g114
tI-1
tp418
a((g116
g117
tI-1
tp419
a((g119
g120
tI-1
tp420
a((S'PolyDataMapper'
p421
S'tvtk_classes.poly_data_mapper'
p422
tI-1
tp423
asg15
g421
sg16
(dp424
g18
Nsg19
g48
sg21
I16
ssg19
g22
sg21
I51
sg23
g422
sg18
(dp425
g18
(dp426
g128
I0
sg129
I0
sg130
g131
sg132
I0
sg155
I0
sg134
F0.01
sS'ghost_level'
p427
I0
sg135
g131
sg136
I0
sg137
I0
sg138
I0
sg139
I0
sg140
I0
sg141
I0
sg142
F0
sg143
(dp428
g18
S'H4sIAIvzH04C/2tgSs4rzS2o1EvOL0rVyy3NKclMLCpKrOSKL0pNzs8rLikqTS7hKmSEqOLKS4HI\nFjJ5M7SGMia1BxUya3gzejO1QhWklFQWpHIVsoQypVl4M3gzAhWwangzhzLa+Pn5ef0HAjDhzVCS\n1BkqwIACPtiXJOkBAIHIRA6RAAAA\n'
p429
sg19
g146
sg21
I53
ssg147
Nsg148
I0
sg149
I0
sg151
I0
sg152
I1
sg153
I0
sg154
I1
sg133
I0
sg160
I0
sg156
I0
sg159
F0
sS'number_of_sub_pieces'
p430
I1
sg157
g131
sg158
I0
sS'piece'
p431
I0
sS'number_of_pieces'
p432
I1
sg161
g162
sg163
I1
ssg19
g78
sg21
I52
sssS'worldpicker'
p433
(dp434
g2
(lp435
((g4
g5
tI-1
tp436
a((g7
g5
tI-1
tp437
a((g101
g102
tI-1
tp438
a((g104
g105
tI-1
tp439
a((g107
g108
tI-1
tp440
a((S'AbstractPicker'
p441
S'tvtk_classes.abstract_picker'
p442
tI-1
tp443
a((S'WorldPointPicker'
p444
S'tvtk_classes.world_point_picker'
p445
tI-1
tp446
asg15
g444
sg16
(dp447
g18
Nsg19
g48
sg21
I16
ssg19
g22
sg21
I54
sg23
g445
sg18
(dp448
g18
(dp449
g137
I0
sg149
I0
sS'pick_from_list_'
p450
I0
sg155
I0
sS'pick_from_list'
p451
I0
ssg19
g78
sg21
I55
sssS'probe_data'
p452
(dp453
g2
(lp454
((g4
g5
tI-1
tp455
a((g7
g5
tI-1
tp456
a((g101
g102
tI-1
tp457
a((g104
g105
tI-1
tp458
a((g107
g108
tI-1
tp459
a((S'DataObject'
p460
S'tvtk_classes.data_object'
p461
tI-1
tp462
a((S'DataSet'
p463
S'tvtk_classes.data_set'
p464
tI-1
tp465
a((S'PointSet'
p466
S'tvtk_classes.point_set'
p467
tI-1
tp468
a((S'PolyData'
p469
S'tvtk_classes.poly_data'
p470
tI-1
tp471
asg15
g469
sg16
(dp472
g18
Nsg19
g48
sg21
I16
ssg19
g22
sg21
I56
sg23
g470
sg18
(dp473
g18
(dp474
S'update_piece'
p475
I0
sS'whole_extent'
p476
(dp477
g18
S'H4sIAIvzH04C/2tgSs4rzS2o1EvOL0rVyy3NKclMLCpKrOSKL0pNzs8rLikqTS7hKmSEqOLKS4HI\nFjJ5M7SGMia1BxUya3gzerO1QhWklFQWpHIVsoQyZZp4M3gzAhWwangzhzLa+Pn5ef0HAjDhzVCS\n1BkqwQAEIC46XZKkBwA5VpuHmQAAAA==\n'
p478
sg19
g146
sg21
I58
ssS'update_number_of_pieces'
p479
I1
sg137
I0
sS'update_ghost_level'
p480
I0
sS'global_release_data_flag_'
p481
I0
sg155
I0
sS'update_extent'
p482
(dp483
g18
S'H4sIAIvzH04C/2tgSs4rzS2o1EvOL0rVyy3NKclMLCpKrOSKL0pNzs8rLikqTS7hKmSEqOLKS4HI\nFjJ5M7SGMia1BxUya3gzerO1QhWklFQWpHIVsoQyZZp4M3gzAhWwangzhzLa+Pn5ef0HAjDhzVCS\n1BkqwQAEIC46XZKkBwA5VpuHmQAAAA==\n'
p484
sg19
g146
sg21
I60
ssS'request_exact_extent_'
p485
I0
sg149
I0
sg141
I0
sS'global_release_data_flag'
p486
I0
sg158
I0
sS'maximum_number_of_pieces'
p487
I-1
sS'request_exact_extent'
p488
I0
sS'whole_bounding_box'
p489
(dp490
g18
S'H4sIAIvzH04C/2tgSs4rzS2o1EvOL0rVyy3NKclMLCpKrOSKL0pNzs8rLikqTS7hKmSEqOLKS4HI\nFjJ5M7SGMia1BxUya3gzerO1QhWklFQWpHIVsoQypVl4M3gzAhWwangzhzLa+Pn5ef0HAjDhzVCS\n1BlqwIACPuwnxC9J0gMAMIASILEAAAA=\n'
p491
sg19
g146
sg21
I59
sssg19
g78
sg21
I57
sssS'cellpicker'
p492
(dp493
g2
(lp494
((g4
g5
tI-1
tp495
a((g7
g5
tI-1
tp496
a((g101
g102
tI-1
tp497
a((g104
g105
tI-1
tp498
a((g107
g108
tI-1
tp499
a((g441
g442
tI-1
tp500
a((S'AbstractPropPicker'
p501
S'tvtk_classes.abstract_prop_picker'
p502
tI-1
tp503
a((g403
S'tvtk_classes.picker'
p504
tI-1
tp505
a((S'CellPicker'
p506
S'tvtk_classes.cell_picker'
p507
tI-1
tp508
asg15
g506
sg16
(dp509
g18
Nsg19
g48
sg21
I16
ssg19
g22
sg21
I61
sg23
g507
sg18
(dp510
g18
(dp511
g155
I0
sg451
I0
sg149
I0
sg450
I0
sg137
I0
sS'tolerance'
p512
F0.025000000000000001
ssg19
g78
sg21
I62
sssS'p_actor'
p513
(dp514
g2
(lp515
((g4
g5
tI-1
tp516
a((g7
g5
tI-1
tp517
a((g101
g102
tI-1
tp518
a((g104
g105
tI-1
tp519
a((g107
g108
tI-1
tp520
a((g174
g175
tI-1
tp521
a((g177
g178
tI-1
tp522
a((g90
g180
tI-1
tp523
asg15
g90
sg16
(dp524
g18
Nsg19
g48
sg21
I16
ssg19
g22
sg21
I63
sg23
g180
sg18
(dp525
g18
(dp526
g185
(dp527
g18
S'H4sIAIvzH04C/2tgSs4rzS2o1EvOL0rVyy3NKclMLCpKrOSKL0pNzs8rLikqTS7hKmSEqOLKS4HI\nFjJ5M7SGMia1BxUya3gzejO3QhWklFQWpHIVsoQypVl4M3gzAhWwangzhzLa+Pn5ef0HAjDhzVCS\n1BkqwYADlCTpAQD67GqfmQAAAA==\n'
p528
sg19
g146
sg21
I65
ssg188
(dp529
g18
S'H4sIAIvzH04C/2tgSs4rzS2o1EvOL0rVyy3NKclMLCpKrOSKL0pNzs8rLikqTS7hKmSEqOLKS4HI\nFjJ5M7SGMia1BxUya3gzejO3QhWklFQWpHIVsoQypVl4M3gzAhWwangzhzLa+Pn5ef0HAjDhzVCS\n1BkqwQAGH+zR6ZIkPQDfyO6fmQAAAA==\n'
p530
sg19
g146
sg21
I67
ssg191
(dp531
g18
S'H4sIAIvzH04C/2tgSs4rzS2o1EvOL0rVyy3NKclMLCpKrOSKL0pNzs8rLikqTS7hKmSEqOLKS4HI\nFjJ5M7SGMia1BxUya3gzejO3QhWklFQWpHIVsoQypVl4M3gzAhWwangzhzLa+Pn5ef0HAjDhzVCS\n1BkqwYAKGmCMkiQ9ABqDrf+ZAAAA\n'
p532
sg19
g146
sg21
I66
ssg137
I0
sg194
I1
sg195
I0
sg196
I0
sg197
I1
sg149
I0
sg155
I0
sg198
I0
sg199
(dp533
g18
S'H4sIAIvzH04C/2tgSs4rzS2o1EvOL0rVyy3NKclMLCpKrOSKL0pNzs8rLikqTS7hKmSEqOLKS4HI\nFjJ5M7SGMia1BxUya3gzejO3QhWklFQWpHIVsoQypVl4M3gzAhWwangzhzLa+Pn5ef0HAjDhzVCS\n1BkqwYADlCTpAQD67GqfmQAAAA==\n'
p534
sg19
g146
sg21
I68
ssg202
I0
ssg19
g78
sg21
I64
sssS'p_source'
p535
(dp536
g2
(lp537
((g4
g5
tI-1
tp538
a((g7
g5
tI-1
tp539
a((g101
g102
tI-1
tp540
a((g104
g105
tI-1
tp541
a((g107
g108
tI-1
tp542
a((g110
g111
tI-1
tp543
a((g302
g303
tI-1
tp544
a((S'Axes'
p545
S'tvtk_classes.axes'
p546
tI-1
tp547
asg15
g545
sg16
(dp548
g18
Nsg19
g48
sg21
I16
ssg19
g22
sg21
I69
sg23
g546
sg18
(dp549
g18
(dp550
g185
(dp551
g18
S'H4sIAIvzH04C/2tgSs4rzS2o1EvOL0rVyy3NKclMLCpKrOSKL0pNzs8rLikqTS7hKmSEqOLKS4HI\nFjJ5M7SGMia1BxUya3gzejO3QhWklFQWpHIVsoQypVl4M3gzAhWwangzhzLa+Pn5ef0HAjDhzVCS\n1BkqwYADlCTpAQD67GqfmQAAAA==\n'
p552
sg19
g146
sg21
I71
ssS'scale_factor'
p553
F1
sg320
I1
sg153
I0
sg147
Nsg316
I1
sg137
I0
sS'symmetric'
p554
I1
sg149
I0
sg140
I0
sg155
I0
sg141
I0
sg158
I0
sg142
F0
sS'symmetric_'
p555
I1
ssg19
g78
sg21
I70
sssg512
F0.025000000000000001
sS'pointpicker'
p556
(dp557
g2
(lp558
((g4
g5
tI-1
tp559
a((g7
g5
tI-1
tp560
a((g101
g102
tI-1
tp561
a((g104
g105
tI-1
tp562
a((g107
g108
tI-1
tp563
a((g441
g442
tI-1
tp564
a((g501
g502
tI-1
tp565
a((g403
g504
tI-1
tp566
a((S'PointPicker'
p567
S'tvtk_classes.point_picker'
p568
tI-1
tp569
asg15
g567
sg16
(dp570
g18
Nsg19
g48
sg21
I16
ssg19
g22
sg21
I72
sg23
g568
sg18
(dp571
g18
(dp572
g155
I0
sg451
I0
sg149
I0
sg450
I0
sg137
I0
sg512
F0.025000000000000001
ssg19
g78
sg21
I73
ssssg19
g78
sg21
I50
sssS'anti_aliasing_frames'
p573
I8
sS'marker'
p574
(dp575
g2
(lp576
((g4
g5
tI-1
tp577
a((g7
g5
tI-1
tp578
a((g101
g102
tI-1
tp579
a((g104
g105
tI-1
tp580
a((g107
g108
tI-1
tp581
a((S'InteractorObserver'
p582
S'tvtk_classes.interactor_observer'
p583
tI-1
tp584
a((S'OrientationMarkerWidget'
p585
S'tvtk_classes.orientation_marker_widget'
p586
tI-1
tp587
asg15
g585
sg16
(dp588
g18
Nsg19
g48
sg21
I16
ssg19
g22
sg21
I74
sg23
g586
sg18
(dp589
g18
(dp590
S'key_press_activation_value'
p591
S'i'
sS'enabled'
p592
I0
sg155
I0
sS'interactive_'
p593
I1
sS'priority'
p594
F0.55000001192092896
sg149
I0
sS'key_press_activation_'
p595
I0
sS'enabled_'
p596
I0
sg137
I0
sS'key_press_activation'
p597
I0
sS'interactive'
p598
I1
ssg19
g78
sg21
I75
sssS'jpeg_progressive'
p599
I01
sS'axes'
p600
(dp601
g2
(lp602
((g4
g5
tI-1
tp603
a((g7
g5
tI-1
tp604
a((g101
g102
tI-1
tp605
a((g104
g105
tI-1
tp606
a((g107
g108
tI-1
tp607
a((g174
g175
tI-1
tp608
a((g177
g178
tI-1
tp609
a((S'AxesActor'
p610
S'tvtk_classes.axes_actor'
p611
tI-1
tp612
asg15
g610
sg16
(dp613
g18
Nsg19
g48
sg21
I16
ssg19
g22
sg21
I76
sg23
g611
sg18
(dp614
g18
(dp615
g185
(dp616
g18
S'H4sIAIvzH04C/2tgSs4rzS2o1EvOL0rVyy3NKclMLCpKrOSKL0pNzs8rLikqTS7hKmSEqOLKS4HI\nFjJ5M7SGMia1BxUya3gzejO3QhWklFQWpHIVsoQypVl4M3gzAhWwangzhzLa+Pn5ef0HAjDhzVCS\n1BkqwYADlCTpAQD67GqfmQAAAA==\n'
p617
sg19
g146
sg21
I78
ssg191
(dp618
g18
S'H4sIAIvzH04C/2tgSs4rzS2o1EvOL0rVyy3NKclMLCpKrOSKL0pNzs8rLikqTS7hKmSEqOLKS4HI\nFjJ5M7SGMia1BxUya3gzejO3QhWklFQWpHIVsoQypVl4M3gzAhWwangzhzLa+Pn5ef0HAjDhzVCS\n1BkqwYAKGmCMkiQ9ABqDrf+ZAAAA\n'
p619
sg19
g146
sg21
I79
ssS'normalized_tip_length'
p620
(dp621
g18
S'H4sIAIvzH04C/2tgSs4rzS2o1EvOL0rVyy3NKclMLCpKrOSKL0pNzs8rLikqTS7hKmSEqOLKS4HI\nFjJ5M7SGMia1BxUya3gzejO3QhWklFQWpHIVsoQypVl4M3gzAhWwangzhzLa+Pn5ef0HAjDhzVCS\n1BkqMWsmCNy0R6dLkvQABNrUG5kAAAA=\n'
p622
sg19
g146
sg21
I80
ssg194
I1
sg196
I1
sS'sphere_resolution'
p623
I16
sg198
I1
sg155
I0
sg188
(dp624
g18
S'H4sIAIvzH04C/2tgSs4rzS2o1EvOL0rVyy3NKclMLCpKrOSKL0pNzs8rLikqTS7hKmSEqOLKS4HI\nFjJ5M7SGMia1BxUya3gzejO3QhWklFQWpHIVsoQypVl4M3gzAhWwangzhzLa+Pn5ef0HAjDhzVCS\n1BkqwQAGH+zR6ZIkPQDfyO6fmQAAAA==\n'
p625
sg19
g146
sg21
I81
ssS'cylinder_radius'
p626
F0.050000000000000003
sS'cone_resolution'
p627
I16
sS'cylinder_resolution'
p628
I16
sS'axis_labels'
p629
I1
sS'total_length'
p630
(dp631
g18
S'H4sIAIvzH04C/2tgSs4rzS2o1EvOL0rVyy3NKclMLCpKrOSKL0pNzs8rLikqTS7hKmSEqOLKS4HI\nFjJ5M7SGMia1BxUya3gzejO3QhWklFQWpHIVsoQypVl4M3gzAhWwangzhzLa+Pn5ef0HAjDhzVCS\n1BkqwQAGH+zR6ZIkPQDfyO6fmQAAAA==\n'
p632
sg19
g146
sg21
I82
ssg202
I1
sS'tip_type'
p633
S'cone'
p634
sS'x_axis_label_text'
p635
S'X'
sS'cone_radius'
p636
F0.40000000000000002
sS'z_axis_label_text'
p637
S'Z'
sg195
I1
sg197
I1
sg149
I0
sS'axis_labels_'
p638
I1
sS'y_axis_label_text'
p639
S'Y'
sS'shaft_type_'
p640
I0
sS'sphere_radius'
p641
F0.5
sS'normalized_shaft_length'
p642
(dp643
g18
S'H4sIAIvzH04C/2tgSs4rzS2o1EvOL0rVyy3NKclMLCpKrOSKL0pNzs8rLikqTS7hKmSEqOLKS4HI\nFjJ5M7SGMia1BxUya3gzejO3QhWklFQWpHIVsoQypVl4M3gzAhWwangzhzLa+Pn5ef0HAjDhzVCS\n1BkqYQwGj+3R6ZIkPQB1t6TsmQAAAA==\n'
p644
sg19
g146
sg21
I83
ssS'shaft_type'
p645
S'cylinder'
p646
sS'normalized_label_position'
p647
(dp648
g18
S'H4sIAIvzH04C/2tgSs4rzS2o1EvOL0rVyy3NKclMLCpKrOSKL0pNzs8rLikqTS7hKmSEqOLKS4HI\nFjJ5M7SGMia1BxUya3gzejO3QhWklFQWpHIVsoQypVl4M3gzAhWwangzhzLa+Pn5ef0HAjDhzVCS\n1BkqwQAGH+zR6ZIkPQDfyO6fmQAAAA==\n'
p649
sg19
g146
sg21
I84
ssg137
I0
sg199
(dp650
g18
S'H4sIAIvzH04C/2tgSs4rzS2o1EvOL0rVyy3NKclMLCpKrOSKL0pNzs8rLikqTS7hKmSEqOLKS4HI\nFjJ5M7SGMia1BxUya3gzejO3QhWklFQWpHIVsoQypVl4M3gzAhWwangzhzLa+Pn5ef0HAjDhzVCS\n1BkqwYADlCTpAQD67GqfmQAAAA==\n'
p651
sg19
g146
sg21
I85
sssg19
g78
sg21
I77
sssS'magnification'
p652
I1
sS'camera'
p653
(dp654
g2
(lp655
((g4
g5
tI-1
tp656
a((g7
g5
tI-1
tp657
a((g101
g102
tI-1
tp658
a((g104
g105
tI-1
tp659
a((g107
g108
tI-1
tp660
a((S'Camera'
p661
S'tvtk_classes.camera'
p662
tI-1
tp663
a((S'OpenGLCamera'
p664
S'tvtk_classes.open_gl_camera'
p665
tI-1
tp666
asg15
g664
sg16
(dp667
g18
Nsg19
g48
sg21
I16
ssg19
g22
sg21
I86
sg23
g665
sg18
(dp668
g18
(dp669
S'distance'
p670
F1
sS'view_plane_normal'
p671
(dp672
g18
S'H4sIAIvzH04C/2tgSs4rzS2o1EvOL0rVyy3NKclMLCpKrOSKL0pNzs8rLikqTS7hKmSEqOLKS4HI\nFjJ5M7SGMia1BxUya3gzejO3QhWklFQWpHIVsoQypVl4M3gzAhWwangzhzLa+Pn5ef0HAjDhzVCS\n1BkqwQABDaj0B/uSJD0AnHsgdJkAAAA=\n'
p673
sg19
g146
sg21
I88
ssS'window_center'
p674
(dp675
g18
S'H4sIAIvzH04C/2tgSs4rzS2o1EvOL0rVyy3NKclMLCpKrOSKL0pNzs8rLikqTS7hKmSEqOLKS4HI\nFjJ5M7SGMia1BxUya3gzejO1QhWklFQWpHIVsoQypVl4M3gzAhWwangzhzLa+Pn5ef0HAjDhzVCS\n1BkqwIAGSpL0ACtwOO6RAAAA\n'
p676
sg19
g146
sg21
I89
ssS'parallel_projection_'
p677
I0
sS'left_eye'
p678
I1
sS'parallel_scale'
p679
F1
sS'parallel_projection'
p680
I0
sS'view_up'
p681
(dp682
g18
S'H4sIAIvzH04C/2tgSs4rzS2o1EvOL0rVyy3NKclMLCpKrOSKL0pNzs8rLikqTS7hKmSEqOLKS4HI\nFjJ5M7SGMia1BxUya3gzejO3QhWklFQWpHIVsoQypVl4M3gzAhWwangzhzLa+Pn5ef0HAjDhzVCS\n1BkqwYACPtjDWCVJegAcHEnjmQAAAA==\n'
p683
sg19
g146
sg21
I90
ssS'use_horizontal_view_angle'
p684
I0
sg155
I0
sS'focal_disk'
p685
F1
sg149
I0
sg199
(dp686
g18
S'H4sIAIvzH04C/2tgSs4rzS2o1EvOL0rVyy3NKclMLCpKrOSKL0pNzs8rLikqTS7hKmSEqOLKS4HI\nFjJ5M7SGMia1BxUya3gzejO3QhWklFQWpHIVsoQypVl4M3gzAhWwangzhzLa+Pn5ef0HAjDhzVCS\n1BkqwYAVfLAvSdIDAFBUFn+ZAAAA\n'
p687
sg19
g146
sg21
I94
ssS'clipping_range'
p688
(dp689
g18
S'H4sIAIvzH04C/2tgSs4rzS2o1EvOL0rVyy3NKclMLCpKrOSKL0pNzs8rLikqTS7hKmSEqOLKS4HI\nFjJ5M7SGMia1BxUya3gzejO1QhWklFQWpHIVsoQypVl4M3gzAhWwangzhzLa+Pn5ef0HAjDhzVCS\n1BkqUC2yzv1hVYs9iBRx6HcoSdIDABZ3KW+RAAAA\n'
p690
sg19
g146
sg21
I92
ssS'eye_angle'
p691
F2
sS'view_shear'
p692
(dp693
g18
S'H4sIAIvzH04C/2tgSs4rzS2o1EvOL0rVyy3NKclMLCpKrOSKL0pNzs8rLikqTS7hKmSEqOLKS4HI\nFjJ5M7SGMia1BxUya3gzejO3QhWklFQWpHIVsoQypVl4M3gzAhWwangzhzLa+Pn5ef0HAjDhzVCS\n1BkqwYAVfLAvSdIDAFBUFn+ZAAAA\n'
p694
sg19
g146
sg21
I91
ssg137
I0
sS'view_angle'
p695
F30
sS'thickness'
p696
F1000
sS'focal_point'
p697
(dp698
g18
S'H4sIAIvzH04C/2tgSs4rzS2o1EvOL0rVyy3NKclMLCpKrOSKL0pNzs8rLikqTS7hKmSEqOLKS4HI\nFjJ5M7SGMia1BxUya3gzejO3QhWklFQWpHIVsoQypVl4M3gzAhWwangzhzLa+Pn5ef0HAjDhzVCS\n1BkqwYADlCTpAQD67GqfmQAAAA==\n'
p699
sg19
g146
sg21
I93
ssS'use_horizontal_view_angle_'
p700
I0
ssg19
g78
sg21
I87
sssS'_renderer'
p701
(dp702
g2
(lp703
((g4
g5
tI-1
tp704
a((g7
g5
tI-1
tp705
a((g101
g102
tI-1
tp706
a((g104
g105
tI-1
tp707
a((g107
g108
tI-1
tp708
a((S'Viewport'
p709
S'tvtk_classes.viewport'
p710
tI-1
tp711
a((S'Renderer'
p712
S'tvtk_classes.renderer'
p713
tI-1
tp714
asg15
g712
sg16
(dp715
g18
Nsg19
g48
sg21
I16
ssg19
g22
sg21
I95
sg23
g713
sg18
(dp716
g18
(dp717
S'layer'
p718
I0
sS'draw_'
p719
I1
sg232
(dp720
g18
S'H4sIAIvzH04C/2tgSs4rzS2o1EvOL0rVyy3NKclMLCpKrOSKL0pNzs8rLikqTS7hKmSEqOLKS4HI\nFjJ5M7SGMia1BxUya3gzejO3QhWklFQWpHIVsoQypVl4M3gzAhWwangzhzLa+Pn5ef0HAjDhzVCS\n1BkqwQAGH+zR6ZIkPQDfyO6fmQAAAA==\n'
p721
sg19
g146
sg21
I97
ssS'two_sided_lighting_'
p722
I1
sS'view_point'
p723
(dp724
g18
S'H4sIAIvzH04C/2tgSs4rzS2o1EvOL0rVyy3NKclMLCpKrOSKL0pNzs8rLikqTS7hKmSEqOLKS4HI\nFjJ5M7SGMia1BxUya3gzejO3QhWklFQWpHIVsoQypVl4M3gzAhWwangzhzLa+Pn5ef0HAjDhzVCS\n1BkqwYADlCTpAQD67GqfmQAAAA==\n'
p725
sg19
g146
sg21
I98
ssS'near_clipping_plane_tolerance'
p726
F0
sS'erase'
p727
I1
sS'aspect'
p728
(dp729
g18
S'H4sIAIvzH04C/2tgSs4rzS2o1EvOL0rVyy3NKclMLCpKrOSKL0pNzs8rLikqTS7hKmSEqOLKS4HI\nFjJ5M7SGMia1BxUya3gzejO1QhWklFQWpHIVsoQypVl4M3gzAhWwangzhzLa+Pn5ef0HAjDhzVCS\n1BkqkHf+vf9Rx+/2DGDwwb4kSQ8AJZ1O1pEAAAA=\n'
p730
sg19
g146
sg21
I99
ssS'pixel_aspect'
p731
(dp732
g18
S'H4sIAIvzH04C/2tgSs4rzS2o1EvOL0rVyy3NKclMLCpKrOSKL0pNzs8rLikqTS7hKmSEqOLKS4HI\nFjJ5M7SGMia1BxUya3gzejO1QhWklFQWpHIVsoQypVl4M3gzAhWwangzhzLa+Pn5ef0HAjDhzVCS\n1BkqwAAGH+xhdEmSHgBnOGdykQAAAA==\n'
p733
sg19
g146
sg21
I100
ssS'erase_'
p734
I1
sS'use_depth_peeling_'
p735
I0
sS'use_depth_peeling'
p736
I0
sS'gradient_background'
p737
I00
sS'world_point'
p738
(dp739
g18
S'H4sIAIvzH04C/2tgSs4rzS2o1EvOL0rVyy3NKclMLCpKrOSKL0pNzs8rLikqTS7hKmSEqOLKS4HI\nFjJ5M7SGMia1BxUya3gzerO0QhWklFQWpHIVsoQypVl4M3gzAhWwangzhzLa+Pn5ef0HAjDhzVCS\n1BmqwEAAlCTpAQArcBtwoQAAAA==\n'
p740
sg19
g146
sg21
I101
ssS'draw'
p741
I1
sS'allocated_render_time'
p742
F10000
sS'maximum_number_of_peels'
p743
I4
sg149
I0
sS'occlusion_ratio'
p744
F0
sS'background'
p745
(dp746
g18
(F0.49803921568627452
F0.49803921568627452
F0.49803921568627452
tp747
sg19
g20
sg21
I102
ssS'two_sided_lighting'
p748
I1
sg593
I1
sS'background2'
p749
(dp750
g18
(F0.20000000000000001
F0.20000000000000001
F0.20000000000000001
tp751
sg19
g20
sg21
I104
ssS'viewport'
p752
(dp753
g18
S'H4sIAIvzH04C/2tgSs4rzS2o1EvOL0rVyy3NKclMLCpKrOSKL0pNzs8rLikqTS7hKmSEqOLKS4HI\nFjJ5M7SGMia1BxUya3gzerO0QhWklFQWpHIVsoQypVl4M3gzAhWwangzhzLa+Pn5ef0HAjDhzVCS\n1BmqwIAVfLCH0SVJegBnOETsoQAAAA==\n'
p754
sg19
g146
sg21
I105
ssS'display_point'
p755
(dp756
g18
S'H4sIAIvzH04C/2tgSs4rzS2o1EvOL0rVyy3NKclMLCpKrOSKL0pNzs8rLikqTS7hKmSEqOLKS4HI\nFjJ5M7SGMia1BxUya3gzejO3QhWklFQWpHIVsoQypVl4M3gzAhWwangzhzLa+Pn5ef0HAjDhzVCS\n1BkqwYADlCTpAQD67GqfmQAAAA==\n'
p757
sg19
g146
sg21
I103
ssS'backing_store_'
p758
I0
sS'automatic_light_creation_'
p759
I1
sS'automatic_light_creation'
p760
I1
sg155
I0
sS'backing_store'
p761
I0
sS'light_follow_camera'
p762
I1
sg137
I0
sS'light_follow_camera_'
p763
I1
sS'gradient_background_'
p764
I0
sg598
I1
ssg19
g78
sg21
I96
sssS'line_smoothing'
p765
I00
sS'foreground'
p766
(dp767
g18
Nsg19
g48
sg21
I36
ssS'parent'
p768
NsS'point_smoothing'
p769
I00
sg745
(dp770
g18
Nsg19
g48
sg21
I102
ssS'off_screen_rendering'
p771
I00
sS'polygon_smoothing'
p772
I00
sS'stereo'
p773
I00
sS'disable_render'
p774
I00
sS'jpeg_quality'
p775
I95
sS'show_axes'
p776
I00
sg680
I00
sS'light_manager'
p777
(dp778
g2
(lp779
((g4
g5
tI-1
tp780
a((S'LightManager'
p781
S'enthought.tvtk.pyface.light_manager'
p782
tI0
tp783
asg15
g781
sg16
(dp784
g18
Nsg19
g48
sg21
I1
ssg19
g22
sg21
I106
sg23
g782
sg18
(dp785
g18
(dp786
S'light_mode'
p787
S'raymond'
p788
sS'lights'
p789
(dp790
g18
(lp791
(dp792
g2
(lp793
((g4
g5
tI-1
tp794
a((S'CameraLight'
p795
g782
tI0
tp796
asg15
g795
sg16
(dp797
g18
Nsg19
g48
sg21
I1
ssg19
g22
sg21
I109
sg23
g782
sg18
(dp798
g18
(dp799
S'activate'
p800
I01
sS'elevation'
p801
F45
sS'color'
p802
(dp803
g18
Nsg19
g48
sg21
I36
ssS'source'
p804
(dp805
g2
(lp806
((g4
g5
tI-1
tp807
a((g7
g5
tI-1
tp808
a((g101
g102
tI-1
tp809
a((g104
g105
tI-1
tp810
a((g107
g108
tI-1
tp811
a((S'Light'
p812
S'tvtk_classes.light'
p813
tI-1
tp814
asg15
g812
sg16
(dp815
g18
Nsg19
g48
sg21
I16
ssg19
g22
sg21
I111
sg23
g813
sg18
(dp816
g18
(dp817
g239
(dp818
g18
Nsg19
g48
sg21
I36
ssS'attenuation_values'
p819
(dp820
g18
S'H4sIAIvzH04C/2tgSs4rzS2o1EvOL0rVyy3NKclMLCpKrOSKL0pNzs8rLikqTS7hKmSEqOLKS4HI\nFjJ5M7SGMia1BxUya3gzejO3QhWklFQWpHIVsoQypVl4M3gzAhWwangzhzLa+Pn5ef0HAjDhzVCS\n1BkqwQAGH+wZ0EBJkh4Ak4CxA5kAAAA=\n'
p821
sg19
g146
sg21
I115
ssS'switch_'
p822
I1
sS'exponent'
p823
F1
sS'switch'
p824
I1
sg224
(dp825
g18
Nsg19
g48
sg21
I36
ssg241
(dp826
g18
Nsg19
g48
sg21
I35
ssg155
I0
sS'light_type_'
p827
I2
sS'positional'
p828
I0
sg149
I0
sS'intensity'
p829
F1
sS'light_type'
p830
S'camera_light'
p831
sg137
I0
sg199
(dp832
g18
S'H4sIAIvzH04C/2tgSs4rzS2o1EvOL0rVyy3NKclMLCpKrOSKL0pNzs8rLikqTS7hKmSEqOLKS4HI\nFjJ5M7SGMia1BxUya3gzejO3QhWklFQWpHIVsoQypVl4M3gzAhWwangzhzLa+Pn5ef0HAjDhzVCS\n1Bkq8Q/E/n/f/qx1fdq8Bc/sGcDggX1Jkh4AGCjHt5kAAAA=\n'
p833
sg19
g146
sg21
I113
ssS'positional_'
p834
I0
sS'cone_angle'
p835
F30
sg697
(dp836
g18
S'H4sIAIvzH04C/2tgSs4rzS2o1EvOL0rVyy3NKclMLCpKrOSKL0pNzs8rLikqTS7hKmSEqOLKS4HI\nFjJ5M7SGMia1BxUya3gzejO3QhWklFQWpHIVsoQypVl4M3gzAhWwangzhzLa+Pn5ef0HAjDhzVCS\n1BkqwYADlCTpAQD67GqfmQAAAA==\n'
p837
sg19
g146
sg21
I114
sssg19
g78
sg21
I112
sssg829
F1
sS'azimuth'
p838
F45
sS'glyph'
p839
(dp840
g2
(lp841
((g4
g5
tI-1
tp842
a((S'LightGlyph'
p843
g782
tI0
tp844
asg15
g843
sg16
(dp845
g18
Nsg19
g48
sg21
I1
ssg19
g22
sg21
I116
sg23
g782
sg18
(dp846
g18
(dp847
S'el'
p848
F45
sS'az'
p849
F45
sg79
(dp850
g2
(lp851
((g4
g5
tI-1
tp852
a((g7
g5
tI-1
tp853
a((g101
g102
tI-1
tp854
a((g104
g105
tI-1
tp855
a((g107
g108
tI-1
tp856
a((g174
g175
tI-1
tp857
a((g177
g178
tI-1
tp858
a((g90
g180
tI-1
tp859
a((S'Follower'
p860
S'tvtk_classes.follower'
p861
tI-1
tp862
asg15
g860
sg16
(dp863
g18
Nsg19
g48
sg21
I16
ssg19
g22
sg21
I118
sg23
g861
sg18
(dp864
g18
(dp865
g185
(dp866
g18
S'H4sIAIvzH04C/2tgSs4rzS2o1EvOL0rVyy3NKclMLCpKrOSKL0pNzs8rLikqTS7hKmSEqOLKS4HI\nFjJ5M7SGMia1BxUya3gzejO3QhWklFQWpHIVsoQypVl4M3gzAhWwangzhzLa+Pn5ef0HAjDhzVCS\n1BkqwYADlCTpAQD67GqfmQAAAA==\n'
p867
sg19
g146
sg21
I120
ssg188
(dp868
g18
S'H4sIAIvzH04C/2tgSs4rzS2o1EvOL0rVyy3NKclMLCpKrOSKL0pNzs8rLikqTS7hKmSEqOLKS4HI\nFjJ5M7SGMia1BxUya3gzejO3QhWklFQWpHIVsoQypVl4M3gzAhWwangzhzLa+Pn5ef0HAjDhzVCS\n1BkqwQAGH+zR6ZIkPQDfyO6fmQAAAA==\n'
p869
sg19
g146
sg21
I122
ssg191
(dp870
g18
S'H4sIAIvzH04C/2tgSs4rzS2o1EvOL0rVyy3NKclMLCpKrOSKL0pNzs8rLikqTS7hKmSEqOLKS4HI\nFjJ5M7SGMia1BxUya3gzejO3QhWklFQWpHIVsoQypVl4M3gzAhWwangzhzLa+Pn5ef0HAjDhzVCS\n1BkqwcwAAnYOC6ZOr9KI83ZIyMpovb7Q8UBJkh4AejeobJkAAAA=\n'
p871
sg19
g146
sg21
I121
ssg137
I0
sg194
I1
sg195
I1
sg196
I1
sg197
I1
sg149
I0
sg155
I0
sg198
I1
sg199
(dp872
g18
S'H4sIAIvzH04C/2tgSs4rzS2o1EvOL0rVyy3NKclMLCpKrOSKL0pNzs8rLikqTS7hKmSEqOLKS4HI\nFjJ5M7SGMia1BxUya3gzejO3QhWklFQWpHIVsoQypVl4M3gzAhWwangzhzLa+Pn5ef0HAjDhzVCS\n1BkqwYADlCTpAQD67GqfmQAAAA==\n'
p873
sg19
g146
sg21
I123
ssg202
I1
ssg19
g78
sg21
I119
ssssg19
g78
sg21
I117
ssssg19
g78
sg21
I110
ssa(dp874
g2
(lp875
((g4
g5
tI-1
tp876
a((g795
g782
tI0
tp877
asg15
g795
sg16
(dp878
g18
Nsg19
g48
sg21
I1
ssg19
g22
sg21
I124
sg23
g782
sg18
(dp879
g18
(dp880
g800
I01
sg801
F-30
sg802
(dp881
g18
Nsg19
g48
sg21
I36
ssg804
(dp882
g2
(lp883
((g4
g5
tI-1
tp884
a((g7
g5
tI-1
tp885
a((g101
g102
tI-1
tp886
a((g104
g105
tI-1
tp887
a((g107
g108
tI-1
tp888
a((g812
g813
tI-1
tp889
asg15
g812
sg16
(dp890
g18
Nsg19
g48
sg21
I16
ssg19
g22
sg21
I126
sg23
g813
sg18
(dp891
g18
(dp892
g239
(dp893
g18
Nsg19
g48
sg21
I36
ssg819
(dp894
g18
S'H4sIAIvzH04C/2tgSs4rzS2o1EvOL0rVyy3NKclMLCpKrOSKL0pNzs8rLikqTS7hKmSEqOLKS4HI\nFjJ5M7SGMia1BxUya3gzejO3QhWklFQWpHIVsoQypVl4M3gzAhWwangzhzLa+Pn5ef0HAjDhzVCS\n1BkqwQAGH+wZ0EBJkh4Ak4CxA5kAAAA=\n'
p895
sg19
g146
sg21
I130
ssg822
I1
sg823
F1
sg824
I1
sg224
(dp896
g18
Nsg19
g48
sg21
I36
ssg241
(dp897
g18
Nsg19
g48
sg21
I35
ssg155
I0
sg827
I2
sg828
I0
sg149
I0
sg829
F0.59999999999999998
sg830
g831
sg137
I0
sg199
(dp898
g18
S'H4sIAIvzH04C/2tgSs4rzS2o1EvOL0rVyy3NKclMLCpKrOSKL0pNzs8rLikqTS7hKmSEqOLKS4HI\nFjJ5M7SGMia1BxUya3gzejO3QhWklFQWpHIVsoQypVl4M3gzAhWwangzhzLa+Pn5ef0HAjDhzVCS\n1BkqwQAGL/b/AYn9v79/rU/Ei6ptt+1LkvQAaH/w3pkAAAA=\n'
p899
sg19
g146
sg21
I128
ssg834
I0
sg835
F30
sg697
(dp900
g18
S'H4sIAIvzH04C/2tgSs4rzS2o1EvOL0rVyy3NKclMLCpKrOSKL0pNzs8rLikqTS7hKmSEqOLKS4HI\nFjJ5M7SGMia1BxUya3gzejO3QhWklFQWpHIVsoQypVl4M3gzAhWwangzhzLa+Pn5ef0HAjDhzVCS\n1BkqwYADlCTpAQD67GqfmQAAAA==\n'
p901
sg19
g146
sg21
I129
sssg19
g78
sg21
I127
sssg829
F0.59999999999999998
sg838
F-60
sg839
(dp902
g2
(lp903
((g4
g5
tI-1
tp904
a((g843
g782
tI0
tp905
asg15
g843
sg16
(dp906
g18
Nsg19
g48
sg21
I1
ssg19
g22
sg21
I131
sg23
g782
sg18
(dp907
g18
(dp908
g848
F-30
sg849
F-60
sg79
(dp909
g2
(lp910
((g4
g5
tI-1
tp911
a((g7
g5
tI-1
tp912
a((g101
g102
tI-1
tp913
a((g104
g105
tI-1
tp914
a((g107
g108
tI-1
tp915
a((g174
g175
tI-1
tp916
a((g177
g178
tI-1
tp917
a((g90
g180
tI-1
tp918
a((g860
g861
tI-1
tp919
asg15
g860
sg16
(dp920
g18
Nsg19
g48
sg21
I16
ssg19
g22
sg21
I133
sg23
g861
sg18
(dp921
g18
(dp922
g185
(dp923
g18
S'H4sIAIvzH04C/2tgSs4rzS2o1EvOL0rVyy3NKclMLCpKrOSKL0pNzs8rLikqTS7hKmSEqOLKS4HI\nFjJ5M7SGMia1BxUya3gzejO3QhWklFQWpHIVsoQypVl4M3gzAhWwangzhzLa+Pn5ef0HAjDhzVCS\n1BkqwYADlCTpAQD67GqfmQAAAA==\n'
p924
sg19
g146
sg21
I135
ssg188
(dp925
g18
S'H4sIAIvzH04C/2tgSs4rzS2o1EvOL0rVyy3NKclMLCpKrOSKL0pNzs8rLikqTS7hKmSEqOLKS4HI\nFjJ5M7SGMia1BxUya3gzejO3QhWklFQWpHIVsoQypVl4M3gzAhWwangzhzLa+Pn5ef0HAjDhzVCS\n1BkqwQAGH+zR6ZIkPQDfyO6fmQAAAA==\n'
p926
sg19
g146
sg21
I137
ssg191
(dp927
g18
S'H4sIAIvzH04C/2tgSs4rzS2o1EvOL0rVyy3NKclMLCpKrOSKL0pNzs8rLikqTS7hKmSEqOLKS4HI\nFjJ5M7SGMia1BxUya3gzejO3QhWklFQWpHIVsoQypVl4M3gzAhWwangzhzLa+Pn5ef0HAjDhzVCS\n1BkqEc+qU1XzReeA7Eed9DXb/Q8ckV1muHyC1YGSJD0A6DJGvZkAAAA=\n'
p928
sg19
g146
sg21
I136
ssg137
I0
sg194
I1
sg195
I1
sg196
I1
sg197
I1
sg149
I0
sg155
I0
sg198
I1
sg199
(dp929
g18
S'H4sIAIvzH04C/2tgSs4rzS2o1EvOL0rVyy3NKclMLCpKrOSKL0pNzs8rLikqTS7hKmSEqOLKS4HI\nFjJ5M7SGMia1BxUya3gzejO3QhWklFQWpHIVsoQypVl4M3gzAhWwangzhzLa+Pn5ef0HAjDhzVCS\n1BkqwYADlCTpAQD67GqfmQAAAA==\n'
p930
sg19
g146
sg21
I138
ssg202
I1
ssg19
g78
sg21
I134
ssssg19
g78
sg21
I132
ssssg19
g78
sg21
I125
ssa(dp931
g2
(lp932
((g4
g5
tI-1
tp933
a((g795
g782
tI0
tp934
asg15
g795
sg16
(dp935
g18
Nsg19
g48
sg21
I1
ssg19
g22
sg21
I139
sg23
g782
sg18
(dp936
g18
(dp937
g800
I01
sg801
F-30
sg802
(dp938
g18
Nsg19
g48
sg21
I36
ssg804
(dp939
g2
(lp940
((g4
g5
tI-1
tp941
a((g7
g5
tI-1
tp942
a((g101
g102
tI-1
tp943
a((g104
g105
tI-1
tp944
a((g107
g108
tI-1
tp945
a((g812
g813
tI-1
tp946
asg15
g812
sg16
(dp947
g18
Nsg19
g48
sg21
I16
ssg19
g22
sg21
I141
sg23
g813
sg18
(dp948
g18
(dp949
g239
(dp950
g18
Nsg19
g48
sg21
I36
ssg819
(dp951
g18
S'H4sIAIvzH04C/2tgSs4rzS2o1EvOL0rVyy3NKclMLCpKrOSKL0pNzs8rLikqTS7hKmSEqOLKS4HI\nFjJ5M7SGMia1BxUya3gzejO3QhWklFQWpHIVsoQypVl4M3gzAhWwangzhzLa+Pn5ef0HAjDhzVCS\n1BkqwQAGH+wZ0EBJkh4Ak4CxA5kAAAA=\n'
p952
sg19
g146
sg21
I145
ssg822
I1
sg823
F1
sg824
I1
sg224
(dp953
g18
Nsg19
g48
sg21
I36
ssg241
(dp954
g18
Nsg19
g48
sg21
I35
ssg155
I0
sg827
I2
sg828
I0
sg149
I0
sg829
F0.5
sg830
g831
sg137
I0
sg199
(dp955
g18
S'H4sIAIvzH04C/2tgSs4rzS2o1EvOL0rVyy3NKclMLCpKrOSKL0pNzs8rLikqTS7hKmSEqOLKS4HI\nFjJ5M7SGMia1BxUya3gzejO3QhWklFQWpHIVsoQypVl4M3gzAhWwangzhzLa+Pn5ef0HAjDhzVCS\n1BkqwQAGL+z/gMT+39+/1ifiRdW22/YlSXoARD8BtZkAAAA=\n'
p956
sg19
g146
sg21
I143
ssg834
I0
sg835
F30
sg697
(dp957
g18
S'H4sIAIvzH04C/2tgSs4rzS2o1EvOL0rVyy3NKclMLCpKrOSKL0pNzs8rLikqTS7hKmSEqOLKS4HI\nFjJ5M7SGMia1BxUya3gzejO3QhWklFQWpHIVsoQypVl4M3gzAhWwangzhzLa+Pn5ef0HAjDhzVCS\n1BkqwYADlCTpAQD67GqfmQAAAA==\n'
p958
sg19
g146
sg21
I144
sssg19
g78
sg21
I142
sssg829
F0.5
sg838
F60
sg839
(dp959
g2
(lp960
((g4
g5
tI-1
tp961
a((g843
g782
tI0
tp962
asg15
g843
sg16
(dp963
g18
Nsg19
g48
sg21
I1
ssg19
g22
sg21
I146
sg23
g782
sg18
(dp964
g18
(dp965
g848
F-30
sg849
F60
sg79
(dp966
g2
(lp967
((g4
g5
tI-1
tp968
a((g7
g5
tI-1
tp969
a((g101
g102
tI-1
tp970
a((g104
g105
tI-1
tp971
a((g107
g108
tI-1
tp972
a((g174
g175
tI-1
tp973
a((g177
g178
tI-1
tp974
a((g90
g180
tI-1
tp975
a((g860
g861
tI-1
tp976
asg15
g860
sg16
(dp977
g18
Nsg19
g48
sg21
I16
ssg19
g22
sg21
I148
sg23
g861
sg18
(dp978
g18
(dp979
g185
(dp980
g18
S'H4sIAIvzH04C/2tgSs4rzS2o1EvOL0rVyy3NKclMLCpKrOSKL0pNzs8rLikqTS7hKmSEqOLKS4HI\nFjJ5M7SGMia1BxUya3gzejO3QhWklFQWpHIVsoQypVl4M3gzAhWwangzhzLa+Pn5ef0HAjDhzVCS\n1BkqwYADlCTpAQD67GqfmQAAAA==\n'
p981
sg19
g146
sg21
I150
ssg188
(dp982
g18
S'H4sIAIvzH04C/2tgSs4rzS2o1EvOL0rVyy3NKclMLCpKrOSKL0pNzs8rLikqTS7hKmSEqOLKS4HI\nFjJ5M7SGMia1BxUya3gzejO3QhWklFQWpHIVsoQypVl4M3gzAhWwangzhzLa+Pn5ef0HAjDhzVCS\n1BkqwQAGH+zR6ZIkPQDfyO6fmQAAAA==\n'
p983
sg19
g146
sg21
I152
ssg191
(dp984
g18
S'H4sIAIvzH04C/2tgSs4rzS2o1EvOL0rVyy3NKclMLCpKrOSKL0pNzs8rLikqTS7hKmSEqOLKS4HI\nFjJ5M7SGMia1BxUya3gzejO3QhWklFQWpHIVsoQypVl4M3gzAhWwangzhzLa+Pn5ef0HAjDhzVCS\n1BkqEc+qU1XzReeA7Eed9DXb/R2OyC4zXD7ByqEkSQ8AM+vYMJkAAAA=\n'
p985
sg19
g146
sg21
I151
ssg137
I0
sg194
I1
sg195
I1
sg196
I1
sg197
I1
sg149
I0
sg155
I0
sg198
I1
sg199
(dp986
g18
S'H4sIAIvzH04C/2tgSs4rzS2o1EvOL0rVyy3NKclMLCpKrOSKL0pNzs8rLikqTS7hKmSEqOLKS4HI\nFjJ5M7SGMia1BxUya3gzejO3QhWklFQWpHIVsoQypVl4M3gzAhWwangzhzLa+Pn5ef0HAjDhzVCS\n1BkqwYADlCTpAQD67GqfmQAAAA==\n'
p987
sg19
g146
sg21
I153
ssg202
I1
ssg19
g78
sg21
I149
ssssg19
g78
sg21
I147
ssssg19
g78
sg21
I140
ssa(dp988
g2
(lp989
((g4
g5
tI-1
tp990
a((g795
g782
tI0
tp991
asg15
g795
sg16
(dp992
g18
Nsg19
g48
sg21
I1
ssg19
g22
sg21
I154
sg23
g782
sg18
(dp993
g18
(dp994
g800
I00
sg801
F0
sg802
(dp995
g18
Nsg19
g48
sg21
I36
ssg804
(dp996
g2
(lp997
((g4
g5
tI-1
tp998
a((g7
g5
tI-1
tp999
a((g101
g102
tI-1
tp1000
a((g104
g105
tI-1
tp1001
a((g107
g108
tI-1
tp1002
a((g812
g813
tI-1
tp1003
asg15
g812
sg16
(dp1004
g18
Nsg19
g48
sg21
I16
ssg19
g22
sg21
I156
sg23
g813
sg18
(dp1005
g18
(dp1006
g239
(dp1007
g18
Nsg19
g48
sg21
I36
ssg819
(dp1008
g18
S'H4sIAIvzH04C/2tgSs4rzS2o1EvOL0rVyy3NKclMLCpKrOSKL0pNzs8rLikqTS7hKmSEqOLKS4HI\nFjJ5M7SGMia1BxUya3gzejO3QhWklFQWpHIVsoQypVl4M3gzAhWwangzhzLa+Pn5ef0HAjDhzVCS\n1BkqwQAGH+wZ0EBJkh4Ak4CxA5kAAAA=\n'
p1009
sg19
g146
sg21
I160
ssg822
I0
sg823
F1
sg824
I0
sg224
(dp1010
g18
Nsg19
g48
sg21
I36
ssg241
(dp1011
g18
Nsg19
g48
sg21
I35
ssg155
I0
sg827
I2
sg828
I0
sg149
I0
sg829
F1
sg830
g831
sg137
I0
sg199
(dp1012
g18
S'H4sIAIvzH04C/2tgSs4rzS2o1EvOL0rVyy3NKclMLCpKrOSKL0pNzs8rLikqTS7hKmSEqOLKS4HI\nFjJ5M7SGMia1BxUya3gzejO3QhWklFQWpHIVsoQypVl4M3gzAhWwangzhzLa+Pn5ef0HAjDhzVCS\n1BkqwYAVfLAvSdIDAFBUFn+ZAAAA\n'
p1013
sg19
g146
sg21
I158
ssg834
I0
sg835
F30
sg697
(dp1014
g18
S'H4sIAIvzH04C/2tgSs4rzS2o1EvOL0rVyy3NKclMLCpKrOSKL0pNzs8rLikqTS7hKmSEqOLKS4HI\nFjJ5M7SGMia1BxUya3gzejO3QhWklFQWpHIVsoQypVl4M3gzAhWwangzhzLa+Pn5ef0HAjDhzVCS\n1BkqwYADlCTpAQD67GqfmQAAAA==\n'
p1015
sg19
g146
sg21
I159
sssg19
g78
sg21
I157
sssg829
F1
sg838
F0
sg839
(dp1016
g2
(lp1017
((g4
g5
tI-1
tp1018
a((g843
g782
tI0
tp1019
asg15
g843
sg16
(dp1020
g18
Nsg19
g48
sg21
I1
ssg19
g22
sg21
I161
sg23
g782
sg18
(dp1021
g18
(dp1022
g848
F0
sg849
F0
sg79
(dp1023
g2
(lp1024
((g4
g5
tI-1
tp1025
a((g7
g5
tI-1
tp1026
a((g101
g102
tI-1
tp1027
a((g104
g105
tI-1
tp1028
a((g107
g108
tI-1
tp1029
a((g174
g175
tI-1
tp1030
a((g177
g178
tI-1
tp1031
a((g90
g180
tI-1
tp1032
a((g860
g861
tI-1
tp1033
asg15
g860
sg16
(dp1034
g18
Nsg19
g48
sg21
I16
ssg19
g22
sg21
I163
sg23
g861
sg18
(dp1035
g18
(dp1036
g185
(dp1037
g18
S'H4sIAIvzH04C/2tgSs4rzS2o1EvOL0rVyy3NKclMLCpKrOSKL0pNzs8rLikqTS7hKmSEqOLKS4HI\nFjJ5M7SGMia1BxUya3gzejO3QhWklFQWpHIVsoQypVl4M3gzAhWwangzhzLa+Pn5ef0HAjDhzVCS\n1BkqwYADlCTpAQD67GqfmQAAAA==\n'
p1038
sg19
g146
sg21
I165
ssg188
(dp1039
g18
S'H4sIAIvzH04C/2tgSs4rzS2o1EvOL0rVyy3NKclMLCpKrOSKL0pNzs8rLikqTS7hKmSEqOLKS4HI\nFjJ5M7SGMia1BxUya3gzejO3QhWklFQWpHIVsoQypVl4M3gzAhWwangzhzLa+Pn5ef0HAjDhzVCS\n1BkqwQAGH+zR6ZIkPQDfyO6fmQAAAA==\n'
p1040
sg19
g146
sg21
I167
ssg191
(dp1041
g18
S'H4sIAIvzH04C/2tgSs4rzS2o1EvOL0rVyy3NKclMLCpKrOSKL0pNzs8rLikqTS7hKmSEqOLKS4HI\nFjJ5M7SGMia1BxUya3gzejO3QhWklFQWpHIVsoQypVl4M3gzAhWwangzhzLa+Pn5ef0HAjDhzVCS\n1BkqwYAKGmCMkiQ9ABqDrf+ZAAAA\n'
p1042
sg19
g146
sg21
I166
ssg137
I0
sg194
I1
sg195
I0
sg196
I1
sg197
I1
sg149
I0
sg155
I0
sg198
I0
sg199
(dp1043
g18
S'H4sIAIvzH04C/2tgSs4rzS2o1EvOL0rVyy3NKclMLCpKrOSKL0pNzs8rLikqTS7hKmSEqOLKS4HI\nFjJ5M7SGMia1BxUya3gzejO3QhWklFQWpHIVsoQypVl4M3gzAhWwangzhzLa+Pn5ef0HAjDhzVCS\n1BkqwYADlCTpAQD67GqfmQAAAA==\n'
p1044
sg19
g146
sg21
I168
ssg202
I1
ssg19
g78
sg21
I164
ssssg19
g78
sg21
I162
ssssg19
g78
sg21
I155
ssasg19
g55
sg21
I108
ssS'number_of_lights'
p1045
I4
ssg19
g78
sg21
I107
sssS'_def_pos'
p1046
I1
ssg19
g78
sg21
I48
sssg204
S''
sg19
S' scene'
p1047
sS'children'
p1048
(dp1049
g18
(lp1050
sg19
g55
sg21
I169
ssg350
S'scene.ico'
p1051
ssg19
g78
sg21
I46
ssa(dp1052
g2
(lp1053
((g4
g5
tI-1
tp1054
a((g30
g5
tI-1
tp1055
a((g32
g33
tI-1
tp1056
a((g35
g36
tI0
tp1057
a((g370
g371
tI0
tp1058
asg15
g370
sg16
(dp1059
g18
Nsg19
g48
sg21
I1
ssg19
g22
sg21
I170
sg23
g371
sg18
(dp1060
g18
(dp1061
g56
VMayavi Scene 1
p1062
sg377
(dp1063
g2
(lp1064
((g4
g5
tI-1
tp1065
a((g381
g382
tI-1
tp1066
a((g384
g385
tI-1
tp1067
a((g30
g5
tI-1
tp1068
a((g388
g389
tI0
tp1069
a((g370
g391
tI0
tp1070
a((g393
g394
tI0
tp1071
asg15
g393
sg16
(dp1072
g18
Nsg19
g48
sg21
I1
ssg19
g22
sg21
I172
sg23
g394
sg18
(dp1073
g18
(dp1074
g399
(dp1075
g2
(lp1076
((g4
g5
tI-1
tp1077
a((g403
g404
tI0
tp1078
asg15
g403
sg16
(dp1079
g18
Nsg19
g48
sg21
I1
ssg19
g22
sg21
I174
sg23
g404
sg18
(dp1080
g18
(dp1081
g409
(dp1082
g2
(lp1083
((g4
g5
tI-1
tp1084
a((g7
g5
tI-1
tp1085
a((g101
g102
tI-1
tp1086
a((g104
g105
tI-1
tp1087
a((g107
g108
tI-1
tp1088
a((g110
g111
tI-1
tp1089
a((g113
g114
tI-1
tp1090
a((g116
g117
tI-1
tp1091
a((g119
g120
tI-1
tp1092
a((g421
g422
tI-1
tp1093
asg15
g421
sg16
(dp1094
g18
Nsg19
g48
sg21
I16
ssg19
g22
sg21
I176
sg23
g422
sg18
(dp1095
g18
(dp1096
g128
I0
sg129
I0
sg130
g131
sg132
I0
sg155
I0
sg134
F0.01
sg427
I0
sg135
g131
sg136
I0
sg137
I0
sg138
I0
sg139
I0
sg140
I0
sg141
I0
sg142
F0
sg143
(dp1097
g18
S'H4sIAIvzH04C/2tgSs4rzS2o1EvOL0rVyy3NKclMLCpKrOSKL0pNzs8rLikqTS7hKmSEqOLKS4HI\nFjJ5M7SGMia1BxUya3gzejO1QhWklFQWpHIVsoQypVl4M3gzAhWwangzhzLa+Pn5ef0HAjDhzVCS\n1BkqwIACPtiXJOkBAIHIRA6RAAAA\n'
p1098
sg19
g146
sg21
I178
ssg147
Nsg148
I0
sg149
I0
sg151
I0
sg152
I1
sg153
I0
sg154
I1
sg133
I0
sg160
I0
sg156
I0
sg159
F0
sg430
I1
sg157
g131
sg158
I0
sg431
I0
sg432
I1
sg161
g162
sg163
I1
ssg19
g78
sg21
I177
sssg433
(dp1099
g2
(lp1100
((g4
g5
tI-1
tp1101
a((g7
g5
tI-1
tp1102
a((g101
g102
tI-1
tp1103
a((g104
g105
tI-1
tp1104
a((g107
g108
tI-1
tp1105
a((g441
g442
tI-1
tp1106
a((g444
g445
tI-1
tp1107
asg15
g444
sg16
(dp1108
g18
Nsg19
g48
sg21
I16
ssg19
g22
sg21
I179
sg23
g445
sg18
(dp1109
g18
(dp1110
g137
I0
sg149
I0
sg450
I0
sg155
I0
sg451
I0
ssg19
g78
sg21
I180
sssg452
(dp1111
g2
(lp1112
((g4
g5
tI-1
tp1113
a((g7
g5
tI-1
tp1114
a((g101
g102
tI-1
tp1115
a((g104
g105
tI-1
tp1116
a((g107
g108
tI-1
tp1117
a((g460
g461
tI-1
tp1118
a((g463
g464
tI-1
tp1119
a((g466
g467
tI-1
tp1120
a((g469
g470
tI-1
tp1121
asg15
g469
sg16
(dp1122
g18
Nsg19
g48
sg21
I16
ssg19
g22
sg21
I181
sg23
g470
sg18
(dp1123
g18
(dp1124
g475
I0
sg476
(dp1125
g18
S'H4sIAIvzH04C/2tgSs4rzS2o1EvOL0rVyy3NKclMLCpKrOSKL0pNzs8rLikqTS7hKmSEqOLKS4HI\nFjJ5M7SGMia1BxUya3gzerO1QhWklFQWpHIVsoQyZZp4M3gzAhWwangzhzLa+Pn5ef0HAjDhzVCS\n1BkqwQAEIC46XZKkBwA5VpuHmQAAAA==\n'
p1126
sg19
g146
sg21
I183
ssg479
I1
sg137
I0
sg480
I0
sg481
I0
sg155
I0
sg482
(dp1127
g18
S'H4sIAIvzH04C/2tgSs4rzS2o1EvOL0rVyy3NKclMLCpKrOSKL0pNzs8rLikqTS7hKmSEqOLKS4HI\nFjJ5M7SGMia1BxUya3gzerO1QhWklFQWpHIVsoQyZZp4M3gzAhWwangzhzLa+Pn5ef0HAjDhzVCS\n1BkqwQAEIC46XZKkBwA5VpuHmQAAAA==\n'
p1128
sg19
g146
sg21
I185
ssg485
I0
sg149
I0
sg141
I0
sg486
I0
sg158
I0
sg487
I-1
sg488
I0
sg489
(dp1129
g18
S'H4sIAIvzH04C/2tgSs4rzS2o1EvOL0rVyy3NKclMLCpKrOSKL0pNzs8rLikqTS7hKmSEqOLKS4HI\nFjJ5M7SGMia1BxUya3gzerO1QhWklFQWpHIVsoQypVl4M3gzAhWwangzhzLa+Pn5ef0HAjDhzVCS\n1BlqwIACPuwnxC9J0gMAMIASILEAAAA=\n'
p1130
sg19
g146
sg21
I184
sssg19
g78
sg21
I182
sssg492
(dp1131
g2
(lp1132
((g4
g5
tI-1
tp1133
a((g7
g5
tI-1
tp1134
a((g101
g102
tI-1
tp1135
a((g104
g105
tI-1
tp1136
a((g107
g108
tI-1
tp1137
a((g441
g442
tI-1
tp1138
a((g501
g502
tI-1
tp1139
a((g403
g504
tI-1
tp1140
a((g506
g507
tI-1
tp1141
asg15
g506
sg16
(dp1142
g18
Nsg19
g48
sg21
I16
ssg19
g22
sg21
I186
sg23
g507
sg18
(dp1143
g18
(dp1144
g155
I0
sg451
I0
sg149
I0
sg450
I0
sg137
I0
sg512
F0.025000000000000001
ssg19
g78
sg21
I187
sssg513
(dp1145
g2
(lp1146
((g4
g5
tI-1
tp1147
a((g7
g5
tI-1
tp1148
a((g101
g102
tI-1
tp1149
a((g104
g105
tI-1
tp1150
a((g107
g108
tI-1
tp1151
a((g174
g175
tI-1
tp1152
a((g177
g178
tI-1
tp1153
a((g90
g180
tI-1
tp1154
asg15
g90
sg16
(dp1155
g18
Nsg19
g48
sg21
I16
ssg19
g22
sg21
I188
sg23
g180
sg18
(dp1156
g18
(dp1157
g185
(dp1158
g18
S'H4sIAIvzH04C/2tgSs4rzS2o1EvOL0rVyy3NKclMLCpKrOSKL0pNzs8rLikqTS7hKmSEqOLKS4HI\nFjJ5M7SGMia1BxUya3gzejO3QhWklFQWpHIVsoQypVl4M3gzAhWwangzhzLa+Pn5ef0HAjDhzVCS\n1BkqwYADlCTpAQD67GqfmQAAAA==\n'
p1159
sg19
g146
sg21
I190
ssg188
(dp1160
g18
S'H4sIAIvzH04C/2tgSs4rzS2o1EvOL0rVyy3NKclMLCpKrOSKL0pNzs8rLikqTS7hKmSEqOLKS4HI\nFjJ5M7SGMia1BxUya3gzejO3QhWklFQWpHIVsoQypVl4M3gzAhWwangzhzLa+Pn5ef0HAjDhzVCS\n1BkqwQAGH+zR6ZIkPQDfyO6fmQAAAA==\n'
p1161
sg19
g146
sg21
I192
ssg191
(dp1162
g18
S'H4sIAIvzH04C/2tgSs4rzS2o1EvOL0rVyy3NKclMLCpKrOSKL0pNzs8rLikqTS7hKmSEqOLKS4HI\nFjJ5M7SGMia1BxUya3gzejO3QhWklFQWpHIVsoQypVl4M3gzAhWwangzhzLa+Pn5ef0HAjDhzVCS\n1BkqwYAKGmCMkiQ9ABqDrf+ZAAAA\n'
p1163
sg19
g146
sg21
I191
ssg137
I0
sg194
I1
sg195
I0
sg196
I0
sg197
I1
sg149
I0
sg155
I0
sg198
I0
sg199
(dp1164
g18
S'H4sIAIvzH04C/2tgSs4rzS2o1EvOL0rVyy3NKclMLCpKrOSKL0pNzs8rLikqTS7hKmSEqOLKS4HI\nFjJ5M7SGMia1BxUya3gzejO3QhWklFQWpHIVsoQypVl4M3gzAhWwangzhzLa+Pn5ef0HAjDhzVCS\n1BkqwYADlCTpAQD67GqfmQAAAA==\n'
p1165
sg19
g146
sg21
I193
ssg202
I0
ssg19
g78
sg21
I189
sssg535
(dp1166
g2
(lp1167
((g4
g5
tI-1
tp1168
a((g7
g5
tI-1
tp1169
a((g101
g102
tI-1
tp1170
a((g104
g105
tI-1
tp1171
a((g107
g108
tI-1
tp1172
a((g110
g111
tI-1
tp1173
a((g302
g303
tI-1
tp1174
a((g545
g546
tI-1
tp1175
asg15
g545
sg16
(dp1176
g18
Nsg19
g48
sg21
I16
ssg19
g22
sg21
I194
sg23
g546
sg18
(dp1177
g18
(dp1178
g185
(dp1179
g18
S'H4sIAIvzH04C/2tgSs4rzS2o1EvOL0rVyy3NKclMLCpKrOSKL0pNzs8rLikqTS7hKmSEqOLKS4HI\nFjJ5M7SGMia1BxUya3gzejO3QhWklFQWpHIVsoQypVl4M3gzAhWwangzhzLa+Pn5ef0HAjDhzVCS\n1BkqwYADlCTpAQD67GqfmQAAAA==\n'
p1180
sg19
g146
sg21
I196
ssg553
F1
sg320
I1
sg153
I0
sg147
Nsg316
I1
sg137
I0
sg554
I1
sg149
I0
sg140
I0
sg155
I0
sg141
I0
sg158
I0
sg142
F0
sg555
I1
ssg19
g78
sg21
I195
sssg512
F0.025000000000000001
sg556
(dp1181
g2
(lp1182
((g4
g5
tI-1
tp1183
a((g7
g5
tI-1
tp1184
a((g101
g102
tI-1
tp1185
a((g104
g105
tI-1
tp1186
a((g107
g108
tI-1
tp1187
a((g441
g442
tI-1
tp1188
a((g501
g502
tI-1
tp1189
a((g403
g504
tI-1
tp1190
a((g567
g568
tI-1
tp1191
asg15
g567
sg16
(dp1192
g18
Nsg19
g48
sg21
I16
ssg19
g22
sg21
I197
sg23
g568
sg18
(dp1193
g18
(dp1194
g155
I0
sg451
I0
sg149
I0
sg450
I0
sg137
I0
sg512
F0.025000000000000001
ssg19
g78
sg21
I198
ssssg19
g78
sg21
I175
sssS'anti_aliasing_frames'
p1195
I8
sg574
(dp1196
g2
(lp1197
((g4
g5
tI-1
tp1198
a((g7
g5
tI-1
tp1199
a((g101
g102
tI-1
tp1200
a((g104
g105
tI-1
tp1201
a((g107
g108
tI-1
tp1202
a((g582
g583
tI-1
tp1203
a((g585
g586
tI-1
tp1204
asg15
g585
sg16
(dp1205
g18
Nsg19
g48
sg21
I16
ssg19
g22
sg21
I199
sg23
g586
sg18
(dp1206
g18
(dp1207
g591
S'i'
sg592
I0
sg155
I0
sg593
I1
sg594
F0.55000001192092896
sg149
I0
sg595
I0
sg596
I0
sg137
I0
sg597
I0
sg598
I1
ssg19
g78
sg21
I200
sssS'jpeg_progressive'
p1208
I01
sg600
(dp1209
g2
(lp1210
((g4
g5
tI-1
tp1211
a((g7
g5
tI-1
tp1212
a((g101
g102
tI-1
tp1213
a((g104
g105
tI-1
tp1214
a((g107
g108
tI-1
tp1215
a((g174
g175
tI-1
tp1216
a((g177
g178
tI-1
tp1217
a((g610
g611
tI-1
tp1218
asg15
g610
sg16
(dp1219
g18
Nsg19
g48
sg21
I16
ssg19
g22
sg21
I201
sg23
g611
sg18
(dp1220
g18
(dp1221
g185
(dp1222
g18
S'H4sIAIvzH04C/2tgSs4rzS2o1EvOL0rVyy3NKclMLCpKrOSKL0pNzs8rLikqTS7hKmSEqOLKS4HI\nFjJ5M7SGMia1BxUya3gzejO3QhWklFQWpHIVsoQypVl4M3gzAhWwangzhzLa+Pn5ef0HAjDhzVCS\n1BkqwYADlCTpAQD67GqfmQAAAA==\n'
p1223
sg19
g146
sg21
I203
ssg191
(dp1224
g18
S'H4sIAIvzH04C/2tgSs4rzS2o1EvOL0rVyy3NKclMLCpKrOSKL0pNzs8rLikqTS7hKmSEqOLKS4HI\nFjJ5M7SGMia1BxUya3gzejO3QhWklFQWpHIVsoQypVl4M3gzAhWwangzhzLa+Pn5ef0HAjDhzVCS\n1BkqwYAKGmCMkiQ9ABqDrf+ZAAAA\n'
p1225
sg19
g146
sg21
I204
ssg620
(dp1226
g18
S'H4sIAIvzH04C/2tgSs4rzS2o1EvOL0rVyy3NKclMLCpKrOSKL0pNzs8rLikqTS7hKmSEqOLKS4HI\nFjJ5M7SGMia1BxUya3gzejO3QhWklFQWpHIVsoQypVl4M3gzAhWwangzhzLa+Pn5ef0HAjDhzVCS\n1BkqMWsmCNy0R6dLkvQABNrUG5kAAAA=\n'
p1227
sg19
g146
sg21
I205
ssg194
I1
sg196
I1
sg623
I16
sg198
I0
sg155
I0
sg188
(dp1228
g18
S'H4sIAIvzH04C/2tgSs4rzS2o1EvOL0rVyy3NKclMLCpKrOSKL0pNzs8rLikqTS7hKmSEqOLKS4HI\nFjJ5M7SGMia1BxUya3gzejO3QhWklFQWpHIVsoQypVl4M3gzAhWwangzhzLa+Pn5ef0HAjDhzVCS\n1BkqwQAGH+zR6ZIkPQDfyO6fmQAAAA==\n'
p1229
sg19
g146
sg21
I206
ssg626
F0.050000000000000003
sg627
I16
sg628
I16
sg629
I1
sg630
(dp1230
g18
S'H4sIAIvzH04C/2tgSs4rzS2o1EvOL0rVyy3NKclMLCpKrOSKL0pNzs8rLikqTS7hKmSEqOLKS4HI\nFjJ5M7SGMia1BxUya3gzejO3QhWklFQWpHIVsoQypVl4M3gzAhWwangzhzLa+Pn5ef0HAjDhzVCS\n1BkqwQAGH+zR6ZIkPQDfyO6fmQAAAA==\n'
p1231
sg19
g146
sg21
I207
ssg202
I1
sg633
g634
sg635
S'X'
sg636
F0.40000000000000002
sg637
S'Z'
sg195
I0
sg197
I1
sg149
I0
sg638
I1
sg639
S'Y'
sg640
I0
sg641
F0.5
sg642
(dp1232
g18
S'H4sIAIvzH04C/2tgSs4rzS2o1EvOL0rVyy3NKclMLCpKrOSKL0pNzs8rLikqTS7hKmSEqOLKS4HI\nFjJ5M7SGMia1BxUya3gzejO3QhWklFQWpHIVsoQypVl4M3gzAhWwangzhzLa+Pn5ef0HAjDhzVCS\n1BkqYQwGj+3R6ZIkPQB1t6TsmQAAAA==\n'
p1233
sg19
g146
sg21
I208
ssg645
g646
sg647
(dp1234
g18
S'H4sIAIvzH04C/2tgSs4rzS2o1EvOL0rVyy3NKclMLCpKrOSKL0pNzs8rLikqTS7hKmSEqOLKS4HI\nFjJ5M7SGMia1BxUya3gzejO3QhWklFQWpHIVsoQypVl4M3gzAhWwangzhzLa+Pn5ef0HAjDhzVCS\n1BkqwQAGH+zR6ZIkPQDfyO6fmQAAAA==\n'
p1235
sg19
g146
sg21
I209
ssg137
I0
sg199
(dp1236
g18
S'H4sIAIvzH04C/2tgSs4rzS2o1EvOL0rVyy3NKclMLCpKrOSKL0pNzs8rLikqTS7hKmSEqOLKS4HI\nFjJ5M7SGMia1BxUya3gzejO3QhWklFQWpHIVsoQypVl4M3gzAhWwangzhzLa+Pn5ef0HAjDhzVCS\n1BkqwYADlCTpAQD67GqfmQAAAA==\n'
p1237
sg19
g146
sg21
I210
sssg19
g78
sg21
I202
sssg652
I1
sg653
(dp1238
g2
(lp1239
((g4
g5
tI-1
tp1240
a((g7
g5
tI-1
tp1241
a((g101
g102
tI-1
tp1242
a((g104
g105
tI-1
tp1243
a((g107
g108
tI-1
tp1244
a((g661
g662
tI-1
tp1245
a((g664
g665
tI-1
tp1246
asg15
g664
sg16
(dp1247
g18
Nsg19
g48
sg21
I16
ssg19
g22
sg21
I211
sg23
g665
sg18
(dp1248
g18
(dp1249
g670
F69.280673268917511
sg671
(dp1250
g18
S'H4sIAIvzH04C/2tgSs4rzS2o1EvOL0rVyy3NKclMLCpKrOSKL0pNzs8rLikqTS7hKmSEqOLKS4HI\nFjJ5M7SGMia1BxUya3gzejO3QhWklFQWpHIVsoQypVl4M3gzAhWwangzhzLa+Pn5ef0HAjDhzVCS\n1Bkq0bR1O8sZ7kvWDBDQAKE+2Jck6QEAGJXLK5kAAAA=\n'
p1251
sg19
g146
sg21
I213
ssg674
(dp1252
g18
S'H4sIAIvzH04C/2tgSs4rzS2o1EvOL0rVyy3NKclMLCpKrOSKL0pNzs8rLikqTS7hKmSEqOLKS4HI\nFjJ5M7SGMia1BxUya3gzejO1QhWklFQWpHIVsoQypVl4M3gzAhWwangzhzLa+Pn5ef0HAjDhzVCS\n1BkqwIAGSpL0ACtwOO6RAAAA\n'
p1253
sg19
g146
sg21
I214
ssg677
I0
sg678
I1
sg679
F17.931158187048606
sg680
I0
sg681
(dp1254
g18
S'H4sIAIvzH04C/2tgSs4rzS2o1EvOL0rVyy3NKclMLCpKrOSKL0pNzs8rLikqTS7hKmSEqOLKS4HI\nFjJ5M7SGMia1BxUya3gzejO3QhWklFQWpHIVsoQypVl4M3gzAhWwangzhzLa+Pn5ef0HAjDhzVCS\n1BkqwYACPtjDWCVJegAcHEnjmQAAAA==\n'
p1255
sg19
g146
sg21
I215
ssg684
I0
sg155
I0
sg685
F1
sg149
I0
sg199
(dp1256
g18
S'H4sIAIvzH04C/2tgSs4rzS2o1EvOL0rVyy3NKclMLCpKrOSKL0pNzs8rLikqTS7hKmSEqOLKS4HI\nFjJ5M7SGMia1BxUya3gzejO3QhWklFQWpHIVsoQypVl4M3gzAhWwangzhzLa+Pn5ef0HAjDhzVCS\n1BkqwQAGBjb/QGL/lR10tzd/nukZ5FCSpAcAveuNAZkAAAA=\n'
p1257
sg19
g146
sg21
I219
ssg688
(dp1258
g18
S'H4sIAIvzH04C/2tgSs4rzS2o1EvOL0rVyy3NKclMLCpKrOSKL0pNzs8rLikqTS7hKmSEqOLKS4HI\nFjJ5M7SGMia1BxUya3gzejO1QhWklFQWpHIVsoQypVl4M3gzAhWwangzhzLa+Pn5ef0HAjDhzVCS\n1Bkq8FjW9mlsh4/D+vNaXw+ahDqUJOkBABSquFWRAAAA\n'
p1259
sg19
g146
sg21
I217
ssg691
F2
sg692
(dp1260
g18
S'H4sIAIvzH04C/2tgSs4rzS2o1EvOL0rVyy3NKclMLCpKrOSKL0pNzs8rLikqTS7hKmSEqOLKS4HI\nFjJ5M7SGMia1BxUya3gzejO3QhWklFQWpHIVsoQypVl4M3gzAhWwangzhzLa+Pn5ef0HAjDhzVCS\n1BkqwYAVfLAvSdIDAFBUFn+ZAAAA\n'
p1261
sg19
g146
sg21
I216
ssg137
I0
sg695
F30
sg696
F27.758972775426592
sg697
(dp1262
g18
S'H4sIAIvzH04C/2tgSs4rzS2o1EvOL0rVyy3NKclMLCpKrOSKL0pNzs8rLikqTS7hKmSEqOLKS4HI\nFjJ5M7SGMia1BxUya3gzejO3QhWklFQWpHIVsoQypVl4M3gzAhWwangzhzLa+Pn5ef0HAjDhzVCS\n1BkqIS7oMOmKO8+efyCx/8oOQPp8zhc+h5IkPQD/xUICmQAAAA==\n'
p1263
sg19
g146
sg21
I218
ssg700
I0
ssg19
g78
sg21
I212
sssg701
(dp1264
g2
(lp1265
((g4
g5
tI-1
tp1266
a((g7
g5
tI-1
tp1267
a((g101
g102
tI-1
tp1268
a((g104
g105
tI-1
tp1269
a((g107
g108
tI-1
tp1270
a((g709
g710
tI-1
tp1271
a((g712
g713
tI-1
tp1272
asg15
g712
sg16
(dp1273
g18
Nsg19
g48
sg21
I16
ssg19
g22
sg21
I220
sg23
g713
sg18
(dp1274
g18
(dp1275
g718
I0
sg719
I1
sg232
(dp1276
g18
S'H4sIAIvzH04C/2tgSs4rzS2o1EvOL0rVyy3NKclMLCpKrOSKL0pNzs8rLikqTS7hKmSEqOLKS4HI\nFjJ5M7SGMia1BxUya3gzejO3QhWklFQWpHIVsoQypVl4M3gzAhWwangzhzLa+Pn5ef0HAjDhzVCS\n1BkqwQAGH+zR6ZIkPQDfyO6fmQAAAA==\n'
p1277
sg19
g146
sg21
I222
ssg722
I1
sg723
(dp1278
g18
S'H4sIAIvzH04C/2tgSs4rzS2o1EvOL0rVyy3NKclMLCpKrOSKL0pNzs8rLikqTS7hKmSEqOLKS4HI\nFjJ5M7SGMia1BxUya3gzejO3QhWklFQWpHIVsoQypVl4M3gzAhWwangzhzLa+Pn5ef0HAjDhzVCS\n1Bkqwde/7W+vmvL+Zea5u60u6e6fe1DKcJXtQ/uSJD0AJCuLgZkAAAA=\n'
p1279
sg19
g146
sg21
I223
ssg726
F0.001
sg727
I1
sg728
(dp1280
g18
S'H4sIAIvzH04C/2tgSs4rzS2o1EvOL0rVyy3NKclMLCpKrOSKL0pNzs8rLikqTS7hKmSEqOLKS4HI\nFjJ5M7SGMia1BxUya3gzejO1QhWklFQWpHIVsoQypVl4M3gzAhWwangzhzLa+Pn5ef0HAjDhzVCS\n1BkqkHf+vf9Rx+/2DGDwwb4kSQ8AJZ1O1pEAAAA=\n'
p1281
sg19
g146
sg21
I224
ssg731
(dp1282
g18
S'H4sIAIvzH04C/2tgSs4rzS2o1EvOL0rVyy3NKclMLCpKrOSKL0pNzs8rLikqTS7hKmSEqOLKS4HI\nFjJ5M7SGMia1BxUya3gzejO1QhWklFQWpHIVsoQypVl4M3gzAhWwangzhzLa+Pn5ef0HAjDhzVCS\n1BkqwAAGH+xhdEmSHgBnOGdykQAAAA==\n'
p1283
sg19
g146
sg21
I225
ssg734
I1
sg735
I0
sg736
I0
sg737
I00
sg738
(dp1284
g18
S'H4sIAIvzH04C/2tgSs4rzS2o1EvOL0rVyy3NKclMLCpKrOSKL0pNzs8rLikqTS7hKmSEqOLKS4HI\nFjJ5M7SGMia1BxUya3gzerO0QhWklFQWpHIVsoQypVl4M3gzAhWwangzhzLa+Pn5ef0HAjDhzVCS\n1BmqwDsl7sYf1QJ7k7Ce6ZpMKg6625s/z/QMcmAAgw/2JUl6AHY9B32hAAAA\n'
p1285
sg19
g146
sg21
I226
ssg741
I1
sg742
F10000
sg743
I4
sg149
I0
sg744
F0
sg745
(dp1286
g18
Nsg19
g48
sg21
I102
ssg748
I1
sg593
I1
sg749
(dp1287
g18
Nsg19
g48
sg21
I104
ssg752
(dp1288
g18
S'H4sIAIvzH04C/2tgSs4rzS2o1EvOL0rVyy3NKclMLCpKrOSKL0pNzs8rLikqTS7hKmSEqOLKS4HI\nFjJ5M7SGMia1BxUya3gzerO0QhWklFQWpHIVsoQypVl4M3gzAhWwangzhzLa+Pn5ef0HAjDhzVCS\n1BmqwIAVfLCH0SVJegBnOETsoQAAAA==\n'
p1289
sg19
g146
sg21
I228
ssg755
(dp1290
g18
S'H4sIAIvzH04C/2tgSs4rzS2o1EvOL0rVyy3NKclMLCpKrOSKL0pNzs8rLikqTS7hKmSEqOLKS4HI\nFjJ5M7SGMia1BxUya3gzejO3QhWklFQWpHIVsoQypVl4M3gzAhWwangzhzLa+Pn5ef0HAjDhzVCS\n1Bkq4WH25pXy7zaHQJ/9xRrz6h3mHpQyXGX70L4kSQ8A0xtF4JkAAAA=\n'
p1291
sg19
g146
sg21
I227
ssg758
I0
sg759
I1
sg760
I1
sg155
I0
sg761
I0
sg762
I1
sg137
I0
sg763
I1
sg764
I0
sg598
I1
ssg19
g78
sg21
I221
sssg765
I00
sg766
(dp1292
g18
Nsg19
g48
sg21
I36
ssS'parent'
p1293
Nsg769
I00
sg745
(dp1294
g18
Nsg19
g48
sg21
I102
ssg771
I00
sg772
I00
sg773
I00
sg774
I00
sS'jpeg_quality'
p1295
I95
sg776
I00
sg680
I00
sg777
(dp1296
g2
(lp1297
((g4
g5
tI-1
tp1298
a((g781
g782
tI0
tp1299
asg15
g781
sg16
(dp1300
g18
Nsg19
g48
sg21
I1
ssg19
g22
sg21
I229
sg23
g782
sg18
(dp1301
g18
(dp1302
g787
S'vtk'
p1303
sg789
(dp1304
g18
(lp1305
(dp1306
g2
(lp1307
((g4
g5
tI-1
tp1308
a((g795
g782
tI0
tp1309
asg15
g795
sg16
(dp1310
g18
Nsg19
g48
sg21
I1
ssg19
g22
sg21
I232
sg23
g782
sg18
(dp1311
g18
(dp1312
g800
I01
sg801
F0
sg802
(dp1313
g18
Nsg19
g48
sg21
I36
ssg804
(dp1314
g2
(lp1315
((g4
g5
tI-1
tp1316
a((g7
g5
tI-1
tp1317
a((g101
g102
tI-1
tp1318
a((g104
g105
tI-1
tp1319
a((g107
g108
tI-1
tp1320
a((g812
g813
tI-1
tp1321
asg15
g812
sg16
(dp1322
g18
Nsg19
g48
sg21
I16
ssg19
g22
sg21
I234
sg23
g813
sg18
(dp1323
g18
(dp1324
g239
(dp1325
g18
Nsg19
g48
sg21
I36
ssg819
(dp1326
g18
S'H4sIAIvzH04C/2tgSs4rzS2o1EvOL0rVyy3NKclMLCpKrOSKL0pNzs8rLikqTS7hKmSEqOLKS4HI\nFjJ5M7SGMia1BxUya3gzejO3QhWklFQWpHIVsoQypVl4M3gzAhWwangzhzLa+Pn5ef0HAjDhzVCS\n1BkqwQAGH+wZ0EBJkh4Ak4CxA5kAAAA=\n'
p1327
sg19
g146
sg21
I238
ssg822
I1
sg823
F1
sg824
I1
sg224
(dp1328
g18
Nsg19
g48
sg21
I36
ssg241
(dp1329
g18
Nsg19
g48
sg21
I35
ssg155
I0
sg827
I2
sg828
I0
sg149
I0
sg829
F1
sg830
g831
sg137
I0
sg199
(dp1330
g18
S'H4sIAIvzH04C/2tgSs4rzS2o1EvOL0rVyy3NKclMLCpKrOSKL0pNzs8rLikqTS7hKmSEqOLKS4HI\nFjJ5M7SGMia1BxUya3gzejO3QhWklFQWpHIVsoQypVl4M3gzAhWwangzhzLa+Pn5ef0HAjDhzVCS\n1BkqwYAMlk20gTA+2Jck6QEAEakbEZkAAAA=\n'
p1331
sg19
g146
sg21
I236
ssg834
I0
sg835
F30
sg697
(dp1332
g18
S'H4sIAIvzH04C/2tgSs4rzS2o1EvOL0rVyy3NKclMLCpKrOSKL0pNzs8rLikqTS7hKmSEqOLKS4HI\nFjJ5M7SGMia1BxUya3gzejO3QhWklFQWpHIVsoQypVl4M3gzAhWwangzhzLa+Pn5ef0HAjDhzVCS\n1BkqwYADlCTpAQD67GqfmQAAAA==\n'
p1333
sg19
g146
sg21
I237
sssg19
g78
sg21
I235
sssg829
F1
sg838
F0
sg839
(dp1334
g2
(lp1335
((g4
g5
tI-1
tp1336
a((g843
g782
tI0
tp1337
asg15
g843
sg16
(dp1338
g18
Nsg19
g48
sg21
I1
ssg19
g22
sg21
I239
sg23
g782
sg18
(dp1339
g18
(dp1340
g848
F0
sg849
F0
sg79
(dp1341
g2
(lp1342
((g4
g5
tI-1
tp1343
a((g7
g5
tI-1
tp1344
a((g101
g102
tI-1
tp1345
a((g104
g105
tI-1
tp1346
a((g107
g108
tI-1
tp1347
a((g174
g175
tI-1
tp1348
a((g177
g178
tI-1
tp1349
a((g90
g180
tI-1
tp1350
a((g860
g861
tI-1
tp1351
asg15
g860
sg16
(dp1352
g18
Nsg19
g48
sg21
I16
ssg19
g22
sg21
I241
sg23
g861
sg18
(dp1353
g18
(dp1354
g185
(dp1355
g18
S'H4sIAIvzH04C/2tgSs4rzS2o1EvOL0rVyy3NKclMLCpKrOSKL0pNzs8rLikqTS7hKmSEqOLKS4HI\nFjJ5M7SGMia1BxUya3gzejO3QhWklFQWpHIVsoQypVl4M3gzAhWwangzhzLa+Pn5ef0HAjDhzVCS\n1BkqwYADlCTpAQD67GqfmQAAAA==\n'
p1356
sg19
g146
sg21
I243
ssg188
(dp1357
g18
S'H4sIAIvzH04C/2tgSs4rzS2o1EvOL0rVyy3NKclMLCpKrOSKL0pNzs8rLikqTS7hKmSEqOLKS4HI\nFjJ5M7SGMia1BxUya3gzejO3QhWklFQWpHIVsoQypVl4M3gzAhWwangzhzLa+Pn5ef0HAjDhzVCS\n1BkqwQAGH+zR6ZIkPQDfyO6fmQAAAA==\n'
p1358
sg19
g146
sg21
I245
ssg191
(dp1359
g18
S'H4sIAIvzH04C/2tgSs4rzS2o1EvOL0rVyy3NKclMLCpKrOSKL0pNzs8rLikqTS7hKmSEqOLKS4HI\nFjJ5M7SGMia1BxUya3gzejO3QhWklFQWpHIVsoQypVl4M3gzAhWwangzhzLa+Pn5ef0HAjDhzVCS\n1BkqsXDOLdeoncdttnHePFi31NgSyt9TkqQHAJCW9u+ZAAAA\n'
p1360
sg19
g146
sg21
I244
ssg137
I0
sg194
I1
sg195
I1
sg196
I1
sg197
I1
sg149
I0
sg155
I0
sg198
I1
sg199
(dp1361
g18
S'H4sIAIvzH04C/2tgSs4rzS2o1EvOL0rVyy3NKclMLCpKrOSKL0pNzs8rLikqTS7hKmSEqOLKS4HI\nFjJ5M7SGMia1BxUya3gzejO3QhWklFQWpHIVsoQypVl4M3gzAhWwangzhzLa+Pn5ef0HAjDhzVCS\n1BkqwYADlCTpAQD67GqfmQAAAA==\n'
p1362
sg19
g146
sg21
I246
ssg202
I1
ssg19
g78
sg21
I242
ssssg19
g78
sg21
I240
ssssg19
g78
sg21
I233
ssa(dp1363
g2
(lp1364
((g4
g5
tI-1
tp1365
a((g795
g782
tI0
tp1366
asg15
g795
sg16
(dp1367
g18
Nsg19
g48
sg21
I1
ssg19
g22
sg21
I247
sg23
g782
sg18
(dp1368
g18
(dp1369
g800
I00
sg801
F0
sg802
(dp1370
g18
Nsg19
g48
sg21
I36
ssg804
(dp1371
g2
(lp1372
((g4
g5
tI-1
tp1373
a((g7
g5
tI-1
tp1374
a((g101
g102
tI-1
tp1375
a((g104
g105
tI-1
tp1376
a((g107
g108
tI-1
tp1377
a((g812
g813
tI-1
tp1378
asg15
g812
sg16
(dp1379
g18
Nsg19
g48
sg21
I16
ssg19
g22
sg21
I249
sg23
g813
sg18
(dp1380
g18
(dp1381
g239
(dp1382
g18
Nsg19
g48
sg21
I36
ssg819
(dp1383
g18
S'H4sIAIvzH04C/2tgSs4rzS2o1EvOL0rVyy3NKclMLCpKrOSKL0pNzs8rLikqTS7hKmSEqOLKS4HI\nFjJ5M7SGMia1BxUya3gzejO3QhWklFQWpHIVsoQypVl4M3gzAhWwangzhzLa+Pn5ef0HAjDhzVCS\n1BkqwQAGH+wZ0EBJkh4Ak4CxA5kAAAA=\n'
p1384
sg19
g146
sg21
I253
ssg822
I0
sg823
F1
sg824
I0
sg224
(dp1385
g18
Nsg19
g48
sg21
I36
ssg241
(dp1386
g18
Nsg19
g48
sg21
I35
ssg155
I0
sg827
I2
sg828
I0
sg149
I0
sg829
F1
sg830
g831
sg137
I0
sg199
(dp1387
g18
S'H4sIAIvzH04C/2tgSs4rzS2o1EvOL0rVyy3NKclMLCpKrOSKL0pNzs8rLikqTS7hKmSEqOLKS4HI\nFjJ5M7SGMia1BxUya3gzejO3QhWklFQWpHIVsoQypVl4M3gzAhWwangzhzLa+Pn5ef0HAjDhzVCS\n1BkqwYAMlk20gTA+2Jck6QEAEakbEZkAAAA=\n'
p1388
sg19
g146
sg21
I251
ssg834
I0
sg835
F30
sg697
(dp1389
g18
S'H4sIAIvzH04C/2tgSs4rzS2o1EvOL0rVyy3NKclMLCpKrOSKL0pNzs8rLikqTS7hKmSEqOLKS4HI\nFjJ5M7SGMia1BxUya3gzejO3QhWklFQWpHIVsoQypVl4M3gzAhWwangzhzLa+Pn5ef0HAjDhzVCS\n1BkqwYADlCTpAQD67GqfmQAAAA==\n'
p1390
sg19
g146
sg21
I252
sssg19
g78
sg21
I250
sssg829
F1
sg838
F0
sg839
(dp1391
g2
(lp1392
((g4
g5
tI-1
tp1393
a((g843
g782
tI0
tp1394
asg15
g843
sg16
(dp1395
g18
Nsg19
g48
sg21
I1
ssg19
g22
sg21
I254
sg23
g782
sg18
(dp1396
g18
(dp1397
g848
F0
sg849
F0
sg79
(dp1398
g2
(lp1399
((g4
g5
tI-1
tp1400
a((g7
g5
tI-1
tp1401
a((g101
g102
tI-1
tp1402
a((g104
g105
tI-1
tp1403
a((g107
g108
tI-1
tp1404
a((g174
g175
tI-1
tp1405
a((g177
g178
tI-1
tp1406
a((g90
g180
tI-1
tp1407
a((g860
g861
tI-1
tp1408
asg15
g860
sg16
(dp1409
g18
Nsg19
g48
sg21
I16
ssg19
g22
sg21
I256
sg23
g861
sg18
(dp1410
g18
(dp1411
g185
(dp1412
g18
S'H4sIAIvzH04C/2tgSs4rzS2o1EvOL0rVyy3NKclMLCpKrOSKL0pNzs8rLikqTS7hKmSEqOLKS4HI\nFjJ5M7SGMia1BxUya3gzejO3QhWklFQWpHIVsoQypVl4M3gzAhWwangzhzLa+Pn5ef0HAjDhzVCS\n1BkqwYADlCTpAQD67GqfmQAAAA==\n'
p1413
sg19
g146
sg21
I258
ssg188
(dp1414
g18
S'H4sIAIvzH04C/2tgSs4rzS2o1EvOL0rVyy3NKclMLCpKrOSKL0pNzs8rLikqTS7hKmSEqOLKS4HI\nFjJ5M7SGMia1BxUya3gzejO3QhWklFQWpHIVsoQypVl4M3gzAhWwangzhzLa+Pn5ef0HAjDhzVCS\n1BkqwQAGH+zR6ZIkPQDfyO6fmQAAAA==\n'
p1415
sg19
g146
sg21
I260
ssg191
(dp1416
g18
S'H4sIAIvzH04C/2tgSs4rzS2o1EvOL0rVyy3NKclMLCpKrOSKL0pNzs8rLikqTS7hKmSEqOLKS4HI\nFjJ5M7SGMia1BxUya3gzejO3QhWklFQWpHIVsoQypVl4M3gzAhWwangzhzLa+Pn5ef0HAjDhzVCS\n1BkqEXa2NK3N9oLNtyDnzRkMjDv58xdkL/rba1OSpAcAoXrkqJkAAAA=\n'
p1417
sg19
g146
sg21
I259
ssg137
I0
sg194
I1
sg195
I0
sg196
I1
sg197
I1
sg149
I0
sg155
I0
sg198
I0
sg199
(dp1418
g18
S'H4sIAIvzH04C/2tgSs4rzS2o1EvOL0rVyy3NKclMLCpKrOSKL0pNzs8rLikqTS7hKmSEqOLKS4HI\nFjJ5M7SGMia1BxUya3gzejO3QhWklFQWpHIVsoQypVl4M3gzAhWwangzhzLa+Pn5ef0HAjDhzVCS\n1BkqwYADlCTpAQD67GqfmQAAAA==\n'
p1419
sg19
g146
sg21
I261
ssg202
I1
ssg19
g78
sg21
I257
ssssg19
g78
sg21
I255
ssssg19
g78
sg21
I248
ssa(dp1420
g2
(lp1421
((g4
g5
tI-1
tp1422
a((g795
g782
tI0
tp1423
asg15
g795
sg16
(dp1424
g18
Nsg19
g48
sg21
I1
ssg19
g22
sg21
I262
sg23
g782
sg18
(dp1425
g18
(dp1426
g800
I00
sg801
F0
sg802
(dp1427
g18
Nsg19
g48
sg21
I36
ssg804
(dp1428
g2
(lp1429
((g4
g5
tI-1
tp1430
a((g7
g5
tI-1
tp1431
a((g101
g102
tI-1
tp1432
a((g104
g105
tI-1
tp1433
a((g107
g108
tI-1
tp1434
a((g812
g813
tI-1
tp1435
asg15
g812
sg16
(dp1436
g18
Nsg19
g48
sg21
I16
ssg19
g22
sg21
I264
sg23
g813
sg18
(dp1437
g18
(dp1438
g239
(dp1439
g18
Nsg19
g48
sg21
I36
ssg819
(dp1440
g18
S'H4sIAIvzH04C/2tgSs4rzS2o1EvOL0rVyy3NKclMLCpKrOSKL0pNzs8rLikqTS7hKmSEqOLKS4HI\nFjJ5M7SGMia1BxUya3gzejO3QhWklFQWpHIVsoQypVl4M3gzAhWwangzhzLa+Pn5ef0HAjDhzVCS\n1BkqwQAGH+wZ0EBJkh4Ak4CxA5kAAAA=\n'
p1441
sg19
g146
sg21
I268
ssg822
I0
sg823
F1
sg824
I0
sg224
(dp1442
g18
Nsg19
g48
sg21
I36
ssg241
(dp1443
g18
Nsg19
g48
sg21
I35
ssg155
I0
sg827
I2
sg828
I0
sg149
I0
sg829
F1
sg830
g831
sg137
I0
sg199
(dp1444
g18
S'H4sIAIvzH04C/2tgSs4rzS2o1EvOL0rVyy3NKclMLCpKrOSKL0pNzs8rLikqTS7hKmSEqOLKS4HI\nFjJ5M7SGMia1BxUya3gzejO3QhWklFQWpHIVsoQypVl4M3gzAhWwangzhzLa+Pn5ef0HAjDhzVCS\n1BkqwYAMlk20gTA+2Jck6QEAEakbEZkAAAA=\n'
p1445
sg19
g146
sg21
I266
ssg834
I0
sg835
F30
sg697
(dp1446
g18
S'H4sIAIvzH04C/2tgSs4rzS2o1EvOL0rVyy3NKclMLCpKrOSKL0pNzs8rLikqTS7hKmSEqOLKS4HI\nFjJ5M7SGMia1BxUya3gzejO3QhWklFQWpHIVsoQypVl4M3gzAhWwangzhzLa+Pn5ef0HAjDhzVCS\n1BkqwYADlCTpAQD67GqfmQAAAA==\n'
p1447
sg19
g146
sg21
I267
sssg19
g78
sg21
I265
sssg829
F1
sg838
F0
sg839
(dp1448
g2
(lp1449
((g4
g5
tI-1
tp1450
a((g843
g782
tI0
tp1451
asg15
g843
sg16
(dp1452
g18
Nsg19
g48
sg21
I1
ssg19
g22
sg21
I269
sg23
g782
sg18
(dp1453
g18
(dp1454
g848
F0
sg849
F0
sg79
(dp1455
g2
(lp1456
((g4
g5
tI-1
tp1457
a((g7
g5
tI-1
tp1458
a((g101
g102
tI-1
tp1459
a((g104
g105
tI-1
tp1460
a((g107
g108
tI-1
tp1461
a((g174
g175
tI-1
tp1462
a((g177
g178
tI-1
tp1463
a((g90
g180
tI-1
tp1464
a((g860
g861
tI-1
tp1465
asg15
g860
sg16
(dp1466
g18
Nsg19
g48
sg21
I16
ssg19
g22
sg21
I271
sg23
g861
sg18
(dp1467
g18
(dp1468
g185
(dp1469
g18
S'H4sIAIvzH04C/2tgSs4rzS2o1EvOL0rVyy3NKclMLCpKrOSKL0pNzs8rLikqTS7hKmSEqOLKS4HI\nFjJ5M7SGMia1BxUya3gzejO3QhWklFQWpHIVsoQypVl4M3gzAhWwangzhzLa+Pn5ef0HAjDhzVCS\n1BkqwYADlCTpAQD67GqfmQAAAA==\n'
p1470
sg19
g146
sg21
I273
ssg188
(dp1471
g18
S'H4sIAIvzH04C/2tgSs4rzS2o1EvOL0rVyy3NKclMLCpKrOSKL0pNzs8rLikqTS7hKmSEqOLKS4HI\nFjJ5M7SGMia1BxUya3gzejO3QhWklFQWpHIVsoQypVl4M3gzAhWwangzhzLa+Pn5ef0HAjDhzVCS\n1BkqwQAGH+zR6ZIkPQDfyO6fmQAAAA==\n'
p1472
sg19
g146
sg21
I275
ssg191
(dp1473
g18
S'H4sIAIvzH04C/2tgSs4rzS2o1EvOL0rVyy3NKclMLCpKrOSKL0pNzs8rLikqTS7hKmSEqOLKS4HI\nFjJ5M7SGMia1BxUya3gzejO3QhWklFQWpHIVsoQypVl4M3gzAhWwangzhzLa+Pn5ef0HAjDhzVCS\n1BkqEXa2NK3N9oLNtyDnzRkMjJb8+QuyF/3t3VOSpAcAeqN6JZkAAAA=\n'
p1474
sg19
g146
sg21
I274
ssg137
I0
sg194
I1
sg195
I0
sg196
I1
sg197
I1
sg149
I0
sg155
I0
sg198
I0
sg199
(dp1475
g18
S'H4sIAIvzH04C/2tgSs4rzS2o1EvOL0rVyy3NKclMLCpKrOSKL0pNzs8rLikqTS7hKmSEqOLKS4HI\nFjJ5M7SGMia1BxUya3gzejO3QhWklFQWpHIVsoQypVl4M3gzAhWwangzhzLa+Pn5ef0HAjDhzVCS\n1BkqwYADlCTpAQD67GqfmQAAAA==\n'
p1476
sg19
g146
sg21
I276
ssg202
I1
ssg19
g78
sg21
I272
ssssg19
g78
sg21
I270
ssssg19
g78
sg21
I263
ssa(dp1477
g2
(lp1478
((g4
g5
tI-1
tp1479
a((g795
g782
tI0
tp1480
asg15
g795
sg16
(dp1481
g18
Nsg19
g48
sg21
I1
ssg19
g22
sg21
I277
sg23
g782
sg18
(dp1482
g18
(dp1483
g800
I00
sg801
F0
sg802
(dp1484
g18
Nsg19
g48
sg21
I36
ssg804
(dp1485
g2
(lp1486
((g4
g5
tI-1
tp1487
a((g7
g5
tI-1
tp1488
a((g101
g102
tI-1
tp1489
a((g104
g105
tI-1
tp1490
a((g107
g108
tI-1
tp1491
a((g812
g813
tI-1
tp1492
asg15
g812
sg16
(dp1493
g18
Nsg19
g48
sg21
I16
ssg19
g22
sg21
I279
sg23
g813
sg18
(dp1494
g18
(dp1495
g239
(dp1496
g18
Nsg19
g48
sg21
I36
ssg819
(dp1497
g18
S'H4sIAIvzH04C/2tgSs4rzS2o1EvOL0rVyy3NKclMLCpKrOSKL0pNzs8rLikqTS7hKmSEqOLKS4HI\nFjJ5M7SGMia1BxUya3gzejO3QhWklFQWpHIVsoQypVl4M3gzAhWwangzhzLa+Pn5ef0HAjDhzVCS\n1BkqwQAGH+wZ0EBJkh4Ak4CxA5kAAAA=\n'
p1498
sg19
g146
sg21
I283
ssg822
I0
sg823
F1
sg824
I0
sg224
(dp1499
g18
Nsg19
g48
sg21
I36
ssg241
(dp1500
g18
Nsg19
g48
sg21
I35
ssg155
I0
sg827
I2
sg828
I0
sg149
I0
sg829
F1
sg830
g831
sg137
I0
sg199
(dp1501
g18
S'H4sIAIvzH04C/2tgSs4rzS2o1EvOL0rVyy3NKclMLCpKrOSKL0pNzs8rLikqTS7hKmSEqOLKS4HI\nFjJ5M7SGMia1BxUya3gzejO3QhWklFQWpHIVsoQypVl4M3gzAhWwangzhzLa+Pn5ef0HAjDhzVCS\n1BkqwYAVfLAvSdIDAFBUFn+ZAAAA\n'
p1502
sg19
g146
sg21
I281
ssg834
I0
sg835
F30
sg697
(dp1503
g18
S'H4sIAIvzH04C/2tgSs4rzS2o1EvOL0rVyy3NKclMLCpKrOSKL0pNzs8rLikqTS7hKmSEqOLKS4HI\nFjJ5M7SGMia1BxUya3gzejO3QhWklFQWpHIVsoQypVl4M3gzAhWwangzhzLa+Pn5ef0HAjDhzVCS\n1BkqwYADlCTpAQD67GqfmQAAAA==\n'
p1504
sg19
g146
sg21
I282
sssg19
g78
sg21
I280
sssg829
F1
sg838
F0
sg839
(dp1505
g2
(lp1506
((g4
g5
tI-1
tp1507
a((g843
g782
tI0
tp1508
asg15
g843
sg16
(dp1509
g18
Nsg19
g48
sg21
I1
ssg19
g22
sg21
I284
sg23
g782
sg18
(dp1510
g18
(dp1511
g848
F0
sg849
F0
sg79
(dp1512
g2
(lp1513
((g4
g5
tI-1
tp1514
a((g7
g5
tI-1
tp1515
a((g101
g102
tI-1
tp1516
a((g104
g105
tI-1
tp1517
a((g107
g108
tI-1
tp1518
a((g174
g175
tI-1
tp1519
a((g177
g178
tI-1
tp1520
a((g90
g180
tI-1
tp1521
a((g860
g861
tI-1
tp1522
asg15
g860
sg16
(dp1523
g18
Nsg19
g48
sg21
I16
ssg19
g22
sg21
I286
sg23
g861
sg18
(dp1524
g18
(dp1525
g185
(dp1526
g18
S'H4sIAIvzH04C/2tgSs4rzS2o1EvOL0rVyy3NKclMLCpKrOSKL0pNzs8rLikqTS7hKmSEqOLKS4HI\nFjJ5M7SGMia1BxUya3gzejO3QhWklFQWpHIVsoQypVl4M3gzAhWwangzhzLa+Pn5ef0HAjDhzVCS\n1BkqwYADlCTpAQD67GqfmQAAAA==\n'
p1527
sg19
g146
sg21
I288
ssg188
(dp1528
g18
S'H4sIAIvzH04C/2tgSs4rzS2o1EvOL0rVyy3NKclMLCpKrOSKL0pNzs8rLikqTS7hKmSEqOLKS4HI\nFjJ5M7SGMia1BxUya3gzejO3QhWklFQWpHIVsoQypVl4M3gzAhWwangzhzLa+Pn5ef0HAjDhzVCS\n1BkqwQAGH+zR6ZIkPQDfyO6fmQAAAA==\n'
p1529
sg19
g146
sg21
I290
ssg191
(dp1530
g18
S'H4sIAIvzH04C/2tgSs4rzS2o1EvOL0rVyy3NKclMLCpKrOSKL0pNzs8rLikqTS7hKmSEqOLKS4HI\nFjJ5M7SGMia1BxUya3gzejO3QhWklFQWpHIVsoQypVl4M3gzAhWwangzhzLa+Pn5ef0HAjDhzVCS\n1BkqwYAKGmCMkiQ9ABqDrf+ZAAAA\n'
p1531
sg19
g146
sg21
I289
ssg137
I0
sg194
I1
sg195
I0
sg196
I1
sg197
I1
sg149
I0
sg155
I0
sg198
I0
sg199
(dp1532
g18
S'H4sIAIvzH04C/2tgSs4rzS2o1EvOL0rVyy3NKclMLCpKrOSKL0pNzs8rLikqTS7hKmSEqOLKS4HI\nFjJ5M7SGMia1BxUya3gzejO3QhWklFQWpHIVsoQypVl4M3gzAhWwangzhzLa+Pn5ef0HAjDhzVCS\n1BkqwYADlCTpAQD67GqfmQAAAA==\n'
p1533
sg19
g146
sg21
I291
ssg202
I1
ssg19
g78
sg21
I287
ssssg19
g78
sg21
I285
ssssg19
g78
sg21
I278
ssasg19
g55
sg21
I231
ssS'light_mode_'
p1534
I2
sg1045
I4
ssg19
g78
sg21
I230
sssg1046
I1
ssg19
g78
sg21
I173
sssg204
S''
sg19
S' scene'
p1535
sg1048
(dp1536
g18
(lp1537
(dp1538
g2
(lp1539
((g4
g5
tI-1
tp1540
a((g30
g5
tI-1
tp1541
a((g32
g33
tI-1
tp1542
a((g35
g36
tI0
tp1543
a((g38
g39
tI0
tp1544
a((S'Source'
p1545
S'enthought.mayavi.core.source'
p1546
tI0
tp1547
a((S'ParametricSurface'
p1548
S'enthought.mayavi.sources.parametric_surface'
p1549
tI0
tp1550
asg15
g1548
sg16
(dp1551
g18
Nsg19
g48
sg21
I1
ssg19
g22
sg21
I293
sg23
g1549
sg18
(dp1552
g18
(dp1553
S'function'
p1554
S'random_hills'
p1555
sS'_function_dict'
p1556
(dp1557
g18
(dp1558
S'conic_spiral'
p1559
(dp1560
g2
(lp1561
((g4
g5
tI-1
tp1562
a((g7
g5
tI-1
tp1563
a((g101
g102
tI-1
tp1564
a((g104
g105
tI-1
tp1565
a((g107
g108
tI-1
tp1566
a((S'ParametricFunction'
p1567
S'tvtk_classes.parametric_function'
p1568
tI-1
tp1569
a((S'ParametricConicSpiral'
p1570
S'tvtk_classes.parametric_conic_spiral'
p1571
tI-1
tp1572
asg15
g1570
sg16
(dp1573
g18
Nsg19
g48
sg21
I16
ssg19
g22
sg21
I296
sg23
g1571
sg18
(dp1574
g18
(dp1575
S'join_u_'
p1576
I0
sS'derivatives_available'
p1577
I1
sS'twist_v'
p1578
I0
sS'twist_u'
p1579
I0
sS'derivatives_available_'
p1580
I1
sS'twist_v_'
p1581
I0
sS'minimum_v'
p1582
F0
sS'minimum_w'
p1583
F0
sS'maximum_v'
p1584
F6.2831854820251465
sS'maximum_w'
p1585
F1
sS'clockwise_ordering_'
p1586
I1
sS'clockwise_ordering'
p1587
I1
sS'twist_u_'
p1588
I0
sS'maximum_u'
p1589
F6.2831854820251465
sS'join_v'
p1590
I0
sS'join_u'
p1591
I0
sg149
I0
sS'a'
F0.20000000000000001
sS'c'
F0.10000000000000001
sS'b'
F1
sg155
I0
sS'n'
F2
sg137
I0
sS'join_v_'
p1592
I0
sS'minimum_u'
p1593
F0
ssg19
g78
sg21
I297
sssS'enneper'
p1594
(dp1595
g2
(lp1596
((g4
g5
tI-1
tp1597
a((g7
g5
tI-1
tp1598
a((g101
g102
tI-1
tp1599
a((g104
g105
tI-1
tp1600
a((g107
g108
tI-1
tp1601
a((g1567
g1568
tI-1
tp1602
a((S'ParametricEnneper'
p1603
S'tvtk_classes.parametric_enneper'
p1604
tI-1
tp1605
asg15
g1603
sg16
(dp1606
g18
Nsg19
g48
sg21
I16
ssg19
g22
sg21
I298
sg23
g1604
sg18
(dp1607
g18
(dp1608
g1576
I0
sg1587
I1
sg1593
F-2
sg149
I0
sg1588
I0
sg1577
I1
sg1589
F2
sg1590
I0
sg1591
I0
sg1578
I0
sg1579
I0
sg1580
I1
sg1581
I0
sg1582
F-2
sg1583
F0
sg137
I0
sg1592
I0
sg155
I0
sg1584
F2
sg1585
F1
sg1586
I1
ssg19
g78
sg21
I299
sssS'cap'
p1609
(dp1610
g2
(lp1611
((g4
g5
tI-1
tp1612
a((g7
g5
tI-1
tp1613
a((g101
g102
tI-1
tp1614
a((g104
g105
tI-1
tp1615
a((g107
g108
tI-1
tp1616
a((g1567
g1568
tI-1
tp1617
a((S'ParametricCrossCap'
p1618
S'tvtk_classes.parametric_cross_cap'
p1619
tI-1
tp1620
asg15
g1618
sg16
(dp1621
g18
Nsg19
g48
sg21
I16
ssg19
g22
sg21
I312
sg23
g1619
sg18
(dp1622
g18
(dp1623
g1576
I1
sg1587
I1
sg1593
F0
sg149
I0
sg1588
I1
sg1577
I1
sg1589
F3.1415927410125732
sg1590
I1
sg1591
I1
sg1578
I1
sg1579
I1
sg1580
I1
sg1581
I1
sg1582
F0
sg1583
F0
sg137
I0
sg1592
I1
sg155
I0
sg1584
F3.1415927410125732
sg1585
F1
sg1586
I1
ssg19
g78
sg21
I313
sssg1555
(dp1624
g2
(lp1625
((g4
g5
tI-1
tp1626
a((g7
g5
tI-1
tp1627
a((g101
g102
tI-1
tp1628
a((g104
g105
tI-1
tp1629
a((g107
g108
tI-1
tp1630
a((g1567
g1568
tI-1
tp1631
a((S'ParametricRandomHills'
p1632
S'tvtk_classes.parametric_random_hills'
p1633
tI-1
tp1634
asg15
g1632
sg16
(dp1635
g18
Nsg19
g48
sg21
I16
ssg19
g22
sg21
I302
sg23
g1633
sg18
(dp1636
g18
(dp1637
g1576
I0
sS'number_of_hills'
p1638
I32
sS'hill_y_variance'
p1639
F2.5
sg1577
I0
sS'allow_random_generation'
p1640
I1
sg1578
I0
sg1579
I0
sg1580
I0
sg1581
I0
sg1582
F-10
sg1583
F0
sg1584
F10
sg1585
F1
sg1586
I1
sg1587
I1
sS'y_variance_scale_factor'
p1641
F0.33333333333333331
sg1588
I0
sS'hill_x_variance'
p1642
F2.5
sg1589
F10
sS'random_seed'
p1643
I101
sg1590
I0
sg1591
I0
sg149
I0
sS'amplitude_scale_factor'
p1644
F0.33333333333333331
sS'x_variance_scale_factor'
p1645
F0.33333333333333331
sS'allow_random_generation_'
p1646
I1
sS'hill_amplitude'
p1647
F2
sg155
I0
sg137
I0
sg1592
I0
sg1593
F-10
ssg19
g78
sg21
I303
sssS'klein'
p1648
(dp1649
g2
(lp1650
((g4
g5
tI-1
tp1651
a((g7
g5
tI-1
tp1652
a((g101
g102
tI-1
tp1653
a((g104
g105
tI-1
tp1654
a((g107
g108
tI-1
tp1655
a((g1567
g1568
tI-1
tp1656
a((S'ParametricKlein'
p1657
S'tvtk_classes.parametric_klein'
p1658
tI-1
tp1659
asg15
g1657
sg16
(dp1660
g18
Nsg19
g48
sg21
I16
ssg19
g22
sg21
I304
sg23
g1658
sg18
(dp1661
g18
(dp1662
g1576
I0
sg1587
I1
sg1593
F0
sg149
I0
sg1588
I0
sg1577
I1
sg1589
F3.1415927410125732
sg1590
I1
sg1591
I0
sg1578
I0
sg1579
I0
sg1580
I1
sg1581
I0
sg1582
F0
sg1583
F0
sg137
I0
sg1592
I1
sg155
I0
sg1584
F6.2831854820251465
sg1585
F1
sg1586
I1
ssg19
g78
sg21
I305
sssS'ellipsoid'
p1663
(dp1664
g2
(lp1665
((g4
g5
tI-1
tp1666
a((g7
g5
tI-1
tp1667
a((g101
g102
tI-1
tp1668
a((g104
g105
tI-1
tp1669
a((g107
g108
tI-1
tp1670
a((g1567
g1568
tI-1
tp1671
a((S'ParametricEllipsoid'
p1672
S'tvtk_classes.parametric_ellipsoid'
p1673
tI-1
tp1674
asg15
g1672
sg16
(dp1675
g18
Nsg19
g48
sg21
I16
ssg19
g22
sg21
I306
sg23
g1673
sg18
(dp1676
g18
(dp1677
g1576
I1
sS'x_radius'
p1678
F1
sg1577
I1
sS'y_radius'
p1679
F1
sg1578
I0
sg1579
I0
sg1580
I1
sg1581
I0
sg1582
F0
sg1583
F0
sg1584
F3.1415927410125732
sg1585
F1
sg1586
I1
sg1587
I1
sg1588
I0
sS'z_radius'
p1680
F1
sg1589
F6.2831854820251465
sg1590
I0
sg1591
I1
sg149
I0
sg155
I0
sg137
I0
sg1592
I0
sg1593
F0
ssg19
g78
sg21
I307
sssS'boy'
p1681
(dp1682
g2
(lp1683
((g4
g5
tI-1
tp1684
a((g7
g5
tI-1
tp1685
a((g101
g102
tI-1
tp1686
a((g104
g105
tI-1
tp1687
a((g107
g108
tI-1
tp1688
a((g1567
g1568
tI-1
tp1689
a((S'ParametricBoy'
p1690
S'tvtk_classes.parametric_boy'
p1691
tI-1
tp1692
asg15
g1690
sg16
(dp1693
g18
Nsg19
g48
sg21
I16
ssg19
g22
sg21
I300
sg23
g1691
sg18
(dp1694
g18
(dp1695
g1576
I1
sg1577
I1
sg1578
I1
sg1579
I1
sg1580
I1
sg1593
F0
sg1582
F0
sg1583
F0
sg1584
F3.1415927410125732
sg1585
F1
sg1589
F3.1415927410125732
sg1587
I1
sg1588
I1
sg1586
I1
sg1590
I1
sg1591
I1
sg149
I0
sS'z_scale'
p1696
F0.125
sg155
I0
sg137
I0
sg1592
I1
sg1581
I1
ssg19
g78
sg21
I301
sssS'torus'
p1697
(dp1698
g2
(lp1699
((g4
g5
tI-1
tp1700
a((g7
g5
tI-1
tp1701
a((g101
g102
tI-1
tp1702
a((g104
g105
tI-1
tp1703
a((g107
g108
tI-1
tp1704
a((g1567
g1568
tI-1
tp1705
a((S'ParametricTorus'
p1706
S'tvtk_classes.parametric_torus'
p1707
tI-1
tp1708
asg15
g1706
sg16
(dp1709
g18
Nsg19
g48
sg21
I16
ssg19
g22
sg21
I310
sg23
g1707
sg18
(dp1710
g18
(dp1711
g1576
I1
sg1577
I1
sg1578
I0
sg1579
I0
sg1580
I1
sg1581
I0
sg1582
F0
sg1583
F0
sS'cross_section_radius'
p1712
F0.5
sg1584
F6.2831854820251465
sg1585
F1
sg1589
F6.2831854820251465
sg1587
I1
sg1588
I0
sg1586
I1
sg1590
I1
sg1591
I1
sg149
I0
sS'ring_radius'
p1713
F1
sg155
I0
sg137
I0
sg1592
I1
sg1593
F0
ssg19
g78
sg21
I311
sssS'figure8klein'
p1714
(dp1715
g2
(lp1716
((g4
g5
tI-1
tp1717
a((g7
g5
tI-1
tp1718
a((g101
g102
tI-1
tp1719
a((g104
g105
tI-1
tp1720
a((g107
g108
tI-1
tp1721
a((g1567
g1568
tI-1
tp1722
a((S'ParametricFigure8Klein'
p1723
S'tvtk_classes.parametric_figure8_klein'
p1724
tI-1
tp1725
asg15
g1723
sg16
(dp1726
g18
Nsg19
g48
sg21
I16
ssg19
g22
sg21
I308
sg23
g1724
sg18
(dp1727
g18
(dp1728
g1576
I1
sg1577
I1
sg1578
I0
sg1579
I1
sg1580
I1
sS'radius'
p1729
F1
sg1593
F-3.1415927410125732
sg1582
F-3.1415927410125732
sg1583
F0
sg1584
F3.1415927410125732
sg1585
F1
sg1589
F3.1415927410125732
sg1587
I1
sg1588
I1
sg1586
I1
sg1590
I1
sg1591
I1
sg149
I0
sg155
I0
sg137
I0
sg1592
I1
sg1581
I0
ssg19
g78
sg21
I309
sssS'super_toroid'
p1730
(dp1731
g2
(lp1732
((g4
g5
tI-1
tp1733
a((g7
g5
tI-1
tp1734
a((g101
g102
tI-1
tp1735
a((g104
g105
tI-1
tp1736
a((g107
g108
tI-1
tp1737
a((g1567
g1568
tI-1
tp1738
a((S'ParametricSuperToroid'
p1739
S'tvtk_classes.parametric_super_toroid'
p1740
tI-1
tp1741
asg15
g1739
sg16
(dp1742
g18
Nsg19
g48
sg21
I16
ssg19
g22
sg21
I314
sg23
g1740
sg18
(dp1743
g18
(dp1744
g1576
I1
sg1678
F1
sg1577
I0
sg1679
F1
sg1578
I0
sg1579
I0
sg1580
I0
sg1593
F0
sg1582
F0
sg1583
F0
sg1712
F0.5
sg1584
F6.2831854820251465
sg1585
F1
sg1586
I1
sg1587
I1
sg1588
I0
sg1680
F1
sg1589
F6.2831854820251465
sg1590
I1
sg1591
I1
sg149
I0
sg1713
F1
sS'n1'
p1745
F1
sg155
I0
sg137
I0
sg1592
I1
sS'n2'
p1746
F1
sg1581
I0
ssg19
g78
sg21
I315
sssS'dini'
p1747
(dp1748
g2
(lp1749
((g4
g5
tI-1
tp1750
a((g7
g5
tI-1
tp1751
a((g101
g102
tI-1
tp1752
a((g104
g105
tI-1
tp1753
a((g107
g108
tI-1
tp1754
a((g1567
g1568
tI-1
tp1755
a((S'ParametricDini'
p1756
S'tvtk_classes.parametric_dini'
p1757
tI-1
tp1758
asg15
g1756
sg16
(dp1759
g18
Nsg19
g48
sg21
I16
ssg19
g22
sg21
I316
sg23
g1757
sg18
(dp1760
g18
(dp1761
g1576
I0
sg1577
I1
sg1578
I0
sg1579
I0
sg1580
I1
sg1593
F0
sg1582
F0.001
sg1583
F0
sg1584
F2
sg1585
F1
sg1589
F12.566370964050293
sg1587
I1
sg1588
I0
sg1586
I1
sg1590
I0
sg1591
I0
sg149
I0
sS'a'
F1
sS'b'
F0.20000000000000001
sg155
I0
sg137
I0
sg1592
I0
sg1581
I0
ssg19
g78
sg21
I317
sssS'roman'
p1762
(dp1763
g2
(lp1764
((g4
g5
tI-1
tp1765
a((g7
g5
tI-1
tp1766
a((g101
g102
tI-1
tp1767
a((g104
g105
tI-1
tp1768
a((g107
g108
tI-1
tp1769
a((g1567
g1568
tI-1
tp1770
a((S'ParametricRoman'
p1771
S'tvtk_classes.parametric_roman'
p1772
tI-1
tp1773
asg15
g1771
sg16
(dp1774
g18
Nsg19
g48
sg21
I16
ssg19
g22
sg21
I318
sg23
g1772
sg18
(dp1775
g18
(dp1776
g1576
I1
sg1577
I1
sg1578
I0
sg1579
I1
sg1580
I1
sg1729
F1
sg1593
F0
sg1582
F0
sg1583
F0
sg1584
F3.1415927410125732
sg1585
F1
sg1589
F3.1415927410125732
sg1587
I1
sg1588
I1
sg1586
I1
sg1590
I1
sg1591
I1
sg149
I0
sg155
I0
sg137
I0
sg1592
I1
sg1581
I0
ssg19
g78
sg21
I319
sssS'mobius'
p1777
(dp1778
g2
(lp1779
((g4
g5
tI-1
tp1780
a((g7
g5
tI-1
tp1781
a((g101
g102
tI-1
tp1782
a((g104
g105
tI-1
tp1783
a((g107
g108
tI-1
tp1784
a((g1567
g1568
tI-1
tp1785
a((S'ParametricMobius'
p1786
S'tvtk_classes.parametric_mobius'
p1787
tI-1
tp1788
asg15
g1786
sg16
(dp1789
g18
Nsg19
g48
sg21
I16
ssg19
g22
sg21
I320
sg23
g1787
sg18
(dp1790
g18
(dp1791
g1576
I1
sg1577
I1
sg1578
I0
sg1579
I1
sg1580
I1
sg1729
F1
sg1593
F0
sg1582
F-1
sg1583
F0
sg1584
F1
sg1585
F1
sg1589
F6.2831854820251465
sg1587
I1
sg1588
I1
sg1586
I1
sg1590
I0
sg1591
I1
sg149
I0
sg155
I0
sg137
I0
sg1592
I0
sg1581
I0
ssg19
g78
sg21
I321
sssS'super_ellipsoid'
p1792
(dp1793
g2
(lp1794
((g4
g5
tI-1
tp1795
a((g7
g5
tI-1
tp1796
a((g101
g102
tI-1
tp1797
a((g104
g105
tI-1
tp1798
a((g107
g108
tI-1
tp1799
a((g1567
g1568
tI-1
tp1800
a((S'ParametricSuperEllipsoid'
p1801
S'tvtk_classes.parametric_super_ellipsoid'
p1802
tI-1
tp1803
asg15
g1801
sg16
(dp1804
g18
Nsg19
g48
sg21
I16
ssg19
g22
sg21
I322
sg23
g1802
sg18
(dp1805
g18
(dp1806
g1576
I1
sg1678
F1
sg1577
I0
sg1679
F1
sg1578
I0
sg1579
I0
sg1580
I0
sg1581
I0
sg1582
F0
sg1583
F0
sg1584
F3.1415927410125732
sg1585
F1
sg1586
I1
sg1587
I1
sg1588
I0
sg1680
F1
sg1589
F6.2831854820251465
sg1590
I0
sg1591
I1
sg149
I0
sg1745
F1
sg155
I0
sg137
I0
sg1592
I0
sg1746
F1
sg1593
F0
ssg19
g78
sg21
I323
sssS'spline'
p1807
(dp1808
g2
(lp1809
((g4
g5
tI-1
tp1810
a((g7
g5
tI-1
tp1811
a((g101
g102
tI-1
tp1812
a((g104
g105
tI-1
tp1813
a((g107
g108
tI-1
tp1814
a((g1567
g1568
tI-1
tp1815
a((S'ParametricSpline'
p1816
S'tvtk_classes.parametric_spline'
p1817
tI-1
tp1818
asg15
g1816
sg16
(dp1819
g18
Nsg19
g48
sg21
I16
ssg19
g22
sg21
I324
sg23
g1817
sg18
(dp1820
g18
(dp1821
g1576
I0
sS'left_value'
p1822
F0
sg1578
I0
sg1579
I0
sg1580
I1
sg1581
I0
sg1582
F0
sg1583
F0
sg1584
F1
sg1585
F1
sS'right_value'
p1823
F0
sg1587
I1
sg1588
I0
sS'left_constraint'
p1824
I1
sS'parameterize_by_length_'
p1825
I1
sS'closed'
p1826
I0
sg1586
I1
sg1577
I1
sS'closed_'
p1827
I0
sg1590
I0
sg1591
I0
sg149
I0
sS'right_constraint'
p1828
I1
sS'parameterize_by_length'
p1829
I1
sg1589
F1
sg155
I0
sg137
I0
sg1592
I0
sg1593
F0
ssg19
g78
sg21
I325
ssssg19
g78
sg21
I295
ssg56
S'ParametricSurface'
p1830
sg804
(dp1831
g2
(lp1832
((g4
g5
tI-1
tp1833
a((g7
g5
tI-1
tp1834
a((g101
g102
tI-1
tp1835
a((g104
g105
tI-1
tp1836
a((g107
g108
tI-1
tp1837
a((g110
g111
tI-1
tp1838
a((g302
g303
tI-1
tp1839
a((S'ParametricFunctionSource'
p1840
S'tvtk_classes.parametric_function_source'
p1841
tI-1
tp1842
asg15
g1840
sg16
(dp1843
g18
Nsg19
g48
sg21
I16
ssg19
g22
sg21
I712
sg23
g1841
sg18
(dp1844
g18
(dp1845
g153
I0
sS'generate_texture_coordinates_'
p1846
I0
sS'w_resolution'
p1847
I50
sg130
S'z'
sS'v_resolution'
p1848
I50
sg147
NsS'generate_texture_coordinates'
p1849
I0
sg137
I0
sg149
I0
sg140
I0
sg150
I11
sg141
I0
sg158
I0
sg142
F1
sS'u_resolution'
p1850
I50
sg155
I0
ssg19
g78
sg21
I713
sssS'output_info'
p1851
(dp1852
g2
(lp1853
((g4
g5
tI-1
tp1854
a((g62
g63
tI-1
tp1855
asg15
g62
sg16
(dp1856
g18
Nsg19
g48
sg21
I1
ssg19
g22
sg21
I714
sg23
g63
sg18
(dp1857
g18
(dp1858
g68
(dp1859
g18
(lp1860
g265
asg19
g55
sg21
I716
ssg71
(dp1861
g18
(lp1862
S'poly_data'
p1863
asg19
g55
sg21
I717
ssg75
(dp1864
g18
(lp1865
g265
asg19
g55
sg21
I718
sssg19
g78
sg21
I715
sssg203
I01
sg204
S''
sg206
Nsg19
S' data source'
p1866
sg1048
(dp1867
g18
(lp1868
(dp1869
g2
(lp1870
((g4
g5
tI-1
tp1871
a((g30
g5
tI-1
tp1872
a((g32
g33
tI-1
tp1873
a((g35
g36
tI0
tp1874
a((S'ModuleManager'
p1875
S'enthought.mayavi.core.module_manager'
p1876
tI0
tp1877
asg15
g1875
sg16
(dp1878
g18
Nsg19
g48
sg21
I1
ssg19
g22
sg21
I327
sg23
g1876
sg18
(dp1879
g18
(dp1880
g56
S'Colors and legends'
p1881
sS'lut_data_mode'
p1882
S'auto'
p1883
sS'vector_lut_manager'
p1884
(dp1885
g2
(lp1886
((g4
g5
tI-1
tp1887
a((g30
g5
tI-1
tp1888
a((g32
g33
tI-1
tp1889
a((g35
g36
tI0
tp1890
a((S'LUTManager'
p1891
S'enthought.mayavi.core.lut_manager'
p1892
tI0
tp1893
asg15
g1891
sg16
(dp1894
g18
Nsg19
g48
sg21
I1
ssg19
g22
sg21
I329
sg23
g1892
sg18
(dp1895
g18
(dp1896
S'_label_text_property'
p1897
(dp1898
g2
(lp1899
((g4
g5
tI-1
tp1900
a((g7
g5
tI-1
tp1901
a((g101
g102
tI-1
tp1902
a((g104
g105
tI-1
tp1903
a((g107
g108
tI-1
tp1904
a((S'TextProperty'
p1905
S'tvtk_classes.text_property'
p1906
tI-1
tp1907
asg15
g1905
sg16
(dp1908
g18
Nsg19
g48
sg21
I16
ssg19
g22
sg21
I331
sg23
g1906
sg18
(dp1909
g18
(dp1910
g236
F1
sS'justification'
p1911
S'left'
p1912
sS'font_size'
p1913
I12
sg191
F0
sS'line_offset'
p1914
F0
sS'italic_'
p1915
I1
sS'vertical_justification'
p1916
S'bottom'
p1917
sS'shadow_'
p1918
I0
sg155
I0
sS'line_spacing'
p1919
F1.1000000000000001
sg802
(dp1920
g18
Nsg19
g48
sg21
I36
ssS'italic'
p1921
I1
sS'shadow_offset'
p1922
(dp1923
g18
S'H4sIAIvzH04C/2tgSs4rzS2o1EvOL0rVyy3NKclMLCpKrOSKL0pNzs8rLikqTS7hKmSEqOLKS4HI\nFjJ5M7SGMia1BxUya3gzejO1QhWklFQWpHIVsoQyZZp4M3gzAhWwangzhzLa+Pn5ef0HAjDhzVCS\n1BnKwcjAwADiliTpAQCk2G9tiQAAAA==\n'
p1924
sg19
g146
sg21
I333
ssg137
I0
sS'bold_'
p1925
I1
sS'shadow'
p1926
I0
sS'font_family'
p1927
S'arial'
p1928
sg149
I0
sS'bold'
p1929
I1
ssg19
g78
sg21
I332
sssS'file_name'
p1930
S''
sS'data_name'
p1931
S'No vectors'
p1932
sS'visible'
p1933
I01
sS'default_data_range'
p1934
(dp1935
g18
S'H4sIAIvzH04C/2tgSs4rzS2o1EvOL0rVyy3NKclMLCpKrOSKL0pNzs8rLikqTS7hKmSEqOLKS4HI\nFjJ5M7SGMia1BxUya3gzejO1QhWklFQWpHIVsoQypVl4M3gzAhWwangzhzLa+Pn5ef0HAjDhzVCS\n1BkqwIACPtiXJOkBAIHIRA6RAAAA\n'
p1936
sg19
g146
sg21
I334
ssS'lut'
p1937
(dp1938
g2
(lp1939
((g4
g5
tI-1
tp1940
a((g7
g5
tI-1
tp1941
a((g101
g102
tI-1
tp1942
a((g104
g105
tI-1
tp1943
a((g107
g108
tI-1
tp1944
a((S'ScalarsToColors'
p1945
S'tvtk_classes.scalars_to_colors'
p1946
tI-1
tp1947
a((S'LookupTable'
p1948
S'tvtk_classes.lookup_table'
p1949
tI-1
tp1950
asg15
g1948
sg16
(dp1951
g18
Nsg19
g48
sg21
I16
ssg19
g22
sg21
I335
sg23
g1949
sg18
(dp1952
g18
(dp1953
S'ramp_'
p1954
I2
sg188
S'linear'
p1955
sS'saturation_range'
p1956
(dp1957
g18
S'H4sIAIvzH04C/2tgSs4rzS2o1EvOL0rVyy3NKclMLCpKrOSKL0pNzs8rLikqTS7hKmSEqOLKS4HI\nFjJ5M7SGMia1BxUya3gzejO1QhWklFQWpHIVsoQypVl4M3gzAhWwangzhzLa+Pn5ef0HAjDhzVCS\n1BkqwAAGH+xhdEmSHgBnOGdykQAAAA==\n'
p1958
sg19
g146
sg21
I337
ssS'table_range'
p1959
(dp1960
g18
S'H4sIAIvzH04C/2tgSs4rzS2o1EvOL0rVyy3NKclMLCpKrOSKL0pNzs8rLikqTS7hKmSEqOLKS4HI\nFjJ5M7SGMia1BxUya3gzejO1QhWklFQWpHIVsoQypVl4M3gzAhWwangzhzLa+Pn5ef0HAjDhzVCS\n1BkqwIACPtiXJOkBAIHIRA6RAAAA\n'
p1961
sg19
g146
sg21
I339
ssS'hue_range'
p1962
(dp1963
g18
S'H4sIAIvzH04C/2tgSs4rzS2o1EvOL0rVyy3NKclMLCpKrOSKL0pNzs8rLikqTS7hKmSEqOLKS4HI\nFjJ5M7SGMia1BxUya3gzejO1QhWklFQWpHIVsoQypVl4M3gzAhWwangzhzLa+Pn5ef0HAjDhzVCS\n1Bkq4H2C3XZ26FN7BigoSdIDAObNAnCRAAAA\n'
p1964
sg19
g146
sg21
I338
ssS'number_of_table_values'
p1965
I256
sS'ramp'
p1966
S'sqrt'
p1967
sg155
I0
sS'number_of_colors'
p1968
I256
sS'alpha_range'
p1969
(dp1970
g18
S'H4sIAIvzH04C/2tgSs4rzS2o1EvOL0rVyy3NKclMLCpKrOSKL0pNzs8rLikqTS7hKmSEqOLKS4HI\nFjJ5M7SGMia1BxUya3gzejO1QhWklFQWpHIVsoQypVl4M3gzAhWwangzhzLa+Pn5ef0HAjDhzVCS\n1BkqwAAGH+xhdEmSHgBnOGdykQAAAA==\n'
p1971
sg19
g146
sg21
I340
ssS'range'
p1972
(dp1973
g18
S'H4sIAIvzH04C/2tgSs4rzS2o1EvOL0rVyy3NKclMLCpKrOSKL0pNzs8rLikqTS7hKmSEqOLKS4HI\nFjJ5M7SGMia1BxUya3gzejO1QhWklFQWpHIVsoQypVl4M3gzAhWwangzhzLa+Pn5ef0HAjDhzVCS\n1BkqwIACPtiXJOkBAIHIRA6RAAAA\n'
p1974
sg19
g146
sg21
I341
ssS'vector_component'
p1975
I0
sS'value_range'
p1976
(dp1977
g18
S'H4sIAIvzH04C/2tgSs4rzS2o1EvOL0rVyy3NKclMLCpKrOSKL0pNzs8rLikqTS7hKmSEqOLKS4HI\nFjJ5M7SGMia1BxUya3gzejO1QhWklFQWpHIVsoQypVl4M3gzAhWwangzhzLa+Pn5ef0HAjDhzVCS\n1BkqwAAGH+xhdEmSHgBnOGdykQAAAA==\n'
p1978
sg19
g146
sg21
I342
ssg137
I0
sS'alpha'
p1979
F1
sS'vector_mode'
p1980
S'component'
p1981
sg149
I0
ssg19
g78
sg21
I336
sssS'_title_text_property'
p1982
(dp1983
g2
(lp1984
((g4
g5
tI-1
tp1985
a((g7
g5
tI-1
tp1986
a((g101
g102
tI-1
tp1987
a((g104
g105
tI-1
tp1988
a((g107
g108
tI-1
tp1989
a((g1905
g1906
tI-1
tp1990
asg15
g1905
sg16
(dp1991
g18
Nsg19
g48
sg21
I16
ssg19
g22
sg21
I352
sg23
g1906
sg18
(dp1992
g18
(dp1993
g236
F1
sg1911
g1912
sg1913
I12
sg191
F0
sg1914
F0
sg1915
I1
sg1916
g1917
sg1918
I0
sg155
I0
sg1919
F1.1000000000000001
sg802
(dp1994
g18
Nsg19
g48
sg21
I36
ssg1921
I1
sg1922
(dp1995
g18
S'H4sIAIvzH04C/2tgSs4rzS2o1EvOL0rVyy3NKclMLCpKrOSKL0pNzs8rLikqTS7hKmSEqOLKS4HI\nFjJ5M7SGMia1BxUya3gzejO1QhWklFQWpHIVsoQyZZp4M3gzAhWwangzhzLa+Pn5ef0HAjDhzVCS\n1BnKwcjAwADiliTpAQCk2G9tiQAAAA==\n'
p1996
sg19
g146
sg21
I354
ssg137
I0
sg1925
I1
sg1926
I0
sg1927
g1928
sg149
I0
sg1929
I1
ssg19
g78
sg21
I353
sssg1968
I256
sS'_orig_data_range'
p1997
(dp1998
g18
S'H4sIAIvzH04C/2tgSs4rzS2o1EvOL0rVyy3NKclMLCpKrOSKL0pNzs8rLikqTS7hKmSEqOLKS4HI\nFjJ5M7SGMia1BxUya3gzejO1QhWklFQWpHIVsoQypVl4M3gzAhWwangzhzLa+Pn5ef0HAjDhzVCS\n1BkqwIACPtiXJOkBAIHIRA6RAAAA\n'
p1999
sg19
g146
sg21
I345
ssg206
NsS'reverse_lut'
p2000
I00
sg255
S''
sS'scalar_bar_representation'
p2001
(dp2002
g2
(lp2003
((g4
g5
tI-1
tp2004
a((g7
g5
tI-1
tp2005
a((g101
g102
tI-1
tp2006
a((g104
g105
tI-1
tp2007
a((g107
g108
tI-1
tp2008
a((g174
g175
tI-1
tp2009
a((S'WidgetRepresentation'
p2010
S'tvtk_classes.widget_representation'
p2011
tI-1
tp2012
a((S'BorderRepresentation'
p2013
S'tvtk_classes.border_representation'
p2014
tI-1
tp2015
a((S'ScalarBarRepresentation'
p2016
S'tvtk_classes.scalar_bar_representation'
p2017
tI-1
tp2018
asg15
g2016
sg16
(dp2019
g18
Nsg19
g48
sg21
I16
ssg19
g22
sg21
I346
sg23
g2017
sg18
(dp2020
g18
(dp2021
g191
I1
sS'need_to_render'
p2022
I0
sg194
I1
sg196
I1
sS'show_border'
p2023
S'active'
p2024
sg198
I1
sS'show_border_'
p2025
I2
sS'need_to_render_'
p2026
I0
sS'proportional_resize_'
p2027
I0
sS'position2'
p2028
(dp2029
g18
S'H4sIAIvzH04C/2tgSs4rzS2o1EvOL0rVyy3NKclMLCpKrOSKL0pNzs8rLikqTS7hKmSEqOLKS4HI\nFjJ5M7SGMia1BxUya3gzejO1QhWklFQWpHIVsoQypVl4M3gzAhWwangzhzLa+Pn5ef0HAjDhzVCS\n1BkqcPirRkz/oaP2s2aCwEv7kiQ9AC+e0nyRAAAA\n'
p2030
sg19
g146
sg21
I349
ssS'moving_'
p2031
I0
sS'maximum_size'
p2032
(dp2033
g18
S'H4sIAIvzH04C/2tgSs4rzS2o1EvOL0rVyy3NKclMLCpKrOSKL0pNzs8rLikqTS7hKmSEqOLKS4HI\nFjJ5M7SGMia1BxUya3gzejO1QhWklFQWpHIVsoQyZZp4M3gzAhWwangzhzLa+Pn5ef0HAjDhzVCS\n1BnKsaCNkQGES5L0ALP9TXGJAAAA\n'
p2034
sg19
g146
sg21
I351
ssg202
I1
sg512
I3
sS'minimum_size'
p2035
(dp2036
g18
S'H4sIAIvzH04C/2tgSs4rzS2o1EvOL0rVyy3NKclMLCpKrOSKL0pNzs8rLikqTS7hKmSEqOLKS4HI\nFjJ5M7SGMia1BxUya3gzejO1QhWklFQWpHIVsoQyZZp4M3gzAhWwangzhzLa+Pn5ef0HAjDhzVCS\n1BnKwcjAwADCJUl6AJHzi6mJAAAA\n'
p2037
sg19
g146
sg21
I348
ssg195
I1
sg197
I1
sg149
I0
sS'moving'
p2038
I0
sS'place_factor'
p2039
F0.5
sS'proportional_resize'
p2040
I0
sg155
I0
sg137
I0
sg199
(dp2041
g18
S'H4sIAIvzH04C/2tgSs4rzS2o1EvOL0rVyy3NKclMLCpKrOSKL0pNzs8rLikqTS7hKmSEqOLKS4HI\nFjJ5M7SGMia1BxUya3gzejO1QhWklFQWpHIVsoQypVl4M3gzAhWwangzhzLa+Pn5ef0HAjDhzVCS\n1BkqYMt1fXGB7Sv7WTNBYKd9SZIeADd4AQGRAAAA\n'
p2042
sg19
g146
sg21
I350
ssS'handle_size'
p2043
F0.01
ssg19
g78
sg21
I347
sssS'scalar_bar_widget'
p2044
(dp2045
g2
(lp2046
((g4
g5
tI-1
tp2047
a((g7
g5
tI-1
tp2048
a((g101
g102
tI-1
tp2049
a((g104
g105
tI-1
tp2050
a((g107
g108
tI-1
tp2051
a((g582
g583
tI-1
tp2052
a((S'AbstractWidget'
p2053
S'tvtk_classes.abstract_widget'
p2054
tI-1
tp2055
a((S'BorderWidget'
p2056
S'tvtk_classes.border_widget'
p2057
tI-1
tp2058
a((S'ScalarBarWidget'
p2059
S'tvtk_classes.scalar_bar_widget'
p2060
tI-1
tp2061
asg15
g2059
sg16
(dp2062
g18
Nsg19
g48
sg21
I16
ssg19
g22
sg21
I343
sg23
g2060
sg18
(dp2063
g18
(dp2064
S'process_events_'
p2065
I1
sg591
S'i'
sS'resizable'
p2066
I1
sg149
I0
sg137
I0
sg592
I0
sg595
I0
sg155
I0
sS'manages_cursor'
p2067
I1
sg594
F0.5
sS'repositionable'
p2068
I1
sS'repositionable_'
p2069
I1
sS'manages_cursor_'
p2070
I1
sg596
I0
sS'resizable_'
p2071
I1
sS'selectable_'
p2072
I0
sS'selectable'
p2073
I0
sg597
I0
sS'process_events'
p2074
I1
ssg19
g78
sg21
I344
sssS'show_scalar_bar'
p2075
I00
sg1926
I00
sS'lut_mode'
p2076
S'blue-red'
p2077
sS'use_default_name'
p2078
I01
sg166
S''
sS'number_of_labels'
p2079
I8
sS'data_range'
p2080
(dp2081
g18
Nsg19
g48
sg21
I334
ssS'default_data_name'
p2082
S'No vectors'
p2083
sg204
S''
sS'use_default_range'
p2084
I01
sS'scalar_bar'
p2085
(dp2086
g2
(lp2087
((g4
g5
tI-1
tp2088
a((g7
g5
tI-1
tp2089
a((g101
g102
tI-1
tp2090
a((g104
g105
tI-1
tp2091
a((g107
g108
tI-1
tp2092
a((g174
g175
tI-1
tp2093
a((S'Actor2D'
p2094
S'tvtk_classes.actor2d'
p2095
tI-1
tp2096
a((S'ScalarBarActor'
p2097
S'tvtk_classes.scalar_bar_actor'
p2098
tI-1
tp2099
asg15
g2097
sg16
(dp2100
g18
Nsg19
g48
sg21
I16
ssg19
g22
sg21
I355
sg23
g2098
sg18
(dp2101
g18
(dp2102
g191
S'vertical'
p2103
sg194
I1
sS'height'
p2104
F0.17000000000000001
sg198
I1
sS'layer_number'
p2105
I0
sS'title'
p2106
S'No vectors'
p2107
sS'label_format'
p2108
S'%-#6.3g'
p2109
sS'width'
p2110
F0.80000000000000004
sS'texture_grid_width'
p2111
F10
sS'text_position'
p2112
S'succeed_scalar_bar'
p2113
sg202
I1
sS'use_opacity'
p2114
I0
sg195
I1
sg197
I1
sg149
I0
sS'maximum_number_of_colors'
p2115
I256
sS'orientation_'
p2116
I1
sg196
I1
sg2079
I8
sg155
I0
sg2028
(dp2117
g18
S'H4sIAIvzH04C/2tgSs4rzS2o1EvOL0rVyy3NKclMLCpKrOSKL0pNzs8rLikqTS7hKmSEqOLKS4HI\nFjJ5M7SGMia1BxUya3gzejO1QhWklFQWpHIVsoQypVl4M3gzAhWwangzhzLa+Pn5ef0HAjDhzVCS\n1BkqMGsmCLy0P/xVI6b/0FH7kiQ9AGpIg++RAAAA\n'
p2118
sg19
g146
sg21
I358
ssS'use_opacity_'
p2119
I0
sg137
I0
sg199
(dp2120
g18
S'H4sIAIvzH04C/2tgSs4rzS2o1EvOL0rVyy3NKclMLCpKrOSKL0pNzs8rLikqTS7hKmSEqOLKS4HI\nFjJ5M7SGMia1BxUya3gzejO1QhWklFQWpHIVsoQypVl4M3gzAhWwangzhzLa+Pn5ef0HAjDhzVCS\n1BkqMGsmCOy0rxZZ5/6wqsW+JEkPAHMFfKeRAAAA\n'
p2121
sg19
g146
sg21
I357
sssg19
g78
sg21
I356
ssssg19
g78
sg21
I330
sssg204
S''
sS'scalar_lut_manager'
p2122
(dp2123
g2
(lp2124
((g4
g5
tI-1
tp2125
a((g30
g5
tI-1
tp2126
a((g32
g33
tI-1
tp2127
a((g35
g36
tI0
tp2128
a((g1891
g1892
tI0
tp2129
asg15
g1891
sg16
(dp2130
g18
Nsg19
g48
sg21
I1
ssg19
g22
sg21
I360
sg23
g1892
sg18
(dp2131
g18
(dp2132
g1897
(dp2133
g2
(lp2134
((g4
g5
tI-1
tp2135
a((g7
g5
tI-1
tp2136
a((g101
g102
tI-1
tp2137
a((g104
g105
tI-1
tp2138
a((g107
g108
tI-1
tp2139
a((g1905
g1906
tI-1
tp2140
asg15
g1905
sg16
(dp2141
g18
Nsg19
g48
sg21
I16
ssg19
g22
sg21
I362
sg23
g1906
sg18
(dp2142
g18
(dp2143
g236
F1
sg1911
g1912
sg1913
I12
sg191
F0
sg1914
F0
sg1915
I1
sg1916
g1917
sg1918
I0
sg155
I0
sg1919
F1.1000000000000001
sg802
(dp2144
g18
Nsg19
g48
sg21
I36
ssg1921
I1
sg1922
(dp2145
g18
S'H4sIAIvzH04C/2tgSs4rzS2o1EvOL0rVyy3NKclMLCpKrOSKL0pNzs8rLikqTS7hKmSEqOLKS4HI\nFjJ5M7SGMia1BxUya3gzejO1QhWklFQWpHIVsoQyZZp4M3gzAhWwangzhzLa+Pn5ef0HAjDhzVCS\n1BnKwcjAwADiliTpAQCk2G9tiQAAAA==\n'
p2146
sg19
g146
sg21
I364
ssg137
I0
sg1925
I1
sg1926
I0
sg1927
g1928
sg149
I0
sg1929
I1
ssg19
g78
sg21
I363
sssg1930
S''
sg1931
S'point_scalars'
p2147
sg1933
I01
sg1934
(dp2148
g18
S'H4sIAIvzH04C/2tgSs4rzS2o1EvOL0rVyy3NKclMLCpKrOSKL0pNzs8rLikqTS7hKmSEqOLKS4HI\nFjJ5M7SGMia1BxUya3gzejO1QhWklFQWpHIVsoQypVl4M3gzAhWwangzhzLa+Pn5ef0HAjDhzVCS\n1BkqwMDAcEAhYpM9kH6QsFjOoSRJDwAML/RykQAAAA==\n'
p2149
sg19
g146
sg21
I365
ssg1937
(dp2150
g2
(lp2151
((g4
g5
tI-1
tp2152
a((g7
g5
tI-1
tp2153
a((g101
g102
tI-1
tp2154
a((g104
g105
tI-1
tp2155
a((g107
g108
tI-1
tp2156
a((g1945
g1946
tI-1
tp2157
a((g1948
g1949
tI-1
tp2158
asg15
g1948
sg16
(dp2159
g18
Nsg19
g48
sg21
I16
ssg19
g22
sg21
I366
sg23
g1949
sg18
(dp2160
g18
(dp2161
g1954
I2
sg188
g1955
sg1956
(dp2162
g18
S'H4sIAIvzH04C/2tgSs4rzS2o1EvOL0rVyy3NKclMLCpKrOSKL0pNzs8rLikqTS7hKmSEqOLKS4HI\nFjJ5M7SGMia1BxUya3gzejO1QhWklFQWpHIVsoQypVl4M3gzAhWwangzhzLa+Pn5ef0HAjDhzVCS\n1BkqwAAGH+xhdEmSHgBnOGdykQAAAA==\n'
p2163
sg19
g146
sg21
I368
ssg1959
(dp2164
g18
S'H4sIAIvzH04C/2tgSs4rzS2o1EvOL0rVyy3NKclMLCpKrOSKL0pNzs8rLikqTS7hKmSEqOLKS4HI\nFjJ5M7SGMia1BxUya3gzejO1QhWklFQWpHIVsoQypVl4M3gzAhWwangzhzLa+Pn5ef0HAjDhzVCS\n1BkqwMDAcEAhYpM9kH6QsFjOoSRJDwAML/RykQAAAA==\n'
p2165
sg19
g146
sg21
I370
ssg1962
(dp2166
g18
S'H4sIAIvzH04C/2tgSs4rzS2o1EvOL0rVyy3NKclMLCpKrOSKL0pNzs8rLikqTS7hKmSEqOLKS4HI\nFjJ5M7SGMia1BxUya3gzejO1QhWklFQWpHIVsoQypVl4M3gzAhWwangzhzLa+Pn5ef0HAjDhzVCS\n1Bkq4H2C3XZ26FN7BigoSdIDAObNAnCRAAAA\n'
p2167
sg19
g146
sg21
I369
ssg1965
I256
sg1966
g1967
sg155
I0
sg1968
I256
sg1969
(dp2168
g18
S'H4sIAIvzH04C/2tgSs4rzS2o1EvOL0rVyy3NKclMLCpKrOSKL0pNzs8rLikqTS7hKmSEqOLKS4HI\nFjJ5M7SGMia1BxUya3gzejO1QhWklFQWpHIVsoQypVl4M3gzAhWwangzhzLa+Pn5ef0HAjDhzVCS\n1BkqwAAGH+xhdEmSHgBnOGdykQAAAA==\n'
p2169
sg19
g146
sg21
I371
ssg1972
(dp2170
g18
S'H4sIAIvzH04C/2tgSs4rzS2o1EvOL0rVyy3NKclMLCpKrOSKL0pNzs8rLikqTS7hKmSEqOLKS4HI\nFjJ5M7SGMia1BxUya3gzejO1QhWklFQWpHIVsoQypVl4M3gzAhWwangzhzLa+Pn5ef0HAjDhzVCS\n1BkqwMDAcEAhYpM9kH6QsFjOoSRJDwAML/RykQAAAA==\n'
p2171
sg19
g146
sg21
I372
ssg1975
I0
sg1976
(dp2172
g18
S'H4sIAIvzH04C/2tgSs4rzS2o1EvOL0rVyy3NKclMLCpKrOSKL0pNzs8rLikqTS7hKmSEqOLKS4HI\nFjJ5M7SGMia1BxUya3gzejO1QhWklFQWpHIVsoQypVl4M3gzAhWwangzhzLa+Pn5ef0HAjDhzVCS\n1BkqwAAGH+xhdEmSHgBnOGdykQAAAA==\n'
p2173
sg19
g146
sg21
I373
ssg137
I0
sg1979
F1
sg1980
g1981
sg149
I0
ssg19
g78
sg21
I367
sssg1982
(dp2174
g2
(lp2175
((g4
g5
tI-1
tp2176
a((g7
g5
tI-1
tp2177
a((g101
g102
tI-1
tp2178
a((g104
g105
tI-1
tp2179
a((g107
g108
tI-1
tp2180
a((g1905
g1906
tI-1
tp2181
asg15
g1905
sg16
(dp2182
g18
Nsg19
g48
sg21
I16
ssg19
g22
sg21
I383
sg23
g1906
sg18
(dp2183
g18
(dp2184
g236
F1
sg1911
g1912
sg1913
I12
sg191
F0
sg1914
F0
sg1915
I1
sg1916
g1917
sg1918
I0
sg155
I0
sg1919
F1.1000000000000001
sg802
(dp2185
g18
Nsg19
g48
sg21
I36
ssg1921
I1
sg1922
(dp2186
g18
S'H4sIAIvzH04C/2tgSs4rzS2o1EvOL0rVyy3NKclMLCpKrOSKL0pNzs8rLikqTS7hKmSEqOLKS4HI\nFjJ5M7SGMia1BxUya3gzejO1QhWklFQWpHIVsoQyZZp4M3gzAhWwangzhzLa+Pn5ef0HAjDhzVCS\n1BnKwcjAwADiliTpAQCk2G9tiQAAAA==\n'
p2187
sg19
g146
sg21
I385
ssg137
I0
sg1925
I1
sg1926
I0
sg1927
g1928
sg149
I0
sg1929
I1
ssg19
g78
sg21
I384
sssg1968
I256
sg1997
(dp2188
g18
S'H4sIAIvzH04C/2tgSs4rzS2o1EvOL0rVyy3NKclMLCpKrOSKL0pNzs8rLikqTS7hKmSEqOLKS4HI\nFjJ5M7SGMia1BxUya3gzejO1QhWklFQWpHIVsoQypVl4M3gzAhWwangzhzLa+Pn5ef0HAjDhzVCS\n1BkqwIACPtiXJOkBAIHIRA6RAAAA\n'
p2189
sg19
g146
sg21
I376
ssg206
Nsg2000
I00
sg255
S''
sg2001
(dp2190
g2
(lp2191
((g4
g5
tI-1
tp2192
a((g7
g5
tI-1
tp2193
a((g101
g102
tI-1
tp2194
a((g104
g105
tI-1
tp2195
a((g107
g108
tI-1
tp2196
a((g174
g175
tI-1
tp2197
a((g2010
g2011
tI-1
tp2198
a((g2013
g2014
tI-1
tp2199
a((g2016
g2017
tI-1
tp2200
asg15
g2016
sg16
(dp2201
g18
Nsg19
g48
sg21
I16
ssg19
g22
sg21
I377
sg23
g2017
sg18
(dp2202
g18
(dp2203
g191
I1
sg2022
I0
sg194
I1
sg196
I1
sg2023
g2024
sg198
I1
sg2025
I2
sg2026
I0
sg2027
I0
sg2028
(dp2204
g18
S'H4sIAIvzH04C/2tgSs4rzS2o1EvOL0rVyy3NKclMLCpKrOSKL0pNzs8rLikqTS7hKmSEqOLKS4HI\nFjJ5M7SGMia1BxUya3gzejO1QhWklFQWpHIVsoQypVl4M3gzAhWwangzhzLa+Pn5ef0HAjDhzVCS\n1BkqcPirRkz/oaP2s2aCwEv7kiQ9AC+e0nyRAAAA\n'
p2205
sg19
g146
sg21
I380
ssg2031
I0
sg2032
(dp2206
g18
S'H4sIAIvzH04C/2tgSs4rzS2o1EvOL0rVyy3NKclMLCpKrOSKL0pNzs8rLikqTS7hKmSEqOLKS4HI\nFjJ5M7SGMia1BxUya3gzejO1QhWklFQWpHIVsoQyZZp4M3gzAhWwangzhzLa+Pn5ef0HAjDhzVCS\n1BnKsaCNkQGES5L0ALP9TXGJAAAA\n'
p2207
sg19
g146
sg21
I382
ssg202
I1
sg512
I3
sg2035
(dp2208
g18
S'H4sIAIvzH04C/2tgSs4rzS2o1EvOL0rVyy3NKclMLCpKrOSKL0pNzs8rLikqTS7hKmSEqOLKS4HI\nFjJ5M7SGMia1BxUya3gzejO1QhWklFQWpHIVsoQyZZp4M3gzAhWwangzhzLa+Pn5ef0HAjDhzVCS\n1BnKwcjAwADCJUl6AJHzi6mJAAAA\n'
p2209
sg19
g146
sg21
I379
ssg195
I1
sg197
I1
sg149
I0
sg2038
I0
sg2039
F0.5
sg2040
I0
sg155
I0
sg137
I0
sg199
(dp2210
g18
S'H4sIAIvzH04C/2tgSs4rzS2o1EvOL0rVyy3NKclMLCpKrOSKL0pNzs8rLikqTS7hKmSEqOLKS4HI\nFjJ5M7SGMia1BxUya3gzejO1QhWklFQWpHIVsoQypVl4M3gzAhWwangzhzLa+Pn5ef0HAjDhzVCS\n1BkqYMt1fXGB7Sv7WTNBYKd9SZIeADd4AQGRAAAA\n'
p2211
sg19
g146
sg21
I381
ssg2043
F0.01
ssg19
g78
sg21
I378
sssg2044
(dp2212
g2
(lp2213
((g4
g5
tI-1
tp2214
a((g7
g5
tI-1
tp2215
a((g101
g102
tI-1
tp2216
a((g104
g105
tI-1
tp2217
a((g107
g108
tI-1
tp2218
a((g582
g583
tI-1
tp2219
a((g2053
g2054
tI-1
tp2220
a((g2056
g2057
tI-1
tp2221
a((g2059
g2060
tI-1
tp2222
asg15
g2059
sg16
(dp2223
g18
Nsg19
g48
sg21
I16
ssg19
g22
sg21
I374
sg23
g2060
sg18
(dp2224
g18
(dp2225
g2065
I1
sg591
S'i'
sg2066
I1
sg149
I0
sg137
I0
sg592
I0
sg595
I0
sg155
I0
sg2067
I1
sg594
F0.5
sg2068
I1
sg2069
I1
sg2070
I1
sg596
I0
sg2071
I1
sg2072
I0
sg2073
I0
sg597
I0
sg2074
I1
ssg19
g78
sg21
I375
sssg2075
I00
sg1926
I00
sg2076
g2077
sg2078
I01
sg166
S''
sg2079
I8
sg2080
(dp2226
g18
Nsg19
g48
sg21
I365
ssg2082
S'point_scalars'
p2227
sg204
S''
sg2084
I01
sg2085
(dp2228
g2
(lp2229
((g4
g5
tI-1
tp2230
a((g7
g5
tI-1
tp2231
a((g101
g102
tI-1
tp2232
a((g104
g105
tI-1
tp2233
a((g107
g108
tI-1
tp2234
a((g174
g175
tI-1
tp2235
a((g2094
g2095
tI-1
tp2236
a((g2097
g2098
tI-1
tp2237
asg15
g2097
sg16
(dp2238
g18
Nsg19
g48
sg21
I16
ssg19
g22
sg21
I386
sg23
g2098
sg18
(dp2239
g18
(dp2240
g191
g2103
sg194
I1
sg2104
F0.17000000000000001
sg198
I1
sg2105
I0
sg2106
S'point_scalars'
p2241
sg2108
S'%-#6.3g'
p2242
sg2110
F0.80000000000000004
sg2111
F10
sg2112
g2113
sg202
I1
sg2114
I0
sg195
I1
sg197
I1
sg149
I0
sg2115
I256
sg2116
I1
sg196
I1
sg2079
I8
sg155
I0
sg2028
(dp2243
g18
S'H4sIAIvzH04C/2tgSs4rzS2o1EvOL0rVyy3NKclMLCpKrOSKL0pNzs8rLikqTS7hKmSEqOLKS4HI\nFjJ5M7SGMia1BxUya3gzejO1QhWklFQWpHIVsoQypVl4M3gzAhWwangzhzLa+Pn5ef0HAjDhzVCS\n1BkqMGsmCLy0P/xVI6b/0FH7kiQ9AGpIg++RAAAA\n'
p2244
sg19
g146
sg21
I389
ssg2119
I0
sg137
I0
sg199
(dp2245
g18
S'H4sIAIvzH04C/2tgSs4rzS2o1EvOL0rVyy3NKclMLCpKrOSKL0pNzs8rLikqTS7hKmSEqOLKS4HI\nFjJ5M7SGMia1BxUya3gzejO1QhWklFQWpHIVsoQypVl4M3gzAhWwangzhzLa+Pn5ef0HAjDhzVCS\n1BkqMGsmCOy0rxZZ5/6wqsW+JEkPAHMFfKeRAAAA\n'
p2246
sg19
g146
sg21
I388
sssg19
g78
sg21
I387
ssssg19
g78
sg21
I361
sssg255
S' colors and legends'
p2247
sg1048
(dp2248
g18
(lp2249
(dp2250
g18
Nsg19
g48
sg21
I3
sasg19
g55
sg21
I359
ssg350
S'modulemanager.ico'
p2251
ssg19
g78
sg21
I328
ssa(dp2252
g2
(lp2253
((g4
g5
tI-1
tp2254
a((g30
g5
tI-1
tp2255
a((g32
g33
tI-1
tp2256
a((g35
g36
tI0
tp2257
a((g38
g39
tI0
tp2258
a((g1545
g1546
tI0
tp2259
a((S'Filter'
p2260
S'enthought.mayavi.core.filter'
p2261
tI0
tp2262
a((S'TransformData'
p2263
S'enthought.mayavi.filters.transform_data'
p2264
tI0
tp2265
asg15
g2263
sg16
(dp2266
g18
Nsg19
g48
sg21
I1
ssg19
g22
sg21
I390
sg23
g2264
sg18
(dp2267
g18
(dp2268
S'update_mode'
p2269
S'semi-interactive'
p2270
sS'widget'
p2271
(dp2272
g2
(lp2273
((g4
g5
tI-1
tp2274
a((g7
g5
tI-1
tp2275
a((g101
g102
tI-1
tp2276
a((g104
g105
tI-1
tp2277
a((g107
g108
tI-1
tp2278
a((g582
g583
tI-1
tp2279
a((S'ThreeDWidget'
p2280
S'tvtk_classes.three_d_widget'
p2281
tI-1
tp2282
a((S'BoxWidget'
p2283
S'tvtk_classes.box_widget'
p2284
tI-1
tp2285
asg15
g2283
sg16
(dp2286
g18
Nsg19
g48
sg21
I16
ssg19
g22
sg21
I392
sg23
g2284
sg18
(dp2287
g18
(dp2288
S'translation_enabled'
p2289
I1
sg2043
F0.01
sS'inside_out'
p2290
I0
sS'outline_face_wires_'
p2291
I0
sS'scaling_enabled_'
p2292
I0
sS'outline_face_wires'
p2293
I0
sg597
I1
sS'rotation_enabled'
p2294
I0
sS'outline_cursor_wires'
p2295
I1
sg594
F0.5
sS'scaling_enabled'
p2296
I0
sg591
S'i'
sS'translation_enabled_'
p2297
I1
sg149
I0
sg595
I1
sg596
I1
sg2039
F1.1000000000000001
sS'rotation_enabled_'
p2298
I0
sS'inside_out_'
p2299
I0
sg592
I1
sg155
I0
sg137
I0
sS'outline_cursor_wires_'
p2300
I1
ssg19
g78
sg21
I393
sssS'matrix'
p2301
S"centhought.traits.traits\n__newobj__\np1\n(ctvtk_classes.matrix4x4\nMatrix4x4\np2\ntRp3\n(dp4\nS'global_warning_display_'\np5\nI0\nsS'elements'\np6\n(lp7\nF1\naF0\naF0\naF0\naF0\naF1\naF0\naF0\naF0\naF0\naF0.99999999999999989\naF4.2912721986976265e-16\naF0\naF0\naF0\naF1\nasS'debug'\np8\nI0\nsS'debug_'\np9\nI0\nsb."
p2302
sg1851
(dp2303
g2
(lp2304
((g4
g5
tI-1
tp2305
a((g62
g63
tI-1
tp2306
asg15
g62
sg16
(dp2307
g18
Nsg19
g48
sg21
I1
ssg19
g22
sg21
I487
sg23
g63
sg18
(dp2308
g18
(dp2309
g68
(dp2310
g18
(lp2311
g265
asg19
g55
sg21
I489
ssg71
(dp2312
g18
(lp2313
g1863
asg19
g55
sg21
I490
ssg75
(dp2314
g18
(lp2315
g265
asg19
g55
sg21
I491
sssg19
g78
sg21
I488
sssS'_transform'
p2316
(dp2317
g2
(lp2318
((g4
g5
tI-1
tp2319
a((g7
g5
tI-1
tp2320
a((g101
g102
tI-1
tp2321
a((g104
g105
tI-1
tp2322
a((g107
g108
tI-1
tp2323
a((S'AbstractTransform'
p2324
S'tvtk_classes.abstract_transform'
p2325
tI-1
tp2326
a((S'HomogeneousTransform'
p2327
S'tvtk_classes.homogeneous_transform'
p2328
tI-1
tp2329
a((S'LinearTransform'
p2330
S'tvtk_classes.linear_transform'
p2331
tI-1
tp2332
a((S'Transform'
p2333
S'tvtk_classes.transform'
p2334
tI-1
tp2335
asg15
g2333
sg16
(dp2336
g18
Nsg19
g48
sg21
I16
ssg19
g22
sg21
I483
sg23
g2334
sg18
(dp2337
g18
(dp2338
g137
I0
sg149
I0
sg155
I0
ssg19
g78
sg21
I484
sssg204
S''
sg56
S'TransformData'
p2339
sS'filter'
p2340
(dp2341
g2
(lp2342
((g4
g5
tI-1
tp2343
a((g7
g5
tI-1
tp2344
a((g101
g102
tI-1
tp2345
a((g104
g105
tI-1
tp2346
a((g107
g108
tI-1
tp2347
a((g110
g111
tI-1
tp2348
a((S'PointSetAlgorithm'
p2349
S'tvtk_classes.point_set_algorithm'
p2350
tI-1
tp2351
a((S'TransformFilter'
p2352
S'tvtk_classes.transform_filter'
p2353
tI-1
tp2354
asg15
g2352
sg16
(dp2355
g18
Nsg19
g48
sg21
I16
ssg19
g22
sg21
I485
sg23
g2353
sg18
(dp2356
g18
(dp2357
g153
I0
sg147
Nsg158
I0
sg155
I0
sg149
I0
sg140
I0
sg141
I0
sg137
I0
sg142
F1
ssg19
g78
sg21
I486
sssg203
I01
sS'update_mode_'
p2358
S'EndInteractionEvent'
p2359
sg206
Nsg19
S' filter'
p2360
sg1048
(dp2361
g18
(lp2362
(dp2363
g2
(lp2364
((g4
g5
tI-1
tp2365
a((g30
g5
tI-1
tp2366
a((g32
g33
tI-1
tp2367
a((g35
g36
tI0
tp2368
a((g1875
g1876
tI0
tp2369
asg15
g1875
sg16
(dp2370
g18
Nsg19
g48
sg21
I1
ssg19
g22
sg21
I395
sg23
g1876
sg18
(dp2371
g18
(dp2372
g56
g1881
sg1882
g1883
sg1884
(dp2373
g2
(lp2374
((g4
g5
tI-1
tp2375
a((g30
g5
tI-1
tp2376
a((g32
g33
tI-1
tp2377
a((g35
g36
tI0
tp2378
a((g1891
g1892
tI0
tp2379
asg15
g1891
sg16
(dp2380
g18
Nsg19
g48
sg21
I1
ssg19
g22
sg21
I397
sg23
g1892
sg18
(dp2381
g18
(dp2382
g1897
(dp2383
g2
(lp2384
((g4
g5
tI-1
tp2385
a((g7
g5
tI-1
tp2386
a((g101
g102
tI-1
tp2387
a((g104
g105
tI-1
tp2388
a((g107
g108
tI-1
tp2389
a((g1905
g1906
tI-1
tp2390
asg15
g1905
sg16
(dp2391
g18
Nsg19
g48
sg21
I16
ssg19
g22
sg21
I399
sg23
g1906
sg18
(dp2392
g18
(dp2393
g236
F1
sg1911
g1912
sg1913
I12
sg191
F0
sg1914
F0
sg1915
I1
sg1916
g1917
sg1918
I0
sg155
I0
sg1919
F1.1000000000000001
sg802
(dp2394
g18
Nsg19
g48
sg21
I36
ssg1921
I1
sg1922
(dp2395
g18
S'H4sIAIvzH04C/2tgSs4rzS2o1EvOL0rVyy3NKclMLCpKrOSKL0pNzs8rLikqTS7hKmSEqOLKS4HI\nFjJ5M7SGMia1BxUya3gzejO1QhWklFQWpHIVsoQyZZp4M3gzAhWwangzhzLa+Pn5ef0HAjDhzVCS\n1BnKwcjAwADiliTpAQCk2G9tiQAAAA==\n'
p2396
sg19
g146
sg21
I401
ssg137
I0
sg1925
I1
sg1926
I0
sg1927
g1928
sg149
I0
sg1929
I1
ssg19
g78
sg21
I400
sssg1930
S''
sg1931
g1932
sg1933
I01
sg1934
(dp2397
g18
S'H4sIAIvzH04C/2tgSs4rzS2o1EvOL0rVyy3NKclMLCpKrOSKL0pNzs8rLikqTS7hKmSEqOLKS4HI\nFjJ5M7SGMia1BxUya3gzejO1QhWklFQWpHIVsoQypVl4M3gzAhWwangzhzLa+Pn5ef0HAjDhzVCS\n1BkqwIACPtiXJOkBAIHIRA6RAAAA\n'
p2398
sg19
g146
sg21
I402
ssg1937
(dp2399
g2
(lp2400
((g4
g5
tI-1
tp2401
a((g7
g5
tI-1
tp2402
a((g101
g102
tI-1
tp2403
a((g104
g105
tI-1
tp2404
a((g107
g108
tI-1
tp2405
a((g1945
g1946
tI-1
tp2406
a((g1948
g1949
tI-1
tp2407
asg15
g1948
sg16
(dp2408
g18
Nsg19
g48
sg21
I16
ssg19
g22
sg21
I403
sg23
g1949
sg18
(dp2409
g18
(dp2410
g1954
I2
sg188
g1955
sg1956
(dp2411
g18
S'H4sIAIvzH04C/2tgSs4rzS2o1EvOL0rVyy3NKclMLCpKrOSKL0pNzs8rLikqTS7hKmSEqOLKS4HI\nFjJ5M7SGMia1BxUya3gzejO1QhWklFQWpHIVsoQypVl4M3gzAhWwangzhzLa+Pn5ef0HAjDhzVCS\n1BkqwAAGH+xhdEmSHgBnOGdykQAAAA==\n'
p2412
sg19
g146
sg21
I405
ssg1959
(dp2413
g18
S'H4sIAIvzH04C/2tgSs4rzS2o1EvOL0rVyy3NKclMLCpKrOSKL0pNzs8rLikqTS7hKmSEqOLKS4HI\nFjJ5M7SGMia1BxUya3gzejO1QhWklFQWpHIVsoQypVl4M3gzAhWwangzhzLa+Pn5ef0HAjDhzVCS\n1BkqwIACPtiXJOkBAIHIRA6RAAAA\n'
p2414
sg19
g146
sg21
I407
ssg1962
(dp2415
g18
S'H4sIAIvzH04C/2tgSs4rzS2o1EvOL0rVyy3NKclMLCpKrOSKL0pNzs8rLikqTS7hKmSEqOLKS4HI\nFjJ5M7SGMia1BxUya3gzejO1QhWklFQWpHIVsoQypVl4M3gzAhWwangzhzLa+Pn5ef0HAjDhzVCS\n1Bkq4H2C3XZ26FN7BigoSdIDAObNAnCRAAAA\n'
p2416
sg19
g146
sg21
I406
ssg1965
I256
sg1966
g1967
sg155
I0
sg1968
I256
sg1969
(dp2417
g18
S'H4sIAIvzH04C/2tgSs4rzS2o1EvOL0rVyy3NKclMLCpKrOSKL0pNzs8rLikqTS7hKmSEqOLKS4HI\nFjJ5M7SGMia1BxUya3gzejO1QhWklFQWpHIVsoQypVl4M3gzAhWwangzhzLa+Pn5ef0HAjDhzVCS\n1BkqwAAGH+xhdEmSHgBnOGdykQAAAA==\n'
p2418
sg19
g146
sg21
I408
ssg1972
(dp2419
g18
S'H4sIAIvzH04C/2tgSs4rzS2o1EvOL0rVyy3NKclMLCpKrOSKL0pNzs8rLikqTS7hKmSEqOLKS4HI\nFjJ5M7SGMia1BxUya3gzejO1QhWklFQWpHIVsoQypVl4M3gzAhWwangzhzLa+Pn5ef0HAjDhzVCS\n1BkqwIACPtiXJOkBAIHIRA6RAAAA\n'
p2420
sg19
g146
sg21
I409
ssg1975
I0
sg1976
(dp2421
g18
S'H4sIAIvzH04C/2tgSs4rzS2o1EvOL0rVyy3NKclMLCpKrOSKL0pNzs8rLikqTS7hKmSEqOLKS4HI\nFjJ5M7SGMia1BxUya3gzejO1QhWklFQWpHIVsoQypVl4M3gzAhWwangzhzLa+Pn5ef0HAjDhzVCS\n1BkqwAAGH+xhdEmSHgBnOGdykQAAAA==\n'
p2422
sg19
g146
sg21
I410
ssg137
I0
sg1979
F1
sg1980
g1981
sg149
I0
ssg19
g78
sg21
I404
sssg1982
(dp2423
g2
(lp2424
((g4
g5
tI-1
tp2425
a((g7
g5
tI-1
tp2426
a((g101
g102
tI-1
tp2427
a((g104
g105
tI-1
tp2428
a((g107
g108
tI-1
tp2429
a((g1905
g1906
tI-1
tp2430
asg15
g1905
sg16
(dp2431
g18
Nsg19
g48
sg21
I16
ssg19
g22
sg21
I420
sg23
g1906
sg18
(dp2432
g18
(dp2433
g236
F1
sg1911
g1912
sg1913
I12
sg191
F0
sg1914
F0
sg1915
I1
sg1916
g1917
sg1918
I0
sg155
I0
sg1919
F1.1000000000000001
sg802
(dp2434
g18
Nsg19
g48
sg21
I36
ssg1921
I1
sg1922
(dp2435
g18
S'H4sIAIvzH04C/2tgSs4rzS2o1EvOL0rVyy3NKclMLCpKrOSKL0pNzs8rLikqTS7hKmSEqOLKS4HI\nFjJ5M7SGMia1BxUya3gzejO1QhWklFQWpHIVsoQyZZp4M3gzAhWwangzhzLa+Pn5ef0HAjDhzVCS\n1BnKwcjAwADiliTpAQCk2G9tiQAAAA==\n'
p2436
sg19
g146
sg21
I422
ssg137
I0
sg1925
I1
sg1926
I0
sg1927
g1928
sg149
I0
sg1929
I1
ssg19
g78
sg21
I421
sssg1968
I256
sg1997
(dp2437
g18
S'H4sIAIvzH04C/2tgSs4rzS2o1EvOL0rVyy3NKclMLCpKrOSKL0pNzs8rLikqTS7hKmSEqOLKS4HI\nFjJ5M7SGMia1BxUya3gzejO1QhWklFQWpHIVsoQypVl4M3gzAhWwangzhzLa+Pn5ef0HAjDhzVCS\n1BkqwIACPtiXJOkBAIHIRA6RAAAA\n'
p2438
sg19
g146
sg21
I413
ssg206
Nsg2000
I00
sg255
S''
sg2001
(dp2439
g2
(lp2440
((g4
g5
tI-1
tp2441
a((g7
g5
tI-1
tp2442
a((g101
g102
tI-1
tp2443
a((g104
g105
tI-1
tp2444
a((g107
g108
tI-1
tp2445
a((g174
g175
tI-1
tp2446
a((g2010
g2011
tI-1
tp2447
a((g2013
g2014
tI-1
tp2448
a((g2016
g2017
tI-1
tp2449
asg15
g2016
sg16
(dp2450
g18
Nsg19
g48
sg21
I16
ssg19
g22
sg21
I414
sg23
g2017
sg18
(dp2451
g18
(dp2452
g191
I1
sg2022
I0
sg194
I1
sg196
I1
sg2023
g2024
sg198
I1
sg2025
I2
sg2026
I0
sg2027
I0
sg2028
(dp2453
g18
S'H4sIAIvzH04C/2tgSs4rzS2o1EvOL0rVyy3NKclMLCpKrOSKL0pNzs8rLikqTS7hKmSEqOLKS4HI\nFjJ5M7SGMia1BxUya3gzejO1QhWklFQWpHIVsoQypVl4M3gzAhWwangzhzLa+Pn5ef0HAjDhzVCS\n1BkqcPirRkz/oaP2s2aCwEv7kiQ9AC+e0nyRAAAA\n'
p2454
sg19
g146
sg21
I417
ssg2031
I0
sg2032
(dp2455
g18
S'H4sIAIvzH04C/2tgSs4rzS2o1EvOL0rVyy3NKclMLCpKrOSKL0pNzs8rLikqTS7hKmSEqOLKS4HI\nFjJ5M7SGMia1BxUya3gzejO1QhWklFQWpHIVsoQyZZp4M3gzAhWwangzhzLa+Pn5ef0HAjDhzVCS\n1BnKsaCNkQGES5L0ALP9TXGJAAAA\n'
p2456
sg19
g146
sg21
I419
ssg202
I1
sg512
I3
sg2035
(dp2457
g18
S'H4sIAIvzH04C/2tgSs4rzS2o1EvOL0rVyy3NKclMLCpKrOSKL0pNzs8rLikqTS7hKmSEqOLKS4HI\nFjJ5M7SGMia1BxUya3gzejO1QhWklFQWpHIVsoQyZZp4M3gzAhWwangzhzLa+Pn5ef0HAjDhzVCS\n1BnKwcjAwADCJUl6AJHzi6mJAAAA\n'
p2458
sg19
g146
sg21
I416
ssg195
I1
sg197
I1
sg149
I0
sg2038
I0
sg2039
F0.5
sg2040
I0
sg155
I0
sg137
I0
sg199
(dp2459
g18
S'H4sIAIvzH04C/2tgSs4rzS2o1EvOL0rVyy3NKclMLCpKrOSKL0pNzs8rLikqTS7hKmSEqOLKS4HI\nFjJ5M7SGMia1BxUya3gzejO1QhWklFQWpHIVsoQypVl4M3gzAhWwangzhzLa+Pn5ef0HAjDhzVCS\n1BkqYMt1fXGB7Sv7WTNBYKd9SZIeADd4AQGRAAAA\n'
p2460
sg19
g146
sg21
I418
ssg2043
F0.01
ssg19
g78
sg21
I415
sssg2044
(dp2461
g2
(lp2462
((g4
g5
tI-1
tp2463
a((g7
g5
tI-1
tp2464
a((g101
g102
tI-1
tp2465
a((g104
g105
tI-1
tp2466
a((g107
g108
tI-1
tp2467
a((g582
g583
tI-1
tp2468
a((g2053
g2054
tI-1
tp2469
a((g2056
g2057
tI-1
tp2470
a((g2059
g2060
tI-1
tp2471
asg15
g2059
sg16
(dp2472
g18
Nsg19
g48
sg21
I16
ssg19
g22
sg21
I411
sg23
g2060
sg18
(dp2473
g18
(dp2474
g2065
I1
sg591
S'i'
sg2066
I1
sg149
I0
sg137
I0
sg592
I0
sg595
I0
sg155
I0
sg2067
I1
sg594
F0.5
sg2068
I1
sg2069
I1
sg2070
I1
sg596
I0
sg2071
I1
sg2072
I0
sg2073
I0
sg597
I0
sg2074
I1
ssg19
g78
sg21
I412
sssg2075
I00
sg1926
I00
sg2076
g2077
sg2078
I01
sg166
S''
sg2079
I8
sg2080
(dp2475
g18
Nsg19
g48
sg21
I402
ssg2082
g2083
sg204
S''
sg2084
I01
sg2085
(dp2476
g2
(lp2477
((g4
g5
tI-1
tp2478
a((g7
g5
tI-1
tp2479
a((g101
g102
tI-1
tp2480
a((g104
g105
tI-1
tp2481
a((g107
g108
tI-1
tp2482
a((g174
g175
tI-1
tp2483
a((g2094
g2095
tI-1
tp2484
a((g2097
g2098
tI-1
tp2485
asg15
g2097
sg16
(dp2486
g18
Nsg19
g48
sg21
I16
ssg19
g22
sg21
I423
sg23
g2098
sg18
(dp2487
g18
(dp2488
g191
g2103
sg194
I1
sg2104
F0.17000000000000001
sg198
I1
sg2105
I0
sg2106
S'No vectors'
p2489
sg2108
S'%-#6.3g'
p2490
sg2110
F0.80000000000000004
sg2111
F10
sg2112
g2113
sg202
I1
sg2114
I0
sg195
I1
sg197
I1
sg149
I0
sg2115
I256
sg2116
I1
sg196
I1
sg2079
I8
sg155
I0
sg2028
(dp2491
g18
S'H4sIAIvzH04C/2tgSs4rzS2o1EvOL0rVyy3NKclMLCpKrOSKL0pNzs8rLikqTS7hKmSEqOLKS4HI\nFjJ5M7SGMia1BxUya3gzejO1QhWklFQWpHIVsoQypVl4M3gzAhWwangzhzLa+Pn5ef0HAjDhzVCS\n1BkqMGsmCLy0P/xVI6b/0FH7kiQ9AGpIg++RAAAA\n'
p2492
sg19
g146
sg21
I426
ssg2119
I0
sg137
I0
sg199
(dp2493
g18
S'H4sIAIvzH04C/2tgSs4rzS2o1EvOL0rVyy3NKclMLCpKrOSKL0pNzs8rLikqTS7hKmSEqOLKS4HI\nFjJ5M7SGMia1BxUya3gzejO1QhWklFQWpHIVsoQypVl4M3gzAhWwangzhzLa+Pn5ef0HAjDhzVCS\n1BkqMGsmCOy0rxZZ5/6wqsW+JEkPAHMFfKeRAAAA\n'
p2494
sg19
g146
sg21
I425
sssg19
g78
sg21
I424
ssssg19
g78
sg21
I398
sssg204
S''
sg2122
(dp2495
g2
(lp2496
((g4
g5
tI-1
tp2497
a((g30
g5
tI-1
tp2498
a((g32
g33
tI-1
tp2499
a((g35
g36
tI0
tp2500
a((g1891
g1892
tI0
tp2501
asg15
g1891
sg16
(dp2502
g18
Nsg19
g48
sg21
I1
ssg19
g22
sg21
I453
sg23
g1892
sg18
(dp2503
g18
(dp2504
g1897
(dp2505
g2
(lp2506
((g4
g5
tI-1
tp2507
a((g7
g5
tI-1
tp2508
a((g101
g102
tI-1
tp2509
a((g104
g105
tI-1
tp2510
a((g107
g108
tI-1
tp2511
a((g1905
g1906
tI-1
tp2512
asg15
g1905
sg16
(dp2513
g18
Nsg19
g48
sg21
I16
ssg19
g22
sg21
I455
sg23
g1906
sg18
(dp2514
g18
(dp2515
g236
F1
sg1911
g1912
sg1913
I12
sg191
F0
sg1914
F0
sg1915
I1
sg1916
g1917
sg1918
I0
sg155
I0
sg1919
F1.1000000000000001
sg802
(dp2516
g18
Nsg19
g48
sg21
I36
ssg1921
I1
sg1922
(dp2517
g18
S'H4sIAIvzH04C/2tgSs4rzS2o1EvOL0rVyy3NKclMLCpKrOSKL0pNzs8rLikqTS7hKmSEqOLKS4HI\nFjJ5M7SGMia1BxUya3gzejO1QhWklFQWpHIVsoQyZZp4M3gzAhWwangzhzLa+Pn5ef0HAjDhzVCS\n1BnKwcjAwADiliTpAQCk2G9tiQAAAA==\n'
p2518
sg19
g146
sg21
I457
ssg137
I0
sg1925
I1
sg1926
I0
sg1927
g1928
sg149
I0
sg1929
I1
ssg19
g78
sg21
I456
sssg1930
S''
sg1931
S'point_scalars'
p2519
sg1933
I01
sg1934
(dp2520
g18
S'H4sIAIvzH04C/2tgSs4rzS2o1EvOL0rVyy3NKclMLCpKrOSKL0pNzs8rLikqTS7hKmSEqOLKS4HI\nFjJ5M7SGMia1BxUya3gzejO1QhWklFQWpHIVsoQypVl4M3gzAhWwangzhzLa+Pn5ef0HAjDhzVCS\n1BkqwMDAcEAhYpM9kH6QsFjOoSRJDwAML/RykQAAAA==\n'
p2521
sg19
g146
sg21
I458
ssg1937
(dp2522
g2
(lp2523
((g4
g5
tI-1
tp2524
a((g7
g5
tI-1
tp2525
a((g101
g102
tI-1
tp2526
a((g104
g105
tI-1
tp2527
a((g107
g108
tI-1
tp2528
a((g1945
g1946
tI-1
tp2529
a((g1948
g1949
tI-1
tp2530
asg15
g1948
sg16
(dp2531
g18
Nsg19
g48
sg21
I16
ssg19
g22
sg21
I459
sg23
g1949
sg18
(dp2532
g18
(dp2533
g1954
I2
sg188
g1955
sg1956
(dp2534
g18
S'H4sIAIvzH04C/2tgSs4rzS2o1EvOL0rVyy3NKclMLCpKrOSKL0pNzs8rLikqTS7hKmSEqOLKS4HI\nFjJ5M7SGMia1BxUya3gzejO1QhWklFQWpHIVsoQypVl4M3gzAhWwangzhzLa+Pn5ef0HAjDhzVCS\n1BkqwAAGH+xhdEmSHgBnOGdykQAAAA==\n'
p2535
sg19
g146
sg21
I461
ssg1959
(dp2536
g18
S'H4sIAIvzH04C/2tgSs4rzS2o1EvOL0rVyy3NKclMLCpKrOSKL0pNzs8rLikqTS7hKmSEqOLKS4HI\nFjJ5M7SGMia1BxUya3gzejO1QhWklFQWpHIVsoQypVl4M3gzAhWwangzhzLa+Pn5ef0HAjDhzVCS\n1BkqwMDAcEAhYpM9kH6QsFjOoSRJDwAML/RykQAAAA==\n'
p2537
sg19
g146
sg21
I463
ssg1962
(dp2538
g18
S'H4sIAIvzH04C/2tgSs4rzS2o1EvOL0rVyy3NKclMLCpKrOSKL0pNzs8rLikqTS7hKmSEqOLKS4HI\nFjJ5M7SGMia1BxUya3gzejO1QhWklFQWpHIVsoQypVl4M3gzAhWwangzhzLa+Pn5ef0HAjDhzVCS\n1Bkq4H2C3XZ26FN7BigoSdIDAObNAnCRAAAA\n'
p2539
sg19
g146
sg21
I462
ssg1965
I256
sg1966
g1967
sg155
I0
sg1968
I256
sg1969
(dp2540
g18
S'H4sIAIvzH04C/2tgSs4rzS2o1EvOL0rVyy3NKclMLCpKrOSKL0pNzs8rLikqTS7hKmSEqOLKS4HI\nFjJ5M7SGMia1BxUya3gzejO1QhWklFQWpHIVsoQypVl4M3gzAhWwangzhzLa+Pn5ef0HAjDhzVCS\n1BkqwAAGH+xhdEmSHgBnOGdykQAAAA==\n'
p2541
sg19
g146
sg21
I464
ssg1972
(dp2542
g18
S'H4sIAIvzH04C/2tgSs4rzS2o1EvOL0rVyy3NKclMLCpKrOSKL0pNzs8rLikqTS7hKmSEqOLKS4HI\nFjJ5M7SGMia1BxUya3gzejO1QhWklFQWpHIVsoQypVl4M3gzAhWwangzhzLa+Pn5ef0HAjDhzVCS\n1BkqwMDAcEAhYpM9kH6QsFjOoSRJDwAML/RykQAAAA==\n'
p2543
sg19
g146
sg21
I465
ssg1975
I0
sg1976
(dp2544
g18
S'H4sIAIvzH04C/2tgSs4rzS2o1EvOL0rVyy3NKclMLCpKrOSKL0pNzs8rLikqTS7hKmSEqOLKS4HI\nFjJ5M7SGMia1BxUya3gzejO1QhWklFQWpHIVsoQypVl4M3gzAhWwangzhzLa+Pn5ef0HAjDhzVCS\n1BkqwAAGH+xhdEmSHgBnOGdykQAAAA==\n'
p2545
sg19
g146
sg21
I466
ssg137
I0
sg1979
F0.50449999999999995
sg1980
g1981
sg149
I0
ssg19
g78
sg21
I460
sssg1982
(dp2546
g2
(lp2547
((g4
g5
tI-1
tp2548
a((g7
g5
tI-1
tp2549
a((g101
g102
tI-1
tp2550
a((g104
g105
tI-1
tp2551
a((g107
g108
tI-1
tp2552
a((g1905
g1906
tI-1
tp2553
asg15
g1905
sg16
(dp2554
g18
Nsg19
g48
sg21
I16
ssg19
g22
sg21
I476
sg23
g1906
sg18
(dp2555
g18
(dp2556
g236
F1
sg1911
g1912
sg1913
I12
sg191
F0
sg1914
F0
sg1915
I1
sg1916
g1917
sg1918
I0
sg155
I0
sg1919
F1.1000000000000001
sg802
(dp2557
g18
Nsg19
g48
sg21
I36
ssg1921
I1
sg1922
(dp2558
g18
S'H4sIAIvzH04C/2tgSs4rzS2o1EvOL0rVyy3NKclMLCpKrOSKL0pNzs8rLikqTS7hKmSEqOLKS4HI\nFjJ5M7SGMia1BxUya3gzejO1QhWklFQWpHIVsoQyZZp4M3gzAhWwangzhzLa+Pn5ef0HAjDhzVCS\n1BnKwcjAwADiliTpAQCk2G9tiQAAAA==\n'
p2559
sg19
g146
sg21
I478
ssg137
I0
sg1925
I1
sg1926
I0
sg1927
g1928
sg149
I0
sg1929
I1
ssg19
g78
sg21
I477
sssg1968
I256
sg1997
(dp2560
g18
S'H4sIAIvzH04C/2tgSs4rzS2o1EvOL0rVyy3NKclMLCpKrOSKL0pNzs8rLikqTS7hKmSEqOLKS4HI\nFjJ5M7SGMia1BxUya3gzejO1QhWklFQWpHIVsoQypVl4M3gzAhWwangzhzLa+Pn5ef0HAjDhzVCS\n1BkqwIACPtiXJOkBAIHIRA6RAAAA\n'
p2561
sg19
g146
sg21
I469
ssg206
Nsg2000
I00
sg255
S''
sg2001
(dp2562
g2
(lp2563
((g4
g5
tI-1
tp2564
a((g7
g5
tI-1
tp2565
a((g101
g102
tI-1
tp2566
a((g104
g105
tI-1
tp2567
a((g107
g108
tI-1
tp2568
a((g174
g175
tI-1
tp2569
a((g2010
g2011
tI-1
tp2570
a((g2013
g2014
tI-1
tp2571
a((g2016
g2017
tI-1
tp2572
asg15
g2016
sg16
(dp2573
g18
Nsg19
g48
sg21
I16
ssg19
g22
sg21
I470
sg23
g2017
sg18
(dp2574
g18
(dp2575
g191
I1
sg2022
I0
sg194
I1
sg196
I1
sg2023
g2024
sg198
I1
sg2025
I2
sg2026
I0
sg2027
I0
sg2028
(dp2576
g18
S'H4sIAIvzH04C/2tgSs4rzS2o1EvOL0rVyy3NKclMLCpKrOSKL0pNzs8rLikqTS7hKmSEqOLKS4HI\nFjJ5M7SGMia1BxUya3gzejO1QhWklFQWpHIVsoQypVl4M3gzAhWwangzhzLa+Pn5ef0HAjDhzVCS\n1BkqcPirRkz/oaP2s2aCwEv7kiQ9AC+e0nyRAAAA\n'
p2577
sg19
g146
sg21
I473
ssg2031
I0
sg2032
(dp2578
g18
S'H4sIAIvzH04C/2tgSs4rzS2o1EvOL0rVyy3NKclMLCpKrOSKL0pNzs8rLikqTS7hKmSEqOLKS4HI\nFjJ5M7SGMia1BxUya3gzejO1QhWklFQWpHIVsoQyZZp4M3gzAhWwangzhzLa+Pn5ef0HAjDhzVCS\n1BnKsaCNkQGES5L0ALP9TXGJAAAA\n'
p2579
sg19
g146
sg21
I475
ssg202
I1
sg512
I3
sg2035
(dp2580
g18
S'H4sIAIvzH04C/2tgSs4rzS2o1EvOL0rVyy3NKclMLCpKrOSKL0pNzs8rLikqTS7hKmSEqOLKS4HI\nFjJ5M7SGMia1BxUya3gzejO1QhWklFQWpHIVsoQyZZp4M3gzAhWwangzhzLa+Pn5ef0HAjDhzVCS\n1BnKwcjAwADCJUl6AJHzi6mJAAAA\n'
p2581
sg19
g146
sg21
I472
ssg195
I1
sg197
I1
sg149
I0
sg2038
I0
sg2039
F0.5
sg2040
I0
sg155
I0
sg137
I0
sg199
(dp2582
g18
S'H4sIAIvzH04C/2tgSs4rzS2o1EvOL0rVyy3NKclMLCpKrOSKL0pNzs8rLikqTS7hKmSEqOLKS4HI\nFjJ5M7SGMia1BxUya3gzejO1QhWklFQWpHIVsoQypVl4M3gzAhWwangzhzLa+Pn5ef0HAjDhzVCS\n1BkqYMt1fXGB7Sv7WTNBYKd9SZIeADd4AQGRAAAA\n'
p2583
sg19
g146
sg21
I474
ssg2043
F0.01
ssg19
g78
sg21
I471
sssg2044
(dp2584
g2
(lp2585
((g4
g5
tI-1
tp2586
a((g7
g5
tI-1
tp2587
a((g101
g102
tI-1
tp2588
a((g104
g105
tI-1
tp2589
a((g107
g108
tI-1
tp2590
a((g582
g583
tI-1
tp2591
a((g2053
g2054
tI-1
tp2592
a((g2056
g2057
tI-1
tp2593
a((g2059
g2060
tI-1
tp2594
asg15
g2059
sg16
(dp2595
g18
Nsg19
g48
sg21
I16
ssg19
g22
sg21
I467
sg23
g2060
sg18
(dp2596
g18
(dp2597
g2065
I1
sg591
S'i'
sg2066
I1
sg149
I0
sg137
I0
sg592
I0
sg595
I0
sg155
I0
sg2067
I1
sg594
F0.5
sg2068
I1
sg2069
I1
sg2070
I1
sg596
I0
sg2071
I1
sg2072
I0
sg2073
I0
sg597
I0
sg2074
I1
ssg19
g78
sg21
I468
sssg2075
I00
sg1926
I00
sg2076
g2077
sg2078
I01
sg166
S''
sg2079
I8
sg2080
(dp2598
g18
Nsg19
g48
sg21
I458
ssg2082
S'point_scalars'
p2599
sg204
S''
sg2084
I01
sg2085
(dp2600
g2
(lp2601
((g4
g5
tI-1
tp2602
a((g7
g5
tI-1
tp2603
a((g101
g102
tI-1
tp2604
a((g104
g105
tI-1
tp2605
a((g107
g108
tI-1
tp2606
a((g174
g175
tI-1
tp2607
a((g2094
g2095
tI-1
tp2608
a((g2097
g2098
tI-1
tp2609
asg15
g2097
sg16
(dp2610
g18
Nsg19
g48
sg21
I16
ssg19
g22
sg21
I479
sg23
g2098
sg18
(dp2611
g18
(dp2612
g191
g2103
sg194
I1
sg2104
F0.17000000000000001
sg198
I1
sg2105
I0
sg2106
S'point_scalars'
p2613
sg2108
S'%-#6.3g'
p2614
sg2110
F0.80000000000000004
sg2111
F10
sg2112
g2113
sg202
I1
sg2114
I0
sg195
I1
sg197
I1
sg149
I0
sg2115
I256
sg2116
I1
sg196
I1
sg2079
I8
sg155
I0
sg2028
(dp2615
g18
S'H4sIAIvzH04C/2tgSs4rzS2o1EvOL0rVyy3NKclMLCpKrOSKL0pNzs8rLikqTS7hKmSEqOLKS4HI\nFjJ5M7SGMia1BxUya3gzejO1QhWklFQWpHIVsoQypVl4M3gzAhWwangzhzLa+Pn5ef0HAjDhzVCS\n1BkqMGsmCLy0P/xVI6b/0FH7kiQ9AGpIg++RAAAA\n'
p2616
sg19
g146
sg21
I482
ssg2119
I0
sg137
I0
sg199
(dp2617
g18
S'H4sIAIvzH04C/2tgSs4rzS2o1EvOL0rVyy3NKclMLCpKrOSKL0pNzs8rLikqTS7hKmSEqOLKS4HI\nFjJ5M7SGMia1BxUya3gzejO1QhWklFQWpHIVsoQypVl4M3gzAhWwangzhzLa+Pn5ef0HAjDhzVCS\n1BkqMGsmCOy0rxZZ5/6wqsW+JEkPAHMFfKeRAAAA\n'
p2618
sg19
g146
sg21
I481
sssg19
g78
sg21
I480
ssssg19
g78
sg21
I454
sssg255
g2247
sg1048
(dp2619
g18
(lp2620
(dp2621
g2
(lp2622
((g4
g5
tI-1
tp2623
a((g30
g5
tI-1
tp2624
a((g32
g33
tI-1
tp2625
a((g35
g36
tI0
tp2626
a((g38
g39
tI0
tp2627
a((g41
g42
tI0
tp2628
a((g44
g45
tI0
tp2629
asg15
g44
sg16
(dp2630
g18
Nsg19
g48
sg21
I1
ssg19
g22
sg21
I428
sg23
g45
sg18
(dp2631
g18
(dp2632
g51
I00
sg52
(dp2633
g18
(lp2634
sg19
g55
sg21
I430
ssg56
g57
sg58
(dp2635
g18
Nsg19
g48
sg21
I5
ssg79
(dp2636
g2
(lp2637
((g4
g5
tI-1
tp2638
a((g30
g5
tI-1
tp2639
a((g32
g33
tI-1
tp2640
a((g35
g36
tI0
tp2641
a((g38
g39
tI0
tp2642
a((g87
g88
tI0
tp2643
a((g90
g91
tI0
tp2644
asg15
g90
sg16
(dp2645
g18
Nsg19
g48
sg21
I1
ssg19
g22
sg21
I439
sg23
g91
sg18
(dp2646
g18
(dp2647
g96
(dp2648
g2
(lp2649
((g4
g5
tI-1
tp2650
a((g7
g5
tI-1
tp2651
a((g101
g102
tI-1
tp2652
a((g104
g105
tI-1
tp2653
a((g107
g108
tI-1
tp2654
a((g110
g111
tI-1
tp2655
a((g113
g114
tI-1
tp2656
a((g116
g117
tI-1
tp2657
a((g119
g120
tI-1
tp2658
a((g122
g123
tI-1
tp2659
asg15
g122
sg16
(dp2660
g18
Nsg19
g48
sg21
I16
ssg19
g22
sg21
I448
sg23
g123
sg18
(dp2661
g18
(dp2662
g128
I0
sg129
I0
sg130
g131
sg132
I0
sg133
I0
sg134
F0.01
sg135
g131
sg136
I0
sg137
I0
sg138
I0
sg139
I1
sg140
I0
sg141
I0
sg142
F1
sg143
(dp2663
g18
S'H4sIAIvzH04C/2tgSs4rzS2o1EvOL0rVyy3NKclMLCpKrOSKL0pNzs8rLikqTS7hKmSEqOLKS4HI\nFjJ5M7SGMia1BxUya3gzejO1QhWklFQWpHIVsoQypVl4M3gzAhWwangzhzLa+Pn5ef0HAjDhzVCS\n1BkqwIACPtiXJOkBAIHIRA6RAAAA\n'
p2664
sg19
g146
sg21
I450
ssg147
Nsg148
I1
sg149
I0
sg150
I0
sg151
I0
sg152
I1
sg153
I0
sg154
I1
sg155
I0
sg156
I0
sg157
g131
sg158
I0
sg159
F0
sg160
I0
sg161
g162
sg163
I1
ssg19
g78
sg21
I449
sssg52
(dp2665
g18
(lp2666
sg19
g55
sg21
I441
ssg166
S''
sg58
Nsg79
(dp2667
g2
(lp2668
((g4
g5
tI-1
tp2669
a((g7
g5
tI-1
tp2670
a((g101
g102
tI-1
tp2671
a((g104
g105
tI-1
tp2672
a((g107
g108
tI-1
tp2673
a((g174
g175
tI-1
tp2674
a((g177
g178
tI-1
tp2675
a((g90
g180
tI-1
tp2676
asg15
g90
sg16
(dp2677
g18
Nsg19
g48
sg21
I16
ssg19
g22
sg21
I442
sg23
g180
sg18
(dp2678
g18
(dp2679
g185
(dp2680
g18
S'H4sIAIvzH04C/2tgSs4rzS2o1EvOL0rVyy3NKclMLCpKrOSKL0pNzs8rLikqTS7hKmSEqOLKS4HI\nFjJ5M7SGMia1BxUya3gzejO3QhWklFQWpHIVsoQypVl4M3gzAhWwangzhzLa+Pn5ef0HAjDhzVCS\n1BkqwYADlCTpAQD67GqfmQAAAA==\n'
p2681
sg19
g146
sg21
I444
ssg188
(dp2682
g18
S'H4sIAIvzH04C/2tgSs4rzS2o1EvOL0rVyy3NKclMLCpKrOSKL0pNzs8rLikqTS7hKmSEqOLKS4HI\nFjJ5M7SGMia1BxUya3gzejO3QhWklFQWpHIVsoQypVl4M3gzAhWwangzhzLa+Pn5ef0HAjDhzVCS\n1BkqwQAGH+zR6ZIkPQDfyO6fmQAAAA==\n'
p2683
sg19
g146
sg21
I446
ssg191
(dp2684
g18
S'H4sIAIvzH04C/2tgSs4rzS2o1EvOL0rVyy3NKclMLCpKrOSKL0pNzs8rLikqTS7hKmSEqOLKS4HI\nFjJ5M7SGMia1BxUya3gzejO3QhWklFQWpHIVsoQypVl4M3gzAhWwangzhzLa+Pn5ef0HAjDhzVCS\n1BkqwYAKGmCMkiQ9ABqDrf+ZAAAA\n'
p2685
sg19
g146
sg21
I445
ssg137
I0
sg194
I1
sg195
I1
sg196
I1
sg197
I1
sg149
I0
sg155
I0
sg198
I1
sg199
(dp2686
g18
S'H4sIAIvzH04C/2tgSs4rzS2o1EvOL0rVyy3NKclMLCpKrOSKL0pNzs8rLikqTS7hKmSEqOLKS4HI\nFjJ5M7SGMia1BxUya3gzejO3QhWklFQWpHIVsoQypVl4M3gzAhWwangzhzLa+Pn5ef0HAjDhzVCS\n1BkqwYADlCTpAQD67GqfmQAAAA==\n'
p2687
sg19
g146
sg21
I447
ssg202
I1
ssg19
g78
sg21
I443
sssg203
I01
sg204
S''
sg205
Nsg206
Nsg207
(dp2688
g2
(lp2689
((g4
g5
tI-1
tp2690
a((g7
g5
tI-1
tp2691
a((g101
g102
tI-1
tp2692
a((g104
g105
tI-1
tp2693
a((g107
g108
tI-1
tp2694
a((g215
g216
tI-1
tp2695
a((g218
g219
tI-1
tp2696
asg15
g218
sg16
(dp2697
g18
Nsg19
g48
sg21
I16
ssg19
g22
sg21
I451
sg23
g219
sg18
(dp2698
g18
(dp2699
g224
(dp2700
g18
Nsg19
g48
sg21
I36
ssg227
I0
sg228
F1.8999999999999999
sg239
(dp2701
g18
Nsg19
g48
sg21
I36
ssg232
F0.018499999999999999
sg233
I0
sg229
(dp2702
g18
Nsg19
g48
sg21
I35
ssg234
g235
sg236
F0.50449999999999995
sg237
I0
sg238
F16.766231536865234
sS'interpolation_'
p2703
I1
sg241
(dp2704
g18
Nsg19
g48
sg21
I36
ssg243
I0
sg149
I0
sg244
I0
sg245
I0
sg246
F1
sg247
I0
sg155
I0
sg248
F0
sg249
I0
sS'representation_'
p2705
I2
sg250
I65535
sg137
I0
sg251
g252
sg253
I1
sg254
F2
ssg19
g78
sg21
I452
sssg255
S''
ssg19
g78
sg21
I440
sssg203
I01
sg204
S''
sg205
(dp2706
g18
Nsg19
g48
sg21
I37
ssg206
Nsg255
g270
sg271
(dp2707
g2
(lp2708
((g4
g5
tI-1
tp2709
a((g30
g5
tI-1
tp2710
a((g32
g33
tI-1
tp2711
a((g35
g36
tI0
tp2712
a((g38
g39
tI0
tp2713
a((g87
g88
tI0
tp2714
a((g280
g281
tI0
tp2715
asg15
g280
sg16
(dp2716
g18
Nsg19
g48
sg21
I1
ssg19
g22
sg21
I431
sg23
g281
sg18
(dp2717
g18
(dp2718
g52
(dp2719
g18
(lp2720
sg19
g55
sg21
I433
ssg166
S''
sg288
I01
sg205
Nsg289
(dp2721
g18
Nsg19
g48
sg21
I14
ssg292
I01
sg203
I01
sg204
S''
sg293
(dp2722
g2
(lp2723
((g4
g5
tI-1
tp2724
a((g7
g5
tI-1
tp2725
a((g101
g102
tI-1
tp2726
a((g104
g105
tI-1
tp2727
a((g107
g108
tI-1
tp2728
a((g110
g111
tI-1
tp2729
a((g302
g303
tI-1
tp2730
a((g305
g306
tI-1
tp2731
asg15
g305
sg16
(dp2732
g18
Nsg19
g48
sg21
I16
ssg19
g22
sg21
I434
sg23
g306
sg18
(dp2733
g18
(dp2734
g312
I0
sg149
I0
sg313
I0
sg147
Nsg314
I0
sg153
I0
sg315
I1
sg316
I1
sg317
I1
sg318
I0
sg319
I0
sg140
I0
sg155
I0
sg141
I0
sg320
I1
sg158
I0
sg142
F1
sg321
I10
sg137
I0
ssg19
g78
sg21
I435
sssS'_traits_cache_minimum_contour'
p2735
F0.071657225489616394
sg323
(dp2736
g18
(lp2737
F1
asg19
g55
sg21
I436
ssS'_fill_cont_filt'
p2738
(dp2739
g2
(lp2740
((g4
g5
tI-1
tp2741
a((g7
g5
tI-1
tp2742
a((g101
g102
tI-1
tp2743
a((g104
g105
tI-1
tp2744
a((g107
g108
tI-1
tp2745
a((g110
g111
tI-1
tp2746
a((g302
g303
tI-1
tp2747
a((g336
g337
tI-1
tp2748
asg15
g336
sg16
(dp2749
g18
Nsg19
g48
sg21
I16
ssg19
g22
sg21
I437
sg23
g337
sg18
(dp2750
g18
(dp2751
g155
I0
sg342
I1
sg153
I0
sg343
I1
sg130
g344
sg345
I0
sg147
Nsg137
I0
sg149
I0
sg140
I0
sg150
I1
sg141
I0
sg158
I0
sg142
F1
sg321
I10
sg346
I0
ssg19
g78
sg21
I438
sssg58
Nsg347
I01
sg348
I01
sg206
Nsg321
I10
sg255
S''
sS'_traits_cache_maximum_contour'
p2752
F7.6595492362976074
ssg19
g78
sg21
I432
sssg350
g351
ssg19
g78
sg21
I429
ssasg19
g55
sg21
I427
ssg350
g2251
ssg19
g78
sg21
I396
ssasg19
g55
sg21
I394
ssg350
S'filter.ico'
p2753
ssg19
g78
sg21
I391
ssa(dp2754
g2
(lp2755
((g4
g5
tI-1
tp2756
a((g30
g5
tI-1
tp2757
a((g32
g33
tI-1
tp2758
a((g35
g36
tI0
tp2759
a((g38
g39
tI0
tp2760
a((g1545
g1546
tI0
tp2761
a((g2260
g2261
tI0
tp2762
a((S'Collection'
p2763
S'enthought.mayavi.filters.collection'
p2764
tI0
tp2765
a((S'CutPlane'
p2766
S'enthought.mayavi.filters.cut_plane'
p2767
tI0
tp2768
asg15
g2766
sg16
(dp2769
g18
Nsg19
g48
sg21
I1
ssg19
g22
sg21
I492
sg23
g2767
sg18
(dp2770
g18
(dp2771
g56
S'CutPlane'
p2772
sS'_pipeline_ready'
p2773
I01
sg1851
(dp2774
g2
(lp2775
((g4
g5
tI-1
tp2776
a((g62
g63
tI-1
tp2777
asg15
g62
sg16
(dp2778
g18
Nsg19
g48
sg21
I1
ssg19
g22
sg21
I606
sg23
g63
sg18
(dp2779
g18
(dp2780
g68
(dp2781
g18
(lp2782
g265
asg19
g55
sg21
I608
ssg71
(dp2783
g18
(lp2784
g1863
asg19
g55
sg21
I609
ssg75
(dp2785
g18
(lp2786
g265
asg19
g55
sg21
I610
sssg19
g78
sg21
I607
sssg203
I01
sg204
S''
sS'filters'
p2787
(dp2788
g18
(lp2789
(dp2790
g2
(lp2791
((g4
g5
tI-1
tp2792
a((g30
g5
tI-1
tp2793
a((g32
g33
tI-1
tp2794
a((g35
g36
tI0
tp2795
a((g38
g39
tI0
tp2796
a((g87
g88
tI0
tp2797
a((S'ImplicitPlane'
p2798
S'enthought.mayavi.components.implicit_plane'
p2799
tI0
tp2800
asg15
g2798
sg16
(dp2801
g18
Nsg19
g48
sg21
I1
ssg19
g22
sg21
I495
sg23
g2799
sg18
(dp2802
g18
(dp2803
g2271
(dp2804
g2
(lp2805
((g4
g5
tI-1
tp2806
a((g7
g5
tI-1
tp2807
a((g101
g102
tI-1
tp2808
a((g104
g105
tI-1
tp2809
a((g107
g108
tI-1
tp2810
a((g582
g583
tI-1
tp2811
a((g2280
g2281
tI-1
tp2812
a((S'PolyDataSourceWidget'
p2813
S'tvtk_classes.poly_data_source_widget'
p2814
tI-1
tp2815
a((S'ImplicitPlaneWidget'
p2816
S'tvtk_classes.implicit_plane_widget'
p2817
tI-1
tp2818
asg15
g2816
sg16
(dp2819
g18
Nsg19
g48
sg21
I16
ssg19
g22
sg21
I497
sg23
g2817
sg18
(dp2820
g18
(dp2821
g185
(dp2822
g18
S'H4sIAIvzH04C/2tgSs4rzS2o1EvOL0rVyy3NKclMLCpKrOSKL0pNzs8rLikqTS7hKmSEqOLKS4HI\nFjJ5M7SGMia1BxUya3gzejO3QhWklFQWpHIVsoQypVl4M3gzAhWwangzhzLa+Pn5ef0HAjDhzVCS\n1BkqwQAFLGBSxQFIJB98w+dQkqQHAEl5CkSZAAAA\n'
p2823
sg19
g146
sg21
I499
ssg2043
F0.01
sS'normal_to_z_axis_'
p2824
I1
sS'draw_plane'
p2825
I0
sS'draw_plane_'
p2826
I0
sg597
I0
sS'diagonal_ratio'
p2827
F0.29999999999999999
sS'origin_translation'
p2828
I1
sS'scale_enabled'
p2829
I1
sS'outline_translation'
p2830
I0
sg594
F0.5
sS'normal_to_y_axis'
p2831
I0
sS'scale_enabled_'
p2832
I1
sg591
S'i'
sS'normal'
p2833
(dp2834
g18
S'H4sIAIvzH04C/2tgSs4rzS2o1EvOL0rVyy3NKclMLCpKrOSKL0pNzs8rLikqTS7hKmSEqOLKS4HI\nFjJ5M7SGMia1BxUya3gzejO3QhWklFQWpHIVsoQypVl4M3gzAhWwangzhzLa+Pn5ef0HAjDhzVCS\n1BkqwYAVfLAvSdIDAFBUFn+ZAAAA\n'
p2835
sg19
g146
sg21
I500
ssS'normal_to_x_axis'
p2836
I0
sS'normal_to_z_axis'
p2837
I1
sg149
I0
sg595
I0
sS'normal_to_x_axis_'
p2838
I0
sg596
I0
sg2039
F1.2
sS'tubing_'
p2839
I1
sS'origin_translation_'
p2840
I1
sS'outside_bounds'
p2841
I1
sS'outside_bounds_'
p2842
I1
sg592
I0
sg155
I0
sS'outline_translation_'
p2843
I0
sS'normal_to_y_axis_'
p2844
I0
sg137
I0
sS'tubing'
p2845
I1
ssg19
g78
sg21
I498
sssg56
S'ImplicitPlane'
p2846
sg203
I01
sg204
S''
sS'plane'
p2847
(dp2848
g2
(lp2849
((g4
g5
tI-1
tp2850
a((g7
g5
tI-1
tp2851
a((g101
g102
tI-1
tp2852
a((g104
g105
tI-1
tp2853
a((g107
g108
tI-1
tp2854
a((S'ImplicitFunction'
p2855
S'tvtk_classes.implicit_function'
p2856
tI-1
tp2857
a((S'Plane'
p2858
S'tvtk_classes.plane'
p2859
tI-1
tp2860
asg15
g2858
sg16
(dp2861
g18
Nsg19
g48
sg21
I16
ssg19
g22
sg21
I501
sg23
g2859
sg18
(dp2862
g18
(dp2863
g185
(dp2864
g18
S'H4sIAIvzH04C/2tgSs4rzS2o1EvOL0rVyy3NKclMLCpKrOSKL0pNzs8rLikqTS7hKmSEqOLKS4HI\nFjJ5M7SGMia1BxUya3gzejO3QhWklFQWpHIVsoQypVl4M3gzAhWwangzhzLa+Pn5ef0HAjDhzVCS\n1BkqwQAFLGBSxQFIJB98w+dQkqQHAEl5CkSZAAAA\n'
p2865
sg19
g146
sg21
I503
ssg149
I0
sg137
I0
sg155
I0
sg2833
(dp2866
g18
S'H4sIAIvzH04C/2tgSs4rzS2o1EvOL0rVyy3NKclMLCpKrOSKL0pNzs8rLikqTS7hKmSEqOLKS4HI\nFjJ5M7SGMia1BxUya3gzejO3QhWklFQWpHIVsoQypVl4M3gzAhWwangzhzLa+Pn5ef0HAjDhzVCS\n1BkqwYAVfLAvSdIDAFBUFn+ZAAAA\n'
p2867
sg19
g146
sg21
I504
sssg19
g78
sg21
I502
sssS'_busy'
p2868
I00
sS'_first'
p2869
I00
ssg19
g78
sg21
I496
ssa(dp2870
g2
(lp2871
((g4
g5
tI-1
tp2872
a((g30
g5
tI-1
tp2873
a((g32
g33
tI-1
tp2874
a((g35
g36
tI0
tp2875
a((g38
g39
tI0
tp2876
a((g87
g88
tI0
tp2877
a((S'Cutter'
p2878
S'enthought.mayavi.components.cutter'
p2879
tI0
tp2880
asg15
g2878
sg16
(dp2881
g18
Nsg19
g48
sg21
I1
ssg19
g22
sg21
I505
sg23
g2879
sg18
(dp2882
g18
(dp2883
g203
I01
sg204
S''
sg56
S'Cutter'
p2884
sS'cutter'
p2885
(dp2886
g2
(lp2887
((g4
g5
tI-1
tp2888
a((g7
g5
tI-1
tp2889
a((g101
g102
tI-1
tp2890
a((g104
g105
tI-1
tp2891
a((g107
g108
tI-1
tp2892
a((g110
g111
tI-1
tp2893
a((g302
g303
tI-1
tp2894
a((g2878
S'tvtk_classes.cutter'
p2895
tI-1
tp2896
asg15
g2878
sg16
(dp2897
g18
Nsg19
g48
sg21
I16
ssg19
g22
sg21
I507
sg23
g2895
sg18
(dp2898
g18
(dp2899
S'generate_cut_scalars_'
p2900
I0
sg137
I0
sg153
I0
sg147
Nsg155
I0
sS'sort_by_'
p2901
I0
sg149
I0
sS'generate_cut_scalars'
p2902
I0
sS'sort_by'
p2903
S'sort_by_value'
p2904
sg141
I0
sg158
I0
sg142
F1
sg321
I3
sg140
I0
ssg19
g78
sg21
I508
ssssg19
g78
sg21
I506
ssasg19
g55
sg21
I494
ssg206
Nsg19
g2360
sg1048
(dp2905
g18
(lp2906
(dp2907
g2
(lp2908
((g4
g5
tI-1
tp2909
a((g30
g5
tI-1
tp2910
a((g32
g33
tI-1
tp2911
a((g35
g36
tI0
tp2912
a((g1875
g1876
tI0
tp2913
asg15
g1875
sg16
(dp2914
g18
Nsg19
g48
sg21
I1
ssg19
g22
sg21
I510
sg23
g1876
sg18
(dp2915
g18
(dp2916
g56
g1881
sg1882
g1883
sg1884
(dp2917
g2
(lp2918
((g4
g5
tI-1
tp2919
a((g30
g5
tI-1
tp2920
a((g32
g33
tI-1
tp2921
a((g35
g36
tI0
tp2922
a((g1891
g1892
tI0
tp2923
asg15
g1891
sg16
(dp2924
g18
Nsg19
g48
sg21
I1
ssg19
g22
sg21
I512
sg23
g1892
sg18
(dp2925
g18
(dp2926
g1897
(dp2927
g2
(lp2928
((g4
g5
tI-1
tp2929
a((g7
g5
tI-1
tp2930
a((g101
g102
tI-1
tp2931
a((g104
g105
tI-1
tp2932
a((g107
g108
tI-1
tp2933
a((g1905
g1906
tI-1
tp2934
asg15
g1905
sg16
(dp2935
g18
Nsg19
g48
sg21
I16
ssg19
g22
sg21
I514
sg23
g1906
sg18
(dp2936
g18
(dp2937
g236
F1
sg1911
g1912
sg1913
I12
sg191
F0
sg1914
F0
sg1915
I1
sg1916
g1917
sg1918
I0
sg155
I0
sg1919
F1.1000000000000001
sg802
(dp2938
g18
Nsg19
g48
sg21
I36
ssg1921
I1
sg1922
(dp2939
g18
S'H4sIAIvzH04C/2tgSs4rzS2o1EvOL0rVyy3NKclMLCpKrOSKL0pNzs8rLikqTS7hKmSEqOLKS4HI\nFjJ5M7SGMia1BxUya3gzejO1QhWklFQWpHIVsoQyZZp4M3gzAhWwangzhzLa+Pn5ef0HAjDhzVCS\n1BnKwcjAwADiliTpAQCk2G9tiQAAAA==\n'
p2940
sg19
g146
sg21
I516
ssg137
I0
sg1925
I1
sg1926
I0
sg1927
g1928
sg149
I0
sg1929
I1
ssg19
g78
sg21
I515
sssS'file_name'
p2941
S''
sg1931
g1932
sg203
I01
sg1934
(dp2942
g18
S'H4sIAIvzH04C/2tgSs4rzS2o1EvOL0rVyy3NKclMLCpKrOSKL0pNzs8rLikqTS7hKmSEqOLKS4HI\nFjJ5M7SGMia1BxUya3gzejO1QhWklFQWpHIVsoQypVl4M3gzAhWwangzhzLa+Pn5ef0HAjDhzVCS\n1BkqwIACPtiXJOkBAIHIRA6RAAAA\n'
p2943
sg19
g146
sg21
I517
ssg1937
(dp2944
g2
(lp2945
((g4
g5
tI-1
tp2946
a((g7
g5
tI-1
tp2947
a((g101
g102
tI-1
tp2948
a((g104
g105
tI-1
tp2949
a((g107
g108
tI-1
tp2950
a((g1945
g1946
tI-1
tp2951
a((g1948
g1949
tI-1
tp2952
asg15
g1948
sg16
(dp2953
g18
Nsg19
g48
sg21
I16
ssg19
g22
sg21
I518
sg23
g1949
sg18
(dp2954
g18
(dp2955
g1954
I2
sg188
g1955
sg1956
(dp2956
g18
S'H4sIAIvzH04C/2tgSs4rzS2o1EvOL0rVyy3NKclMLCpKrOSKL0pNzs8rLikqTS7hKmSEqOLKS4HI\nFjJ5M7SGMia1BxUya3gzejO1QhWklFQWpHIVsoQypVl4M3gzAhWwangzhzLa+Pn5ef0HAjDhzVCS\n1BkqwAAGH+xhdEmSHgBnOGdykQAAAA==\n'
p2957
sg19
g146
sg21
I520
ssg1959
(dp2958
g18
S'H4sIAIvzH04C/2tgSs4rzS2o1EvOL0rVyy3NKclMLCpKrOSKL0pNzs8rLikqTS7hKmSEqOLKS4HI\nFjJ5M7SGMia1BxUya3gzejO1QhWklFQWpHIVsoQypVl4M3gzAhWwangzhzLa+Pn5ef0HAjDhzVCS\n1BkqwIACPtiXJOkBAIHIRA6RAAAA\n'
p2959
sg19
g146
sg21
I522
ssg1962
(dp2960
g18
S'H4sIAIvzH04C/2tgSs4rzS2o1EvOL0rVyy3NKclMLCpKrOSKL0pNzs8rLikqTS7hKmSEqOLKS4HI\nFjJ5M7SGMia1BxUya3gzejO1QhWklFQWpHIVsoQypVl4M3gzAhWwangzhzLa+Pn5ef0HAjDhzVCS\n1Bkq4H2C3XZ26FN7BigoSdIDAObNAnCRAAAA\n'
p2961
sg19
g146
sg21
I521
ssg1965
I256
sg1966
g1967
sg155
I0
sg1968
I256
sg1969
(dp2962
g18
S'H4sIAIvzH04C/2tgSs4rzS2o1EvOL0rVyy3NKclMLCpKrOSKL0pNzs8rLikqTS7hKmSEqOLKS4HI\nFjJ5M7SGMia1BxUya3gzejO1QhWklFQWpHIVsoQypVl4M3gzAhWwangzhzLa+Pn5ef0HAjDhzVCS\n1BkqwAAGH+xhdEmSHgBnOGdykQAAAA==\n'
p2963
sg19
g146
sg21
I523
ssg1972
(dp2964
g18
S'H4sIAIvzH04C/2tgSs4rzS2o1EvOL0rVyy3NKclMLCpKrOSKL0pNzs8rLikqTS7hKmSEqOLKS4HI\nFjJ5M7SGMia1BxUya3gzejO1QhWklFQWpHIVsoQypVl4M3gzAhWwangzhzLa+Pn5ef0HAjDhzVCS\n1BkqwIACPtiXJOkBAIHIRA6RAAAA\n'
p2965
sg19
g146
sg21
I524
ssg1975
I0
sg1976
(dp2966
g18
S'H4sIAIvzH04C/2tgSs4rzS2o1EvOL0rVyy3NKclMLCpKrOSKL0pNzs8rLikqTS7hKmSEqOLKS4HI\nFjJ5M7SGMia1BxUya3gzejO1QhWklFQWpHIVsoQypVl4M3gzAhWwangzhzLa+Pn5ef0HAjDhzVCS\n1BkqwAAGH+xhdEmSHgBnOGdykQAAAA==\n'
p2967
sg19
g146
sg21
I525
ssg137
I0
sg1979
F1
sg1980
g1981
sg149
I0
ssg19
g78
sg21
I519
sssg1982
(dp2968
g2
(lp2969
((g4
g5
tI-1
tp2970
a((g7
g5
tI-1
tp2971
a((g101
g102
tI-1
tp2972
a((g104
g105
tI-1
tp2973
a((g107
g108
tI-1
tp2974
a((g1905
g1906
tI-1
tp2975
asg15
g1905
sg16
(dp2976
g18
Nsg19
g48
sg21
I16
ssg19
g22
sg21
I535
sg23
g1906
sg18
(dp2977
g18
(dp2978
g236
F1
sg1911
g1912
sg1913
I12
sg191
F0
sg1914
F0
sg1915
I1
sg1916
g1917
sg1918
I0
sg155
I0
sg1919
F1.1000000000000001
sg802
(dp2979
g18
Nsg19
g48
sg21
I36
ssg1921
I1
sg1922
(dp2980
g18
S'H4sIAIzzH04C/2tgSs4rzS2o1EvOL0rVyy3NKclMLCpKrOSKL0pNzs8rLikqTS7hKmSEqOLKS4HI\nFjJ5M7SGMia1BxUya3gzejO1QhWklFQWpHIVsoQyZZp4M3gzAhWwangzhzLa+Pn5ef0HAjDhzVCS\n1BnKwcjAwADiliTpAQCk2G9tiQAAAA==\n'
p2981
sg19
g146
sg21
I537
ssg137
I0
sg1925
I1
sg1926
I0
sg1927
g1928
sg149
I0
sg1929
I1
ssg19
g78
sg21
I536
sssg1968
I256
sS'_orig_data_range'
p2982
(dp2983
g18
S'H4sIAIvzH04C/2tgSs4rzS2o1EvOL0rVyy3NKclMLCpKrOSKL0pNzs8rLikqTS7hKmSEqOLKS4HI\nFjJ5M7SGMia1BxUya3gzejO1QhWklFQWpHIVsoQypVl4M3gzAhWwangzhzLa+Pn5ef0HAjDhzVCS\n1BkqwIACPtiXJOkBAIHIRA6RAAAA\n'
p2984
sg19
g146
sg21
I528
ssS'recorder'
p2985
Nsg2000
I00
sg19
S''
sS'scalar_bar_representation'
p2986
(dp2987
g2
(lp2988
((g4
g5
tI-1
tp2989
a((g7
g5
tI-1
tp2990
a((g101
g102
tI-1
tp2991
a((g104
g105
tI-1
tp2992
a((g107
g108
tI-1
tp2993
a((g174
g175
tI-1
tp2994
a((g2010
g2011
tI-1
tp2995
a((g2013
g2014
tI-1
tp2996
a((g2016
g2017
tI-1
tp2997
asg15
g2016
sg16
(dp2998
g18
Nsg19
g48
sg21
I16
ssg19
g22
sg21
I529
sg23
g2017
sg18
(dp2999
g18
(dp3000
g191
I1
sg2022
I0
sg194
I1
sg196
I1
sg2023
g2024
sg198
I1
sg2025
I2
sg2026
I0
sg2027
I0
sg2028
(dp3001
g18
S'H4sIAIzzH04C/2tgSs4rzS2o1EvOL0rVyy3NKclMLCpKrOSKL0pNzs8rLikqTS7hKmSEqOLKS4HI\nFjJ5M7SGMia1BxUya3gzejO1QhWklFQWpHIVsoQypVl4M3gzAhWwangzhzLa+Pn5ef0HAjDhzVCS\n1BkqcPirRkz/oaP2s2aCwEv7kiQ9AC+e0nyRAAAA\n'
p3002
sg19
g146
sg21
I532
ssg2031
I0
sg2032
(dp3003
g18
S'H4sIAIzzH04C/2tgSs4rzS2o1EvOL0rVyy3NKclMLCpKrOSKL0pNzs8rLikqTS7hKmSEqOLKS4HI\nFjJ5M7SGMia1BxUya3gzejO1QhWklFQWpHIVsoQyZZp4M3gzAhWwangzhzLa+Pn5ef0HAjDhzVCS\n1BnKsaCNkQGES5L0ALP9TXGJAAAA\n'
p3004
sg19
g146
sg21
I534
ssg202
I1
sg512
I3
sg2035
(dp3005
g18
S'H4sIAIzzH04C/2tgSs4rzS2o1EvOL0rVyy3NKclMLCpKrOSKL0pNzs8rLikqTS7hKmSEqOLKS4HI\nFjJ5M7SGMia1BxUya3gzejO1QhWklFQWpHIVsoQyZZp4M3gzAhWwangzhzLa+Pn5ef0HAjDhzVCS\n1BnKwcjAwADCJUl6AJHzi6mJAAAA\n'
p3006
sg19
g146
sg21
I531
ssg195
I1
sg197
I1
sg149
I0
sg2038
I0
sg2039
F0.5
sg2040
I0
sg155
I0
sg137
I0
sg199
(dp3007
g18
S'H4sIAIzzH04C/2tgSs4rzS2o1EvOL0rVyy3NKclMLCpKrOSKL0pNzs8rLikqTS7hKmSEqOLKS4HI\nFjJ5M7SGMia1BxUya3gzejO1QhWklFQWpHIVsoQypVl4M3gzAhWwangzhzLa+Pn5ef0HAjDhzVCS\n1BkqYMt1fXGB7Sv7WTNBYKd9SZIeADd4AQGRAAAA\n'
p3008
sg19
g146
sg21
I533
ssg2043
F0.01
ssg19
g78
sg21
I530
sssg2044
(dp3009
g2
(lp3010
((g4
g5
tI-1
tp3011
a((g7
g5
tI-1
tp3012
a((g101
g102
tI-1
tp3013
a((g104
g105
tI-1
tp3014
a((g107
g108
tI-1
tp3015
a((g582
g583
tI-1
tp3016
a((g2053
g2054
tI-1
tp3017
a((g2056
g2057
tI-1
tp3018
a((g2059
g2060
tI-1
tp3019
asg15
g2059
sg16
(dp3020
g18
Nsg19
g48
sg21
I16
ssg19
g22
sg21
I526
sg23
g2060
sg18
(dp3021
g18
(dp3022
g2065
I1
sg591
S'i'
sg2066
I1
sg149
I0
sg137
I0
sg592
I0
sg595
I0
sg155
I0
sg2067
I1
sg594
F0.5
sg2068
I1
sg2069
I1
sg2070
I1
sg596
I0
sg2071
I1
sg2072
I0
sg2073
I0
sg597
I0
sg2074
I1
ssg19
g78
sg21
I527
sssg2075
I00
sg1926
I00
sg2076
g2077
sg2078
I01
sg56
S''
sg2079
I8
sg2080
(dp3023
g18
Nsg19
g48
sg21
I517
ssg2082
g2083
sg204
S''
sg2084
I01
sg2085
(dp3024
g2
(lp3025
((g4
g5
tI-1
tp3026
a((g7
g5
tI-1
tp3027
a((g101
g102
tI-1
tp3028
a((g104
g105
tI-1
tp3029
a((g107
g108
tI-1
tp3030
a((g174
g175
tI-1
tp3031
a((g2094
g2095
tI-1
tp3032
a((g2097
g2098
tI-1
tp3033
asg15
g2097
sg16
(dp3034
g18
Nsg19
g48
sg21
I16
ssg19
g22
sg21
I538
sg23
g2098
sg18
(dp3035
g18
(dp3036
g191
g2103
sg194
I1
sg2104
F0.17000000000000001
sg198
I1
sg2105
I0
sg2106
S'No vectors'
p3037
sg2108
S'%-#6.3g'
p3038
sg2110
F0.80000000000000004
sg2111
F10
sg2112
g2113
sg202
I1
sg2114
I0
sg195
I1
sg197
I1
sg149
I0
sg2115
I256
sg2116
I1
sg196
I1
sg2079
I8
sg155
I0
sg2028
(dp3039
g18
S'H4sIAIzzH04C/2tgSs4rzS2o1EvOL0rVyy3NKclMLCpKrOSKL0pNzs8rLikqTS7hKmSEqOLKS4HI\nFjJ5M7SGMia1BxUya3gzejO1QhWklFQWpHIVsoQypVl4M3gzAhWwangzhzLa+Pn5ef0HAjDhzVCS\n1BkqMGsmCLy0P/xVI6b/0FH7kiQ9AGpIg++RAAAA\n'
p3040
sg19
g146
sg21
I541
ssg2119
I0
sg137
I0
sg199
(dp3041
g18
S'H4sIAIzzH04C/2tgSs4rzS2o1EvOL0rVyy3NKclMLCpKrOSKL0pNzs8rLikqTS7hKmSEqOLKS4HI\nFjJ5M7SGMia1BxUya3gzejO1QhWklFQWpHIVsoQypVl4M3gzAhWwangzhzLa+Pn5ef0HAjDhzVCS\n1BkqMGsmCOy0rxZZ5/6wqsW+JEkPAHMFfKeRAAAA\n'
p3042
sg19
g146
sg21
I540
sssg19
g78
sg21
I539
ssssg19
g78
sg21
I513
sssg204
S''
sg2122
(dp3043
g2
(lp3044
((g4
g5
tI-1
tp3045
a((g30
g5
tI-1
tp3046
a((g32
g33
tI-1
tp3047
a((g35
g36
tI0
tp3048
a((g1891
g1892
tI0
tp3049
asg15
g1891
sg16
(dp3050
g18
Nsg19
g48
sg21
I1
ssg19
g22
sg21
I576
sg23
g1892
sg18
(dp3051
g18
(dp3052
g1897
(dp3053
g2
(lp3054
((g4
g5
tI-1
tp3055
a((g7
g5
tI-1
tp3056
a((g101
g102
tI-1
tp3057
a((g104
g105
tI-1
tp3058
a((g107
g108
tI-1
tp3059
a((g1905
g1906
tI-1
tp3060
asg15
g1905
sg16
(dp3061
g18
Nsg19
g48
sg21
I16
ssg19
g22
sg21
I578
sg23
g1906
sg18
(dp3062
g18
(dp3063
g236
F1
sg1911
g1912
sg1913
I12
sg191
F0
sg1914
F0
sg1915
I1
sg1916
g1917
sg1918
I0
sg155
I0
sg1919
F1.1000000000000001
sg802
(dp3064
g18
Nsg19
g48
sg21
I36
ssg1921
I1
sg1922
(dp3065
g18
S'H4sIAIzzH04C/2tgSs4rzS2o1EvOL0rVyy3NKclMLCpKrOSKL0pNzs8rLikqTS7hKmSEqOLKS4HI\nFjJ5M7SGMia1BxUya3gzejO1QhWklFQWpHIVsoQyZZp4M3gzAhWwangzhzLa+Pn5ef0HAjDhzVCS\n1BnKwcjAwADiliTpAQCk2G9tiQAAAA==\n'
p3066
sg19
g146
sg21
I580
ssg137
I0
sg1925
I1
sg1926
I0
sg1927
g1928
sg149
I0
sg1929
I1
ssg19
g78
sg21
I579
sssg2941
S''
sg1931
S'point_scalars'
p3067
sg203
I01
sg1934
(dp3068
g18
S'H4sIAIzzH04C/2tgSs4rzS2o1EvOL0rVyy3NKclMLCpKrOSKL0pNzs8rLikqTS7hKmSEqOLKS4HI\nFjJ5M7SGMia1BxUya3gzejO1QhWklFQWpHIVsoQypVl4M3gzAhWwangzhzLa+Pn5ef0HAjDhzVCS\n1BkqwMDAkHDwDZ8DjC5J0gMABe4D+pEAAAA=\n'
p3069
sg19
g146
sg21
I581
ssg1937
(dp3070
g2
(lp3071
((g4
g5
tI-1
tp3072
a((g7
g5
tI-1
tp3073
a((g101
g102
tI-1
tp3074
a((g104
g105
tI-1
tp3075
a((g107
g108
tI-1
tp3076
a((g1945
g1946
tI-1
tp3077
a((g1948
g1949
tI-1
tp3078
asg15
g1948
sg16
(dp3079
g18
Nsg19
g48
sg21
I16
ssg19
g22
sg21
I582
sg23
g1949
sg18
(dp3080
g18
(dp3081
g1954
I2
sg188
g1955
sg1956
(dp3082
g18
S'H4sIAIzzH04C/2tgSs4rzS2o1EvOL0rVyy3NKclMLCpKrOSKL0pNzs8rLikqTS7hKmSEqOLKS4HI\nFjJ5M7SGMia1BxUya3gzejO1QhWklFQWpHIVsoQypVl4M3gzAhWwangzhzLa+Pn5ef0HAjDhzVCS\n1BkqwAAGH+xhdEmSHgBnOGdykQAAAA==\n'
p3083
sg19
g146
sg21
I584
ssg1959
(dp3084
g18
S'H4sIAIzzH04C/2tgSs4rzS2o1EvOL0rVyy3NKclMLCpKrOSKL0pNzs8rLikqTS7hKmSEqOLKS4HI\nFjJ5M7SGMia1BxUya3gzejO1QhWklFQWpHIVsoQypVl4M3gzAhWwangzhzLa+Pn5ef0HAjDhzVCS\n1BkqwMDAkHDwDZ8DjC5J0gMABe4D+pEAAAA=\n'
p3085
sg19
g146
sg21
I586
ssg1962
(dp3086
g18
S'H4sIAIzzH04C/2tgSs4rzS2o1EvOL0rVyy3NKclMLCpKrOSKL0pNzs8rLikqTS7hKmSEqOLKS4HI\nFjJ5M7SGMia1BxUya3gzejO1QhWklFQWpHIVsoQypVl4M3gzAhWwangzhzLa+Pn5ef0HAjDhzVCS\n1Bkq4H2C3XZ26FN7BigoSdIDAObNAnCRAAAA\n'
p3087
sg19
g146
sg21
I585
ssg1965
I256
sg1966
g1967
sg155
I0
sg1968
I256
sg1969
(dp3088
g18
S'H4sIAIzzH04C/2tgSs4rzS2o1EvOL0rVyy3NKclMLCpKrOSKL0pNzs8rLikqTS7hKmSEqOLKS4HI\nFjJ5M7SGMia1BxUya3gzejO1QhWklFQWpHIVsoQypVl4M3gzAhWwangzhzLa+Pn5ef0HAjDhzVCS\n1BkqwAAGH+xhdEmSHgBnOGdykQAAAA==\n'
p3089
sg19
g146
sg21
I587
ssg1972
(dp3090
g18
S'H4sIAIzzH04C/2tgSs4rzS2o1EvOL0rVyy3NKclMLCpKrOSKL0pNzs8rLikqTS7hKmSEqOLKS4HI\nFjJ5M7SGMia1BxUya3gzejO1QhWklFQWpHIVsoQypVl4M3gzAhWwangzhzLa+Pn5ef0HAjDhzVCS\n1BkqwMDAkHDwDZ8DjC5J0gMABe4D+pEAAAA=\n'
p3091
sg19
g146
sg21
I588
ssg1975
I0
sg1976
(dp3092
g18
S'H4sIAIzzH04C/2tgSs4rzS2o1EvOL0rVyy3NKclMLCpKrOSKL0pNzs8rLikqTS7hKmSEqOLKS4HI\nFjJ5M7SGMia1BxUya3gzejO1QhWklFQWpHIVsoQypVl4M3gzAhWwangzhzLa+Pn5ef0HAjDhzVCS\n1BkqwAAGH+xhdEmSHgBnOGdykQAAAA==\n'
p3093
sg19
g146
sg21
I589
ssg137
I0
sg1979
F1
sg1980
g1981
sg149
I0
ssg19
g78
sg21
I583
sssg1982
(dp3094
g2
(lp3095
((g4
g5
tI-1
tp3096
a((g7
g5
tI-1
tp3097
a((g101
g102
tI-1
tp3098
a((g104
g105
tI-1
tp3099
a((g107
g108
tI-1
tp3100
a((g1905
g1906
tI-1
tp3101
asg15
g1905
sg16
(dp3102
g18
Nsg19
g48
sg21
I16
ssg19
g22
sg21
I599
sg23
g1906
sg18
(dp3103
g18
(dp3104
g236
F1
sg1911
g1912
sg1913
I12
sg191
F0
sg1914
F0
sg1915
I1
sg1916
g1917
sg1918
I0
sg155
I0
sg1919
F1.1000000000000001
sg802
(dp3105
g18
Nsg19
g48
sg21
I36
ssg1921
I1
sg1922
(dp3106
g18
S'H4sIAIzzH04C/2tgSs4rzS2o1EvOL0rVyy3NKclMLCpKrOSKL0pNzs8rLikqTS7hKmSEqOLKS4HI\nFjJ5M7SGMia1BxUya3gzejO1QhWklFQWpHIVsoQyZZp4M3gzAhWwangzhzLa+Pn5ef0HAjDhzVCS\n1BnKwcjAwADiliTpAQCk2G9tiQAAAA==\n'
p3107
sg19
g146
sg21
I601
ssg137
I0
sg1925
I1
sg1926
I0
sg1927
g1928
sg149
I0
sg1929
I1
ssg19
g78
sg21
I600
sssg1968
I256
sg2982
(dp3108
g18
S'H4sIAIzzH04C/2tgSs4rzS2o1EvOL0rVyy3NKclMLCpKrOSKL0pNzs8rLikqTS7hKmSEqOLKS4HI\nFjJ5M7SGMia1BxUya3gzejO1QhWklFQWpHIVsoQypVl4M3gzAhWwangzhzLa+Pn5ef0HAjDhzVCS\n1BkqwIACPtiXJOkBAIHIRA6RAAAA\n'
p3109
sg19
g146
sg21
I592
ssg2985
Nsg2000
I00
sg19
S''
sg2986
(dp3110
g2
(lp3111
((g4
g5
tI-1
tp3112
a((g7
g5
tI-1
tp3113
a((g101
g102
tI-1
tp3114
a((g104
g105
tI-1
tp3115
a((g107
g108
tI-1
tp3116
a((g174
g175
tI-1
tp3117
a((g2010
g2011
tI-1
tp3118
a((g2013
g2014
tI-1
tp3119
a((g2016
g2017
tI-1
tp3120
asg15
g2016
sg16
(dp3121
g18
Nsg19
g48
sg21
I16
ssg19
g22
sg21
I593
sg23
g2017
sg18
(dp3122
g18
(dp3123
g191
I1
sg2022
I0
sg194
I1
sg196
I1
sg2023
g2024
sg198
I1
sg2025
I2
sg2026
I0
sg2027
I0
sg2028
(dp3124
g18
S'H4sIAIzzH04C/2tgSs4rzS2o1EvOL0rVyy3NKclMLCpKrOSKL0pNzs8rLikqTS7hKmSEqOLKS4HI\nFjJ5M7SGMia1BxUya3gzejO1QhWklFQWpHIVsoQypVl4M3gzAhWwangzhzLa+Pn5ef0HAjDhzVCS\n1BkqcPirRkz/oaP2s2aCwEv7kiQ9AC+e0nyRAAAA\n'
p3125
sg19
g146
sg21
I596
ssg2031
I0
sg2032
(dp3126
g18
S'H4sIAIzzH04C/2tgSs4rzS2o1EvOL0rVyy3NKclMLCpKrOSKL0pNzs8rLikqTS7hKmSEqOLKS4HI\nFjJ5M7SGMia1BxUya3gzejO1QhWklFQWpHIVsoQyZZp4M3gzAhWwangzhzLa+Pn5ef0HAjDhzVCS\n1BnKsaCNkQGES5L0ALP9TXGJAAAA\n'
p3127
sg19
g146
sg21
I598
ssg202
I1
sg512
I3
sg2035
(dp3128
g18
S'H4sIAIzzH04C/2tgSs4rzS2o1EvOL0rVyy3NKclMLCpKrOSKL0pNzs8rLikqTS7hKmSEqOLKS4HI\nFjJ5M7SGMia1BxUya3gzejO1QhWklFQWpHIVsoQyZZp4M3gzAhWwangzhzLa+Pn5ef0HAjDhzVCS\n1BnKwcjAwADCJUl6AJHzi6mJAAAA\n'
p3129
sg19
g146
sg21
I595
ssg195
I1
sg197
I1
sg149
I0
sg2038
I0
sg2039
F0.5
sg2040
I0
sg155
I0
sg137
I0
sg199
(dp3130
g18
S'H4sIAIzzH04C/2tgSs4rzS2o1EvOL0rVyy3NKclMLCpKrOSKL0pNzs8rLikqTS7hKmSEqOLKS4HI\nFjJ5M7SGMia1BxUya3gzejO1QhWklFQWpHIVsoQypVl4M3gzAhWwangzhzLa+Pn5ef0HAjDhzVCS\n1BkqYMt1fXGB7Sv7WTNBYKd9SZIeADd4AQGRAAAA\n'
p3131
sg19
g146
sg21
I597
ssg2043
F0.01
ssg19
g78
sg21
I594
sssg2044
(dp3132
g2
(lp3133
((g4
g5
tI-1
tp3134
a((g7
g5
tI-1
tp3135
a((g101
g102
tI-1
tp3136
a((g104
g105
tI-1
tp3137
a((g107
g108
tI-1
tp3138
a((g582
g583
tI-1
tp3139
a((g2053
g2054
tI-1
tp3140
a((g2056
g2057
tI-1
tp3141
a((g2059
g2060
tI-1
tp3142
asg15
g2059
sg16
(dp3143
g18
Nsg19
g48
sg21
I16
ssg19
g22
sg21
I590
sg23
g2060
sg18
(dp3144
g18
(dp3145
g2065
I1
sg591
S'i'
sg2066
I1
sg149
I0
sg137
I0
sg592
I0
sg595
I0
sg155
I0
sg2067
I1
sg594
F0.5
sg2068
I1
sg2069
I1
sg2070
I1
sg596
I0
sg2071
I1
sg2072
I0
sg2073
I0
sg597
I0
sg2074
I1
ssg19
g78
sg21
I591
sssg2075
I00
sg1926
I00
sg2076
g2077
sg2078
I01
sg56
S''
sg2079
I8
sg2080
(dp3146
g18
Nsg19
g48
sg21
I581
ssg2082
S'point_scalars'
p3147
sg204
S''
sg2084
I01
sg2085
(dp3148
g2
(lp3149
((g4
g5
tI-1
tp3150
a((g7
g5
tI-1
tp3151
a((g101
g102
tI-1
tp3152
a((g104
g105
tI-1
tp3153
a((g107
g108
tI-1
tp3154
a((g174
g175
tI-1
tp3155
a((g2094
g2095
tI-1
tp3156
a((g2097
g2098
tI-1
tp3157
asg15
g2097
sg16
(dp3158
g18
Nsg19
g48
sg21
I16
ssg19
g22
sg21
I602
sg23
g2098
sg18
(dp3159
g18
(dp3160
g191
g2103
sg194
I1
sg2104
F0.17000000000000001
sg198
I1
sg2105
I0
sg2106
S'point_scalars'
p3161
sg2108
S'%-#6.3g'
p3162
sg2110
F0.80000000000000004
sg2111
F10
sg2112
g2113
sg202
I1
sg2114
I0
sg195
I1
sg197
I1
sg149
I0
sg2115
I256
sg2116
I1
sg196
I1
sg2079
I8
sg155
I0
sg2028
(dp3163
g18
S'H4sIAIzzH04C/2tgSs4rzS2o1EvOL0rVyy3NKclMLCpKrOSKL0pNzs8rLikqTS7hKmSEqOLKS4HI\nFjJ5M7SGMia1BxUya3gzejO1QhWklFQWpHIVsoQypVl4M3gzAhWwangzhzLa+Pn5ef0HAjDhzVCS\n1BkqMGsmCLy0P/xVI6b/0FH7kiQ9AGpIg++RAAAA\n'
p3164
sg19
g146
sg21
I605
ssg2119
I0
sg137
I0
sg199
(dp3165
g18
S'H4sIAIzzH04C/2tgSs4rzS2o1EvOL0rVyy3NKclMLCpKrOSKL0pNzs8rLikqTS7hKmSEqOLKS4HI\nFjJ5M7SGMia1BxUya3gzejO1QhWklFQWpHIVsoQypVl4M3gzAhWwangzhzLa+Pn5ef0HAjDhzVCS\n1BkqMGsmCOy0rxZZ5/6wqsW+JEkPAHMFfKeRAAAA\n'
p3166
sg19
g146
sg21
I604
sssg19
g78
sg21
I603
ssssg19
g78
sg21
I577
sssg19
S' colors and legends'
p3167
sg1048
(dp3168
g18
(lp3169
(dp3170
g2
(lp3171
((g4
g5
tI-1
tp3172
a((g30
g5
tI-1
tp3173
a((g32
g33
tI-1
tp3174
a((g35
g36
tI0
tp3175
a((g38
g39
tI0
tp3176
a((g41
g42
tI0
tp3177
a((S'Outline'
p3178
S'enthought.mayavi.modules.outline'
p3179
tI0
tp3180
asg15
g3178
sg16
(dp3181
g18
Nsg19
g48
sg21
I1
ssg19
g22
sg21
I543
sg23
g3179
sg18
(dp3182
g18
(dp3183
g58
(dp3184
g18
Nsg19
g48
sg21
I5
ssg52
(dp3185
g18
(lp3186
sg19
g55
sg21
I545
ssg56
S'Outline'
p3187
sS'_full_outline'
p3188
(dp3189
g2
(lp3190
((g4
g5
tI-1
tp3191
a((g7
g5
tI-1
tp3192
a((g101
g102
tI-1
tp3193
a((g104
g105
tI-1
tp3194
a((g107
g108
tI-1
tp3195
a((g110
g111
tI-1
tp3196
a((g302
g303
tI-1
tp3197
a((S'OutlineFilter'
p3198
S'tvtk_classes.outline_filter'
p3199
tI-1
tp3200
asg15
g3198
sg16
(dp3201
g18
Nsg19
g48
sg21
I16
ssg19
g22
sg21
I574
sg23
g3199
sg18
(dp3202
g18
(dp3203
g153
I0
sg147
Nsg158
I0
sg155
I0
sg149
I0
sg140
I0
sg141
I0
sg137
I0
sg142
F1
ssg19
g78
sg21
I575
sssS'manual_bounds'
p3204
I00
sg205
(dp3205
g2
(lp3206
((g4
g5
tI-1
tp3207
a((g62
g63
tI-1
tp3208
asg15
g62
sg16
(dp3209
g18
Nsg19
g48
sg21
I1
ssg19
g22
sg21
I567
sg23
g63
sg18
(dp3210
g18
(dp3211
g68
(dp3212
g18
(lp3213
g265
asg19
g55
sg21
I569
ssg71
(dp3214
g18
(lp3215
g265
asg19
g55
sg21
I570
ssg75
(dp3216
g18
(lp3217
g265
asg19
g55
sg21
I571
sssg19
g78
sg21
I568
sssg79
(dp3218
g2
(lp3219
((g4
g5
tI-1
tp3220
a((g30
g5
tI-1
tp3221
a((g32
g33
tI-1
tp3222
a((g35
g36
tI0
tp3223
a((g38
g39
tI0
tp3224
a((g87
g88
tI0
tp3225
a((g90
g91
tI0
tp3226
asg15
g90
sg16
(dp3227
g18
Nsg19
g48
sg21
I1
ssg19
g22
sg21
I546
sg23
g91
sg18
(dp3228
g18
(dp3229
g96
(dp3230
g2
(lp3231
((g4
g5
tI-1
tp3232
a((g7
g5
tI-1
tp3233
a((g101
g102
tI-1
tp3234
a((g104
g105
tI-1
tp3235
a((g107
g108
tI-1
tp3236
a((g110
g111
tI-1
tp3237
a((g113
g114
tI-1
tp3238
a((g116
g117
tI-1
tp3239
a((g119
g120
tI-1
tp3240
a((g421
g422
tI-1
tp3241
asg15
g421
sg16
(dp3242
g18
Nsg19
g48
sg21
I16
ssg19
g22
sg21
I555
sg23
g422
sg18
(dp3243
g18
(dp3244
g128
I0
sg129
I0
sg130
g131
sg132
I0
sg155
I0
sg134
F0.01
sg427
I0
sg135
g131
sg136
I0
sg137
I0
sg138
I0
sg139
I1
sg140
I0
sg141
I0
sg142
F1
sg143
(dp3245
g18
S'H4sIAIzzH04C/2tgSs4rzS2o1EvOL0rVyy3NKclMLCpKrOSKL0pNzs8rLikqTS7hKmSEqOLKS4HI\nFjJ5M7SGMia1BxUya3gzejO1QhWklFQWpHIVsoQypVl4M3gzAhWwangzhzLa+Pn5ef0HAjDhzVCS\n1BkqwIACPtiXJOkBAIHIRA6RAAAA\n'
p3246
sg19
g146
sg21
I557
ssg147
Nsg148
I1
sg149
I0
sg151
I0
sg152
I1
sg153
I0
sg154
I1
sg133
I0
sg160
I0
sg156
I0
sg159
F0
sg430
I1
sg157
g131
sg158
I0
sg431
I0
sg432
I1
sg161
g162
sg163
I1
ssg19
g78
sg21
I556
sssg52
(dp3247
g18
(lp3248
sg19
g55
sg21
I548
ssg166
S''
sg58
Nsg79
(dp3249
g2
(lp3250
((g4
g5
tI-1
tp3251
a((g7
g5
tI-1
tp3252
a((g101
g102
tI-1
tp3253
a((g104
g105
tI-1
tp3254
a((g107
g108
tI-1
tp3255
a((g174
g175
tI-1
tp3256
a((g177
g178
tI-1
tp3257
a((g90
g180
tI-1
tp3258
asg15
g90
sg16
(dp3259
g18
Nsg19
g48
sg21
I16
ssg19
g22
sg21
I549
sg23
g180
sg18
(dp3260
g18
(dp3261
g185
(dp3262
g18
S'H4sIAIzzH04C/2tgSs4rzS2o1EvOL0rVyy3NKclMLCpKrOSKL0pNzs8rLikqTS7hKmSEqOLKS4HI\nFjJ5M7SGMia1BxUya3gzejO3QhWklFQWpHIVsoQypVl4M3gzAhWwangzhzLa+Pn5ef0HAjDhzVCS\n1BkqwYADlCTpAQD67GqfmQAAAA==\n'
p3263
sg19
g146
sg21
I551
ssg188
(dp3264
g18
S'H4sIAIzzH04C/2tgSs4rzS2o1EvOL0rVyy3NKclMLCpKrOSKL0pNzs8rLikqTS7hKmSEqOLKS4HI\nFjJ5M7SGMia1BxUya3gzejO3QhWklFQWpHIVsoQypVl4M3gzAhWwangzhzLa+Pn5ef0HAjDhzVCS\n1BkqwQAGH+zR6ZIkPQDfyO6fmQAAAA==\n'
p3265
sg19
g146
sg21
I553
ssg191
(dp3266
g18
S'H4sIAIzzH04C/2tgSs4rzS2o1EvOL0rVyy3NKclMLCpKrOSKL0pNzs8rLikqTS7hKmSEqOLKS4HI\nFjJ5M7SGMia1BxUya3gzejO3QhWklFQWpHIVsoQypVl4M3gzAhWwangzhzLa+Pn5ef0HAjDhzVCS\n1BkqwYAKGmCMkiQ9ABqDrf+ZAAAA\n'
p3267
sg19
g146
sg21
I552
ssg137
I0
sg194
I1
sg195
I1
sg196
I1
sg197
I1
sg149
I0
sg155
I0
sg198
I1
sg199
(dp3268
g18
S'H4sIAIzzH04C/2tgSs4rzS2o1EvOL0rVyy3NKclMLCpKrOSKL0pNzs8rLikqTS7hKmSEqOLKS4HI\nFjJ5M7SGMia1BxUya3gzejO3QhWklFQWpHIVsoQypVl4M3gzAhWwangzhzLa+Pn5ef0HAjDhzVCS\n1BkqwYADlCTpAQD67GqfmQAAAA==\n'
p3269
sg19
g146
sg21
I554
ssg202
I1
ssg19
g78
sg21
I550
sssg203
I01
sg204
S''
sg205
Nsg206
Nsg207
(dp3270
g2
(lp3271
((g4
g5
tI-1
tp3272
a((g7
g5
tI-1
tp3273
a((g101
g102
tI-1
tp3274
a((g104
g105
tI-1
tp3275
a((g107
g108
tI-1
tp3276
a((g215
g216
tI-1
tp3277
a((g218
g219
tI-1
tp3278
asg15
g218
sg16
(dp3279
g18
Nsg19
g48
sg21
I16
ssg19
g22
sg21
I558
sg23
g219
sg18
(dp3280
g18
(dp3281
g224
(dp3282
g18
Nsg19
g48
sg21
I36
ssg227
I0
sg228
F1
sg229
(dp3283
g18
Nsg19
g48
sg21
I35
ssg232
F0
sg233
I0
sg234
g235
sg236
F1
sg237
I0
sg238
F1
sg239
(dp3284
g18
Nsg19
g48
sg21
I36
ssg241
(dp3285
g18
Nsg19
g48
sg21
I36
ssg243
I0
sg149
I0
sg244
I0
sg245
I0
sg246
F1
sg247
I0
sg155
I0
sg248
F0
sg249
I0
sg250
I65535
sg137
I0
sg251
g252
sg253
I1
sg254
F1
ssg19
g78
sg21
I559
sssg255
S''
ssg19
g78
sg21
I547
sssS'outline_mode'
p3286
S'cornered'
p3287
sg203
I01
sg204
S''
sS'outline_source'
p3288
(dp3289
g2
(lp3290
((g4
g5
tI-1
tp3291
a((g7
g5
tI-1
tp3292
a((g101
g102
tI-1
tp3293
a((g104
g105
tI-1
tp3294
a((g107
g108
tI-1
tp3295
a((g110
g111
tI-1
tp3296
a((g302
g303
tI-1
tp3297
a((S'OutlineSource'
p3298
S'tvtk_classes.outline_source'
p3299
tI-1
tp3300
asg15
g3298
sg16
(dp3301
g18
Nsg19
g48
sg21
I16
ssg19
g22
sg21
I560
sg23
g3299
sg18
(dp3302
g18
(dp3303
g137
I0
sg153
I0
sg147
NsS'bounds'
p3304
(dp3305
g18
S'H4sIAIzzH04C/2tgSs4rzS2o1EvOL0rVyy3NKclMLCpKrOSKL0pNzs8rLikqTS7hKmSEqOLKS4HI\nFjJ5M7SGMia1BxUya3gzerO1QhWklFQWpHIVsoQypVl4M3gzAhWwangzhzLa+Pn5ef0HAjDhzVCS\n1BlqwAAGH/ZDaXtC/JIkPQAkJDhIsQAAAA==\n'
p3306
sg19
g146
sg21
I563
ssg155
I0
sg149
I0
sg140
I0
sS'box_type'
p3307
S'axis_aligned'
p3308
sg141
I0
sS'corners'
p3309
(dp3310
g18
S'H4sIAIzzH04C/2tgSs4rzS2o1EvOL0rVyy3NKclMLCpKrOSKL0pNzs8rLikqTS7hKmSEqOLKS4HI\nFjJ5M7SGMia1BxUya3gzeku0QhWklFQWpHIVsoQypVl4M3gzAhWwangzhzLa+Pn5ef0HAjDhzVCS\n1Bl6gAEv+GBPmjyMT6w+XPpxqcOkS5L0ACNCKiRBAQAA\n'
p3311
sg19
g146
sg21
I562
ssg158
I0
sg142
F0
ssg19
g78
sg21
I561
sssS'_cornered_outline'
p3312
(dp3313
g2
(lp3314
((g4
g5
tI-1
tp3315
a((g7
g5
tI-1
tp3316
a((g101
g102
tI-1
tp3317
a((g104
g105
tI-1
tp3318
a((g107
g108
tI-1
tp3319
a((g110
g111
tI-1
tp3320
a((g302
g303
tI-1
tp3321
a((S'OutlineCornerFilter'
p3322
S'tvtk_classes.outline_corner_filter'
p3323
tI-1
tp3324
asg15
g3322
sg16
(dp3325
g18
Nsg19
g48
sg21
I16
ssg19
g22
sg21
I572
sg23
g3323
sg18
(dp3326
g18
(dp3327
S'corner_factor'
p3328
F0.20000000000000001
sg153
I0
sg147
Nsg158
I0
sg155
I0
sg149
I0
sg140
I0
sg141
I0
sg137
I0
sg142
F1
ssg19
g78
sg21
I573
sssg206
NsS'__listener_traits__'
p3329
(dp3330
g18
(dp3331
g3304
(dp3332
g2
(lp3333
sg15
S'function'
p3334
sg16
(dp3335
g18
Nsg19
g48
sg21
I1
ssg19
g22
sg21
I565
sg23
S'__builtin__'
p3336
sg18
(dp3337
g18
(dp3338
sg19
g78
sg21
I566
ssssg19
g78
sg21
I564
ssg255
g270
sg350
g351
ssg19
g78
sg21
I544
ssasg19
g55
sg21
I542
ssg350
g2251
ssg19
g78
sg21
I511
ssasg19
g55
sg21
I509
ssg350
g2753
ssg19
g78
sg21
I493
ssa(dp3339
g2
(lp3340
((g4
g5
tI-1
tp3341
a((g30
g5
tI-1
tp3342
a((g32
g33
tI-1
tp3343
a((g35
g36
tI0
tp3344
a((g38
g39
tI0
tp3345
a((g1545
g1546
tI0
tp3346
a((g2260
g2261
tI0
tp3347
a((S'FilterBase'
p3348
S'enthought.mayavi.filters.filter_base'
p3349
tI0
tp3350
a((S'GaussianSplatter'
p3351
S'enthought.mayavi.filters.gaussian_splatter'
p3352
tI0
tp3353
asg15
g3351
sg16
(dp3354
g18
Nsg19
g48
sg21
I1
ssg19
g22
sg21
I611
sg23
g3352
sg18
(dp3355
g18
(dp3356
g56
g3351
sg1851
(dp3357
g2
(lp3358
((g4
g5
tI-1
tp3359
a((g62
g63
tI-1
tp3360
asg15
g62
sg16
(dp3361
g18
Nsg19
g48
sg21
I1
ssg19
g22
sg21
I707
sg23
g63
sg18
(dp3362
g18
(dp3363
g68
(dp3364
g18
(lp3365
S'any'
p3366
asg19
g55
sg21
I709
ssg71
(dp3367
g18
(lp3368
S'image_data'
p3369
asg19
g55
sg21
I710
ssg75
(dp3370
g18
(lp3371
g3366
asg19
g55
sg21
I711
sssg19
g78
sg21
I708
sssg2340
(dp3372
g2
(lp3373
((g4
g5
tI-1
tp3374
a((g7
g5
tI-1
tp3375
a((g101
g102
tI-1
tp3376
a((g104
g105
tI-1
tp3377
a((g107
g108
tI-1
tp3378
a((g110
g111
tI-1
tp3379
a((S'ImageAlgorithm'
p3380
S'tvtk_classes.image_algorithm'
p3381
tI-1
tp3382
a((g3351
S'tvtk_classes.gaussian_splatter'
p3383
tI-1
tp3384
asg15
g3351
sg16
(dp3385
g18
Nsg19
g48
sg21
I16
ssg19
g22
sg21
I703
sg23
g3383
sg18
(dp3386
g18
(dp3387
S'scalar_warping_'
p3388
I1
sg1729
F0.10000000000000001
sS'capping'
p3389
I0
sS'accumulation_mode'
p3390
S'sum'
p3391
sS'normal_warping_'
p3392
I1
sg137
I0
sS'accumulation_mode_'
p3393
I2
sg147
Nsg140
I0
sg141
I0
sS'null_value'
p3394
F0
sg142
F1
sg553
F1
sS'scalar_warping'
p3395
I1
sS'eccentricity'
p3396
F2.5
sS'normal_warping'
p3397
I1
sS'model_bounds'
p3398
(dp3399
g18
S'H4sIAIzzH04C/2tgSs4rzS2o1EvOL0rVyy3NKclMLCpKrOSKL0pNzs8rLikqTS7hKmSEqOLKS4HI\nFjJ5M7SGMia1BxUya3gzerO1QhWklFQWpHIVsoQypVl4M3gzAhWwangzhzLa+Pn5ef0HAjDhzVCS\n1BlqwAAGGgegtMOJ/2CwH8I3cwASX2pv/QPxCzYEKjuUJOkBADJydJGxAAAA\n'
p3400
sg19
g146
sg21
I706
ssg149
I0
sg153
I0
sg155
I0
sS'sample_dimensions'
p3401
(dp3402
g18
S'H4sIAIzzH04C/2tgSs4rzS2o1EvOL0rVyy3NKclMLCpKrOSKL0pNzs8rLikqTS7hKmSEqOLKS4HI\nFjJ5M7SGMia1BxUya3gzejO3QhWklFQWpHIVsoQyZZp4M3gzAhWwangzhzLa+Pn5ef0HAjDhzVCS\n1BnKY8TAwADDJUl6ANDnscGNAAAA\n'
p3403
sg19
g146
sg21
I705
ssS'exponent_factor'
p3404
F-5
sS'cap_value'
p3405
F0
sg158
I0
sS'capping_'
p3406
I0
ssg19
g78
sg21
I704
sssg203
I01
sg204
S''
sg2985
Nsg19
S' filter'
p3407
sg1048
(dp3408
g18
(lp3409
(dp3410
g2
(lp3411
((g4
g5
tI-1
tp3412
a((g30
g5
tI-1
tp3413
a((g32
g33
tI-1
tp3414
a((g35
g36
tI0
tp3415
a((g1875
g1876
tI0
tp3416
asg15
g1875
sg16
(dp3417
g18
Nsg19
g48
sg21
I1
ssg19
g22
sg21
I614
sg23
g1876
sg18
(dp3418
g18
(dp3419
g56
S'Colors and legends'
p3420
sg1882
g1883
sg1048
(dp3421
g18
(lp3422
(dp3423
g2
(lp3424
((g4
g5
tI-1
tp3425
a((g30
g5
tI-1
tp3426
a((g32
g33
tI-1
tp3427
a((g35
g36
tI0
tp3428
a((g38
g39
tI0
tp3429
a((g41
g42
tI0
tp3430
a((g44
g45
tI0
tp3431
asg15
g44
sg16
(dp3432
g18
Nsg19
g48
sg21
I1
ssg19
g22
sg21
I617
sg23
g45
sg18
(dp3433
g18
(dp3434
g51
I01
sS'_widget_state'
p3435
(dp3436
g18
(lp3437
sg19
g55
sg21
I619
ssg56
g44
sg1851
(dp3438
g18
Nsg19
g48
sg21
I5
ssg79
(dp3439
g2
(lp3440
((g4
g5
tI-1
tp3441
a((g30
g5
tI-1
tp3442
a((g32
g33
tI-1
tp3443
a((g35
g36
tI0
tp3444
a((g38
g39
tI0
tp3445
a((g87
g88
tI0
tp3446
a((g90
g91
tI0
tp3447
asg15
g90
sg16
(dp3448
g18
Nsg19
g48
sg21
I1
ssg19
g22
sg21
I629
sg23
g91
sg18
(dp3449
g18
(dp3450
g96
(dp3451
g2
(lp3452
((g4
g5
tI-1
tp3453
a((g7
g5
tI-1
tp3454
a((g101
g102
tI-1
tp3455
a((g104
g105
tI-1
tp3456
a((g107
g108
tI-1
tp3457
a((g110
g111
tI-1
tp3458
a((g113
g114
tI-1
tp3459
a((g116
g117
tI-1
tp3460
a((g119
g120
tI-1
tp3461
a((g122
g123
tI-1
tp3462
asg15
g122
sg16
(dp3463
g18
Nsg19
g48
sg21
I16
ssg19
g22
sg21
I638
sg23
g123
sg18
(dp3464
g18
(dp3465
g128
I0
sg129
I0
sg130
g131
sg132
I0
sg133
I0
sg134
F0.01
sg135
g131
sg136
I0
sg137
I0
sg138
I0
sg139
I1
sg140
I0
sg141
I0
sg142
F1
sg143
(dp3466
g18
S'H4sIAIzzH04C/2tgSs4rzS2o1EvOL0rVyy3NKclMLCpKrOSKL0pNzs8rLikqTS7hKmSEqOLKS4HI\nFjJ5M7SGMia1BxUya3gzejO1QhWklFQWpHIVsoQypVl4M3gzAhWwangzhzLa+Pn5ef0HAjDhzVCS\n1BkqwIACPtiXJOkBAIHIRA6RAAAA\n'
p3467
sg19
g146
sg21
I640
ssg147
Nsg148
I1
sg149
I0
sg150
I0
sg151
I0
sg152
I1
sg153
I0
sg154
I1
sg155
I0
sg156
I0
sg157
g131
sg158
I0
sg159
F0
sg160
I0
sg161
g162
sg163
I1
ssg19
g78
sg21
I639
sssg3435
(dp3468
g18
(lp3469
sg19
g55
sg21
I631
ssg56
S''
sg1851
Nsg79
(dp3470
g2
(lp3471
((g4
g5
tI-1
tp3472
a((g7
g5
tI-1
tp3473
a((g101
g102
tI-1
tp3474
a((g104
g105
tI-1
tp3475
a((g107
g108
tI-1
tp3476
a((g174
g175
tI-1
tp3477
a((g177
g178
tI-1
tp3478
a((g90
g180
tI-1
tp3479
asg15
g90
sg16
(dp3480
g18
Nsg19
g48
sg21
I16
ssg19
g22
sg21
I632
sg23
g180
sg18
(dp3481
g18
(dp3482
g185
(dp3483
g18
S'H4sIAIzzH04C/2tgSs4rzS2o1EvOL0rVyy3NKclMLCpKrOSKL0pNzs8rLikqTS7hKmSEqOLKS4HI\nFjJ5M7SGMia1BxUya3gzejO3QhWklFQWpHIVsoQypVl4M3gzAhWwangzhzLa+Pn5ef0HAjDhzVCS\n1BkqwYADlCTpAQD67GqfmQAAAA==\n'
p3484
sg19
g146
sg21
I634
ssg188
(dp3485
g18
S'H4sIAIzzH04C/2tgSs4rzS2o1EvOL0rVyy3NKclMLCpKrOSKL0pNzs8rLikqTS7hKmSEqOLKS4HI\nFjJ5M7SGMia1BxUya3gzejO3QhWklFQWpHIVsoQypVl4M3gzAhWwangzhzLa+Pn5ef0HAjDhzVCS\n1BkqwQAGH+zR6ZIkPQDfyO6fmQAAAA==\n'
p3486
sg19
g146
sg21
I636
ssg191
(dp3487
g18
S'H4sIAIzzH04C/2tgSs4rzS2o1EvOL0rVyy3NKclMLCpKrOSKL0pNzs8rLikqTS7hKmSEqOLKS4HI\nFjJ5M7SGMia1BxUya3gzejO3QhWklFQWpHIVsoQypVl4M3gzAhWwangzhzLa+Pn5ef0HAjDhzVCS\n1BkqwYAKGmCMkiQ9ABqDrf+ZAAAA\n'
p3488
sg19
g146
sg21
I635
ssg137
I0
sg194
I1
sg195
I1
sg196
I1
sg197
I1
sg149
I0
sg155
I0
sg198
I1
sg199
(dp3489
g18
S'H4sIAIzzH04C/2tgSs4rzS2o1EvOL0rVyy3NKclMLCpKrOSKL0pNzs8rLikqTS7hKmSEqOLKS4HI\nFjJ5M7SGMia1BxUya3gzejO3QhWklFQWpHIVsoQypVl4M3gzAhWwangzhzLa+Pn5ef0HAjDhzVCS\n1BkqwYADlCTpAQD67GqfmQAAAA==\n'
p3490
sg19
g146
sg21
I637
ssg202
I1
ssg19
g78
sg21
I633
sssg203
I01
sg204
S''
sS'input_info'
p3491
Nsg2985
Nsg207
(dp3492
g2
(lp3493
((g4
g5
tI-1
tp3494
a((g7
g5
tI-1
tp3495
a((g101
g102
tI-1
tp3496
a((g104
g105
tI-1
tp3497
a((g107
g108
tI-1
tp3498
a((g215
g216
tI-1
tp3499
a((g218
g219
tI-1
tp3500
asg15
g218
sg16
(dp3501
g18
Nsg19
g48
sg21
I16
ssg19
g22
sg21
I641
sg23
g219
sg18
(dp3502
g18
(dp3503
g224
(dp3504
g18
Nsg19
g48
sg21
I36
ssg227
I0
sg228
F1
sg229
(dp3505
g18
Nsg19
g48
sg21
I35
ssg232
F0
sg233
I0
sg234
g235
sg236
F0.93359999999999999
sg237
I0
sg238
F1
sg239
(dp3506
g18
Nsg19
g48
sg21
I36
ssg241
(dp3507
g18
Nsg19
g48
sg21
I36
ssg243
I0
sg149
I0
sg244
I0
sg245
I0
sg246
F1
sg247
I0
sg155
I0
sg248
F0
sg249
I0
sg250
I65535
sg137
I0
sg251
g252
sg253
I1
sg254
F2
ssg19
g78
sg21
I642
sssg19
S''
ssg19
g78
sg21
I630
sssg203
I01
sg204
S''
sg3491
(dp3508
g18
Nsg19
g48
sg21
I37
ssg2985
Nsg19
S' module'
p3509
sg271
(dp3510
g2
(lp3511
((g4
g5
tI-1
tp3512
a((g30
g5
tI-1
tp3513
a((g32
g33
tI-1
tp3514
a((g35
g36
tI0
tp3515
a((g38
g39
tI0
tp3516
a((g87
g88
tI0
tp3517
a((g280
g281
tI0
tp3518
asg15
g280
sg16
(dp3519
g18
Nsg19
g48
sg21
I1
ssg19
g22
sg21
I620
sg23
g281
sg18
(dp3520
g18
(dp3521
g3435
(dp3522
g18
(lp3523
sg19
g55
sg21
I622
ssg56
S''
sg288
I00
sg3491
Nsg289
(dp3524
g18
(F0
F561.47503604247345
tp3525
sg19
g20
sg21
I623
ssg292
I00
sg203
I01
sg204
S''
sg293
(dp3526
g2
(lp3527
((g4
g5
tI-1
tp3528
a((g7
g5
tI-1
tp3529
a((g101
g102
tI-1
tp3530
a((g104
g105
tI-1
tp3531
a((g107
g108
tI-1
tp3532
a((g110
g111
tI-1
tp3533
a((g302
g303
tI-1
tp3534
a((g305
g306
tI-1
tp3535
asg15
g305
sg16
(dp3536
g18
Nsg19
g48
sg21
I16
ssg19
g22
sg21
I624
sg23
g306
sg18
(dp3537
g18
(dp3538
g312
I0
sg149
I0
sg313
I0
sg147
Nsg314
I0
sg153
I0
sg315
I1
sg316
I1
sg317
I1
sg318
I0
sg319
I0
sg140
I0
sg155
I0
sg141
I0
sg320
I1
sg158
I0
sg142
F1
sg321
I1
sg137
I0
ssg19
g78
sg21
I625
sssS'_traits_cache_minimum_contour'
p3539
F0
sg323
(dp3540
g18
(lp3541
F0.99711171220942885
asg19
g55
sg21
I626
ssg2738
(dp3542
g2
(lp3543
((g4
g5
tI-1
tp3544
a((g7
g5
tI-1
tp3545
a((g101
g102
tI-1
tp3546
a((g104
g105
tI-1
tp3547
a((g107
g108
tI-1
tp3548
a((g110
g111
tI-1
tp3549
a((g302
g303
tI-1
tp3550
a((g336
g337
tI-1
tp3551
asg15
g336
sg16
(dp3552
g18
Nsg19
g48
sg21
I16
ssg19
g22
sg21
I627
sg23
g337
sg18
(dp3553
g18
(dp3554
g155
I0
sg342
I1
sg153
I0
sg343
I1
sg130
g344
sg345
I0
sg147
Nsg137
I0
sg149
I0
sg140
I0
sg150
I1
sg141
I0
sg158
I0
sg142
F1
sg321
I10
sg346
I0
ssg19
g78
sg21
I628
sssg1851
NsS'show_filled_contours'
p3555
I01
sg348
I01
sg2985
Nsg321
I10
sg19
S''
sS'_traits_cache_maximum_contour'
p3556
F0.99711171220942885
ssg19
g78
sg21
I621
sssg350
S'module.ico'
p3557
ssg19
g78
sg21
I618
ssasg19
g55
sg21
I616
ssg204
S''
sg2122
(dp3558
g2
(lp3559
((g4
g5
tI-1
tp3560
a((g30
g5
tI-1
tp3561
a((g32
g33
tI-1
tp3562
a((g35
g36
tI0
tp3563
a((g1891
g1892
tI0
tp3564
asg15
g1891
sg16
(dp3565
g18
Nsg19
g48
sg21
I1
ssg19
g22
sg21
I673
sg23
g1892
sg18
(dp3566
g18
(dp3567
g1897
(dp3568
g2
(lp3569
((g4
g5
tI-1
tp3570
a((g7
g5
tI-1
tp3571
a((g101
g102
tI-1
tp3572
a((g104
g105
tI-1
tp3573
a((g107
g108
tI-1
tp3574
a((g1905
g1906
tI-1
tp3575
asg15
g1905
sg16
(dp3576
g18
Nsg19
g48
sg21
I16
ssg19
g22
sg21
I675
sg23
g1906
sg18
(dp3577
g18
(dp3578
g236
F1
sg1911
g1912
sg1913
I12
sg191
F0
sg1914
F0
sg1915
I1
sg1916
g1917
sg1918
I0
sg155
I0
sg1919
F1.1000000000000001
sg802
(dp3579
g18
Nsg19
g48
sg21
I36
ssg1921
I1
sg1922
(dp3580
g18
S'H4sIAIzzH04C/2tgSs4rzS2o1EvOL0rVyy3NKclMLCpKrOSKL0pNzs8rLikqTS7hKmSEqOLKS4HI\nFjJ5M7SGMia1BxUya3gzejO1QhWklFQWpHIVsoQyZZp4M3gzAhWwangzhzLa+Pn5ef0HAjDhzVCS\n1BnKwcjAwADiliTpAQCk2G9tiQAAAA==\n'
p3581
sg19
g146
sg21
I677
ssg137
I0
sg1925
I1
sg1926
I0
sg1927
g1928
sg149
I0
sg1929
I1
ssg19
g78
sg21
I676
sssg2941
S''
sg1931
S'SplatterValues'
p3582
sg203
I01
sg1934
(dp3583
g18
S'H4sIAIzzH04C/2tgSs4rzS2o1EvOL0rVyy3NKclMLCpKrOSKL0pNzs8rLikqTS7hKmSEqOLKS4HI\nFjJ5M7SGMia1BxUya3gzejO1QhWklFQWpHIVsoQypVl4M3gzAhWwangzhzLa+Pn5ef0HAjDhzVCS\n1BkqwAAFh8I23T/T3ehQkqQHAMVPAHKRAAAA\n'
p3584
sg19
g146
sg21
I678
ssg1937
(dp3585
g2
(lp3586
((g4
g5
tI-1
tp3587
a((g7
g5
tI-1
tp3588
a((g101
g102
tI-1
tp3589
a((g104
g105
tI-1
tp3590
a((g107
g108
tI-1
tp3591
a((g1945
g1946
tI-1
tp3592
a((g1948
g1949
tI-1
tp3593
asg15
g1948
sg16
(dp3594
g18
Nsg19
g48
sg21
I16
ssg19
g22
sg21
I679
sg23
g1949
sg18
(dp3595
g18
(dp3596
g1954
I2
sg188
g1955
sg1956
(dp3597
g18
S'H4sIAIzzH04C/2tgSs4rzS2o1EvOL0rVyy3NKclMLCpKrOSKL0pNzs8rLikqTS7hKmSEqOLKS4HI\nFjJ5M7SGMia1BxUya3gzejO1QhWklFQWpHIVsoQypVl4M3gzAhWwangzhzLa+Pn5ef0HAjDhzVCS\n1BkqwIAGSpL0ACtwOO6RAAAA\n'
p3598
sg19
g146
sg21
I681
ssg1959
(dp3599
g18
S'H4sIAIzzH04C/2tgSs4rzS2o1EvOL0rVyy3NKclMLCpKrOSKL0pNzs8rLikqTS7hKmSEqOLKS4HI\nFjJ5M7SGMia1BxUya3gzejO1QhWklFQWpHIVsoQypVl4M3gzAhWwangzhzLa+Pn5ef0HAjDhzVCS\n1BkqwAAFh8I23T/T3ehQkqQHAMVPAHKRAAAA\n'
p3600
sg19
g146
sg21
I683
ssg1962
(dp3601
g18
S'H4sIAIzzH04C/2tgSs4rzS2o1EvOL0rVyy3NKclMLCpKrOSKL0pNzs8rLikqTS7hKmSEqOLKS4HI\nFjJ5M7SGMia1BxUya3gzejO1QhWklFQWpHIVsoQypVl4M3gzAhWwangzhzLa+Pn5ef0HAjDhzVCS\n1BkqwIAGSpL0ACtwOO6RAAAA\n'
p3602
sg19
g146
sg21
I682
ssg1965
I256
sg1966
g1967
sg155
I0
sg1968
I256
sg1969
(dp3603
g18
S'H4sIAIzzH04C/2tgSs4rzS2o1EvOL0rVyy3NKclMLCpKrOSKL0pNzs8rLikqTS7hKmSEqOLKS4HI\nFjJ5M7SGMia1BxUya3gzejO1QhWklFQWpHIVsoQypVl4M3gzAhWwangzhzLa+Pn5ef0HAjDhzVCS\n1BkqwAAGH+xhdEmSHgBnOGdykQAAAA==\n'
p3604
sg19
g146
sg21
I684
ssg1972
(dp3605
g18
S'H4sIAIzzH04C/2tgSs4rzS2o1EvOL0rVyy3NKclMLCpKrOSKL0pNzs8rLikqTS7hKmSEqOLKS4HI\nFjJ5M7SGMia1BxUya3gzejO1QhWklFQWpHIVsoQypVl4M3gzAhWwangzhzLa+Pn5ef0HAjDhzVCS\n1BkqwAAFh8I23T/T3ehQkqQHAMVPAHKRAAAA\n'
p3606
sg19
g146
sg21
I685
ssg1975
I0
sg1976
(dp3607
g18
S'H4sIAIzzH04C/2tgSs4rzS2o1EvOL0rVyy3NKclMLCpKrOSKL0pNzs8rLikqTS7hKmSEqOLKS4HI\nFjJ5M7SGMia1BxUya3gzejO1QhWklFQWpHIVsoQypVl4M3gzAhWwangzhzLa+Pn5ef0HAjDhzVCS\n1BkqwIACPtiXJOkBAIHIRA6RAAAA\n'
p3608
sg19
g146
sg21
I686
ssg137
I0
sg1979
F0.93359999999999999
sg1980
g1981
sg149
I0
ssg19
g78
sg21
I680
sssg1982
(dp3609
g2
(lp3610
((g4
g5
tI-1
tp3611
a((g7
g5
tI-1
tp3612
a((g101
g102
tI-1
tp3613
a((g104
g105
tI-1
tp3614
a((g107
g108
tI-1
tp3615
a((g1905
g1906
tI-1
tp3616
asg15
g1905
sg16
(dp3617
g18
Nsg19
g48
sg21
I16
ssg19
g22
sg21
I696
sg23
g1906
sg18
(dp3618
g18
(dp3619
g236
F1
sg1911
g1912
sg1913
I12
sg191
F0
sg1914
F0
sg1915
I1
sg1916
g1917
sg1918
I0
sg155
I0
sg1919
F1.1000000000000001
sg802
(dp3620
g18
Nsg19
g48
sg21
I36
ssg1921
I1
sg1922
(dp3621
g18
S'H4sIAIzzH04C/2tgSs4rzS2o1EvOL0rVyy3NKclMLCpKrOSKL0pNzs8rLikqTS7hKmSEqOLKS4HI\nFjJ5M7SGMia1BxUya3gzejO1QhWklFQWpHIVsoQyZZp4M3gzAhWwangzhzLa+Pn5ef0HAjDhzVCS\n1BnKwcjAwADiliTpAQCk2G9tiQAAAA==\n'
p3622
sg19
g146
sg21
I698
ssg137
I0
sg1925
I1
sg1926
I0
sg1927
g1928
sg149
I0
sg1929
I1
ssg19
g78
sg21
I697
sssg1968
I256
sg2982
(dp3623
g18
S'H4sIAIzzH04C/2tgSs4rzS2o1EvOL0rVyy3NKclMLCpKrOSKL0pNzs8rLikqTS7hKmSEqOLKS4HI\nFjJ5M7SGMia1BxUya3gzejO1QhWklFQWpHIVsoQypVl4M3gzAhWwangzhzLa+Pn5ef0HAjDhzVCS\n1BkqwIACPtiXJOkBAIHIRA6RAAAA\n'
p3624
sg19
g146
sg21
I689
ssg2985
Nsg2000
I00
sg19
S''
sg2986
(dp3625
g2
(lp3626
((g4
g5
tI-1
tp3627
a((g7
g5
tI-1
tp3628
a((g101
g102
tI-1
tp3629
a((g104
g105
tI-1
tp3630
a((g107
g108
tI-1
tp3631
a((g174
g175
tI-1
tp3632
a((g2010
g2011
tI-1
tp3633
a((g2013
g2014
tI-1
tp3634
a((g2016
g2017
tI-1
tp3635
asg15
g2016
sg16
(dp3636
g18
Nsg19
g48
sg21
I16
ssg19
g22
sg21
I690
sg23
g2017
sg18
(dp3637
g18
(dp3638
g191
I1
sg2022
I0
sg194
I1
sg196
I1
sg2023
g2024
sg198
I1
sg2025
I2
sg2026
I0
sg2027
I0
sg2028
(dp3639
g18
S'H4sIAIzzH04C/2tgSs4rzS2o1EvOL0rVyy3NKclMLCpKrOSKL0pNzs8rLikqTS7hKmSEqOLKS4HI\nFjJ5M7SGMia1BxUya3gzejO1QhWklFQWpHIVsoQypVl4M3gzAhWwangzhzLa+Pn5ef0HAjDhzVCS\n1BkqcPirRkz/oaP2s2aCwEv7kiQ9AC+e0nyRAAAA\n'
p3640
sg19
g146
sg21
I693
ssg2031
I0
sg2032
(dp3641
g18
S'H4sIAIzzH04C/2tgSs4rzS2o1EvOL0rVyy3NKclMLCpKrOSKL0pNzs8rLikqTS7hKmSEqOLKS4HI\nFjJ5M7SGMia1BxUya3gzejO1QhWklFQWpHIVsoQyZZp4M3gzAhWwangzhzLa+Pn5ef0HAjDhzVCS\n1BnKsaCNkQGES5L0ALP9TXGJAAAA\n'
p3642
sg19
g146
sg21
I695
ssg202
I1
sg512
I3
sg2035
(dp3643
g18
S'H4sIAIzzH04C/2tgSs4rzS2o1EvOL0rVyy3NKclMLCpKrOSKL0pNzs8rLikqTS7hKmSEqOLKS4HI\nFjJ5M7SGMia1BxUya3gzejO1QhWklFQWpHIVsoQyZZp4M3gzAhWwangzhzLa+Pn5ef0HAjDhzVCS\n1BnKwcjAwADCJUl6AJHzi6mJAAAA\n'
p3644
sg19
g146
sg21
I692
ssg195
I1
sg197
I1
sg149
I0
sg2038
I0
sg2039
F0.5
sg2040
I0
sg155
I0
sg137
I0
sg199
(dp3645
g18
S'H4sIAIzzH04C/2tgSs4rzS2o1EvOL0rVyy3NKclMLCpKrOSKL0pNzs8rLikqTS7hKmSEqOLKS4HI\nFjJ5M7SGMia1BxUya3gzejO1QhWklFQWpHIVsoQypVl4M3gzAhWwangzhzLa+Pn5ef0HAjDhzVCS\n1BkqYMt1fXGB7Sv7WTNBYKd9SZIeADd4AQGRAAAA\n'
p3646
sg19
g146
sg21
I694
ssg2043
F0.01
ssg19
g78
sg21
I691
sssg2044
(dp3647
g2
(lp3648
((g4
g5
tI-1
tp3649
a((g7
g5
tI-1
tp3650
a((g101
g102
tI-1
tp3651
a((g104
g105
tI-1
tp3652
a((g107
g108
tI-1
tp3653
a((g582
g583
tI-1
tp3654
a((g2053
g2054
tI-1
tp3655
a((g2056
g2057
tI-1
tp3656
a((g2059
g2060
tI-1
tp3657
asg15
g2059
sg16
(dp3658
g18
Nsg19
g48
sg21
I16
ssg19
g22
sg21
I687
sg23
g2060
sg18
(dp3659
g18
(dp3660
g2065
I1
sg591
S'i'
sg2066
I1
sg149
I0
sg137
I0
sg592
I0
sg595
I0
sg155
I0
sg2067
I1
sg594
F0.5
sg2068
I1
sg2069
I1
sg2070
I1
sg596
I0
sg2071
I1
sg2072
I0
sg2073
I0
sg597
I0
sg2074
I1
ssg19
g78
sg21
I688
sssg2075
I00
sg1926
I00
sg2076
S'Greys'
p3661
sg2078
I01
sg56
S''
sg2079
I8
sg2080
(dp3662
g18
Nsg19
g48
sg21
I678
ssg2082
S'SplatterValues'
p3663
sg204
S''
sg2084
I01
sg2085
(dp3664
g2
(lp3665
((g4
g5
tI-1
tp3666
a((g7
g5
tI-1
tp3667
a((g101
g102
tI-1
tp3668
a((g104
g105
tI-1
tp3669
a((g107
g108
tI-1
tp3670
a((g174
g175
tI-1
tp3671
a((g2094
g2095
tI-1
tp3672
a((g2097
g2098
tI-1
tp3673
asg15
g2097
sg16
(dp3674
g18
Nsg19
g48
sg21
I16
ssg19
g22
sg21
I699
sg23
g2098
sg18
(dp3675
g18
(dp3676
g191
g2103
sg194
I1
sg2104
F0.17000000000000001
sg198
I1
sg2105
I0
sg2106
S'SplatterValues'
p3677
sg2108
S'%-#6.3g'
p3678
sg2110
F0.80000000000000004
sg2111
F10
sg2112
g2113
sg202
I1
sg2114
I0
sg195
I1
sg197
I1
sg149
I0
sg2115
I256
sg2116
I1
sg196
I1
sg2079
I8
sg155
I0
sg2028
(dp3679
g18
S'H4sIAIzzH04C/2tgSs4rzS2o1EvOL0rVyy3NKclMLCpKrOSKL0pNzs8rLikqTS7hKmSEqOLKS4HI\nFjJ5M7SGMia1BxUya3gzejO1QhWklFQWpHIVsoQypVl4M3gzAhWwangzhzLa+Pn5ef0HAjDhzVCS\n1BkqMGsmCLy0P/xVI6b/0FH7kiQ9AGpIg++RAAAA\n'
p3680
sg19
g146
sg21
I702
ssg2119
I0
sg137
I0
sg199
(dp3681
g18
S'H4sIAIzzH04C/2tgSs4rzS2o1EvOL0rVyy3NKclMLCpKrOSKL0pNzs8rLikqTS7hKmSEqOLKS4HI\nFjJ5M7SGMia1BxUya3gzejO1QhWklFQWpHIVsoQypVl4M3gzAhWwangzhzLa+Pn5ef0HAjDhzVCS\n1BkqMGsmCOy0rxZZ5/6wqsW+JEkPAHMFfKeRAAAA\n'
p3682
sg19
g146
sg21
I701
sssg19
g78
sg21
I700
ssssg19
g78
sg21
I674
sssg19
g3167
sg1884
(dp3683
g2
(lp3684
((g4
g5
tI-1
tp3685
a((g30
g5
tI-1
tp3686
a((g32
g33
tI-1
tp3687
a((g35
g36
tI0
tp3688
a((g1891
g1892
tI0
tp3689
asg15
g1891
sg16
(dp3690
g18
Nsg19
g48
sg21
I1
ssg19
g22
sg21
I643
sg23
g1892
sg18
(dp3691
g18
(dp3692
g1897
(dp3693
g2
(lp3694
((g4
g5
tI-1
tp3695
a((g7
g5
tI-1
tp3696
a((g101
g102
tI-1
tp3697
a((g104
g105
tI-1
tp3698
a((g107
g108
tI-1
tp3699
a((g1905
g1906
tI-1
tp3700
asg15
g1905
sg16
(dp3701
g18
Nsg19
g48
sg21
I16
ssg19
g22
sg21
I645
sg23
g1906
sg18
(dp3702
g18
(dp3703
g236
F1
sg1911
g1912
sg1913
I12
sg191
F0
sg1914
F0
sg1915
I1
sg1916
g1917
sg1918
I0
sg155
I0
sg1919
F1.1000000000000001
sg802
(dp3704
g18
Nsg19
g48
sg21
I36
ssg1921
I1
sg1922
(dp3705
g18
S'H4sIAIzzH04C/2tgSs4rzS2o1EvOL0rVyy3NKclMLCpKrOSKL0pNzs8rLikqTS7hKmSEqOLKS4HI\nFjJ5M7SGMia1BxUya3gzejO1QhWklFQWpHIVsoQyZZp4M3gzAhWwangzhzLa+Pn5ef0HAjDhzVCS\n1BnKwcjAwADiliTpAQCk2G9tiQAAAA==\n'
p3706
sg19
g146
sg21
I647
ssg137
I0
sg1925
I1
sg1926
I0
sg1927
g1928
sg149
I0
sg1929
I1
ssg19
g78
sg21
I646
sssg2941
S''
sg1931
g2083
sg203
I01
sg1934
(dp3707
g18
S'H4sIAIzzH04C/2tgSs4rzS2o1EvOL0rVyy3NKclMLCpKrOSKL0pNzs8rLikqTS7hKmSEqOLKS4HI\nFjJ5M7SGMia1BxUya3gzejO1QhWklFQWpHIVsoQypVl4M3gzAhWwangzhzLa+Pn5ef0HAjDhzVCS\n1BkqwIACPtiXJOkBAIHIRA6RAAAA\n'
p3708
sg19
g146
sg21
I648
ssg1937
(dp3709
g2
(lp3710
((g4
g5
tI-1
tp3711
a((g7
g5
tI-1
tp3712
a((g101
g102
tI-1
tp3713
a((g104
g105
tI-1
tp3714
a((g107
g108
tI-1
tp3715
a((g1945
g1946
tI-1
tp3716
a((g1948
g1949
tI-1
tp3717
asg15
g1948
sg16
(dp3718
g18
Nsg19
g48
sg21
I16
ssg19
g22
sg21
I649
sg23
g1949
sg18
(dp3719
g18
(dp3720
g1954
I2
sg188
g1955
sg1956
(dp3721
g18
S'H4sIAIzzH04C/2tgSs4rzS2o1EvOL0rVyy3NKclMLCpKrOSKL0pNzs8rLikqTS7hKmSEqOLKS4HI\nFjJ5M7SGMia1BxUya3gzejO1QhWklFQWpHIVsoQypVl4M3gzAhWwangzhzLa+Pn5ef0HAjDhzVCS\n1BkqwAAGH+xhdEmSHgBnOGdykQAAAA==\n'
p3722
sg19
g146
sg21
I651
ssg1959
(dp3723
g18
S'H4sIAIzzH04C/2tgSs4rzS2o1EvOL0rVyy3NKclMLCpKrOSKL0pNzs8rLikqTS7hKmSEqOLKS4HI\nFjJ5M7SGMia1BxUya3gzejO1QhWklFQWpHIVsoQypVl4M3gzAhWwangzhzLa+Pn5ef0HAjDhzVCS\n1BkqwIACPtiXJOkBAIHIRA6RAAAA\n'
p3724
sg19
g146
sg21
I653
ssg1962
(dp3725
g18
S'H4sIAIzzH04C/2tgSs4rzS2o1EvOL0rVyy3NKclMLCpKrOSKL0pNzs8rLikqTS7hKmSEqOLKS4HI\nFjJ5M7SGMia1BxUya3gzejO1QhWklFQWpHIVsoQypVl4M3gzAhWwangzhzLa+Pn5ef0HAjDhzVCS\n1Bkq4H2C3XZ26FN7BigoSdIDAObNAnCRAAAA\n'
p3726
sg19
g146
sg21
I652
ssg1965
I256
sg1966
g1967
sg155
I0
sg1968
I256
sg1969
(dp3727
g18
S'H4sIAIzzH04C/2tgSs4rzS2o1EvOL0rVyy3NKclMLCpKrOSKL0pNzs8rLikqTS7hKmSEqOLKS4HI\nFjJ5M7SGMia1BxUya3gzejO1QhWklFQWpHIVsoQypVl4M3gzAhWwangzhzLa+Pn5ef0HAjDhzVCS\n1BkqwAAGH+xhdEmSHgBnOGdykQAAAA==\n'
p3728
sg19
g146
sg21
I654
ssg1972
(dp3729
g18
S'H4sIAIzzH04C/2tgSs4rzS2o1EvOL0rVyy3NKclMLCpKrOSKL0pNzs8rLikqTS7hKmSEqOLKS4HI\nFjJ5M7SGMia1BxUya3gzejO1QhWklFQWpHIVsoQypVl4M3gzAhWwangzhzLa+Pn5ef0HAjDhzVCS\n1BkqwIACPtiXJOkBAIHIRA6RAAAA\n'
p3730
sg19
g146
sg21
I655
ssg1975
I0
sg1976
(dp3731
g18
S'H4sIAIzzH04C/2tgSs4rzS2o1EvOL0rVyy3NKclMLCpKrOSKL0pNzs8rLikqTS7hKmSEqOLKS4HI\nFjJ5M7SGMia1BxUya3gzejO1QhWklFQWpHIVsoQypVl4M3gzAhWwangzhzLa+Pn5ef0HAjDhzVCS\n1BkqwAAGH+xhdEmSHgBnOGdykQAAAA==\n'
p3732
sg19
g146
sg21
I656
ssg137
I0
sg1979
F1
sg1980
g1981
sg149
I0
ssg19
g78
sg21
I650
sssg1982
(dp3733
g2
(lp3734
((g4
g5
tI-1
tp3735
a((g7
g5
tI-1
tp3736
a((g101
g102
tI-1
tp3737
a((g104
g105
tI-1
tp3738
a((g107
g108
tI-1
tp3739
a((g1905
g1906
tI-1
tp3740
asg15
g1905
sg16
(dp3741
g18
Nsg19
g48
sg21
I16
ssg19
g22
sg21
I666
sg23
g1906
sg18
(dp3742
g18
(dp3743
g236
F1
sg1911
g1912
sg1913
I12
sg191
F0
sg1914
F0
sg1915
I1
sg1916
g1917
sg1918
I0
sg155
I0
sg1919
F1.1000000000000001
sg802
(dp3744
g18
Nsg19
g48
sg21
I36
ssg1921
I1
sg1922
(dp3745
g18
S'H4sIAIzzH04C/2tgSs4rzS2o1EvOL0rVyy3NKclMLCpKrOSKL0pNzs8rLikqTS7hKmSEqOLKS4HI\nFjJ5M7SGMia1BxUya3gzejO1QhWklFQWpHIVsoQyZZp4M3gzAhWwangzhzLa+Pn5ef0HAjDhzVCS\n1BnKwcjAwADiliTpAQCk2G9tiQAAAA==\n'
p3746
sg19
g146
sg21
I668
ssg137
I0
sg1925
I1
sg1926
I0
sg1927
g1928
sg149
I0
sg1929
I1
ssg19
g78
sg21
I667
sssg1968
I256
sg2982
(dp3747
g18
S'H4sIAIzzH04C/2tgSs4rzS2o1EvOL0rVyy3NKclMLCpKrOSKL0pNzs8rLikqTS7hKmSEqOLKS4HI\nFjJ5M7SGMia1BxUya3gzejO1QhWklFQWpHIVsoQypVl4M3gzAhWwangzhzLa+Pn5ef0HAjDhzVCS\n1BkqwIACPtiXJOkBAIHIRA6RAAAA\n'
p3748
sg19
g146
sg21
I659
ssg2985
Nsg2000
I00
sg19
S''
sg2986
(dp3749
g2
(lp3750
((g4
g5
tI-1
tp3751
a((g7
g5
tI-1
tp3752
a((g101
g102
tI-1
tp3753
a((g104
g105
tI-1
tp3754
a((g107
g108
tI-1
tp3755
a((g174
g175
tI-1
tp3756
a((g2010
g2011
tI-1
tp3757
a((g2013
g2014
tI-1
tp3758
a((g2016
g2017
tI-1
tp3759
asg15
g2016
sg16
(dp3760
g18
Nsg19
g48
sg21
I16
ssg19
g22
sg21
I660
sg23
g2017
sg18
(dp3761
g18
(dp3762
g191
I1
sg2022
I0
sg194
I1
sg196
I1
sg2023
g2024
sg198
I1
sg2025
I2
sg2026
I0
sg2027
I0
sg2028
(dp3763
g18
S'H4sIAIzzH04C/2tgSs4rzS2o1EvOL0rVyy3NKclMLCpKrOSKL0pNzs8rLikqTS7hKmSEqOLKS4HI\nFjJ5M7SGMia1BxUya3gzejO1QhWklFQWpHIVsoQypVl4M3gzAhWwangzhzLa+Pn5ef0HAjDhzVCS\n1BkqcPirRkz/oaP2s2aCwEv7kiQ9AC+e0nyRAAAA\n'
p3764
sg19
g146
sg21
I663
ssg2031
I0
sg2032
(dp3765
g18
S'H4sIAIzzH04C/2tgSs4rzS2o1EvOL0rVyy3NKclMLCpKrOSKL0pNzs8rLikqTS7hKmSEqOLKS4HI\nFjJ5M7SGMia1BxUya3gzejO1QhWklFQWpHIVsoQyZZp4M3gzAhWwangzhzLa+Pn5ef0HAjDhzVCS\n1BnKsaCNkQGES5L0ALP9TXGJAAAA\n'
p3766
sg19
g146
sg21
I665
ssg202
I1
sg512
I3
sg2035
(dp3767
g18
S'H4sIAIzzH04C/2tgSs4rzS2o1EvOL0rVyy3NKclMLCpKrOSKL0pNzs8rLikqTS7hKmSEqOLKS4HI\nFjJ5M7SGMia1BxUya3gzejO1QhWklFQWpHIVsoQyZZp4M3gzAhWwangzhzLa+Pn5ef0HAjDhzVCS\n1BnKwcjAwADCJUl6AJHzi6mJAAAA\n'
p3768
sg19
g146
sg21
I662
ssg195
I1
sg197
I1
sg149
I0
sg2038
I0
sg2039
F0.5
sg2040
I0
sg155
I0
sg137
I0
sg199
(dp3769
g18
S'H4sIAIzzH04C/2tgSs4rzS2o1EvOL0rVyy3NKclMLCpKrOSKL0pNzs8rLikqTS7hKmSEqOLKS4HI\nFjJ5M7SGMia1BxUya3gzejO1QhWklFQWpHIVsoQypVl4M3gzAhWwangzhzLa+Pn5ef0HAjDhzVCS\n1BkqYMt1fXGB7Sv7WTNBYKd9SZIeADd4AQGRAAAA\n'
p3770
sg19
g146
sg21
I664
ssg2043
F0.01
ssg19
g78
sg21
I661
sssg2044
(dp3771
g2
(lp3772
((g4
g5
tI-1
tp3773
a((g7
g5
tI-1
tp3774
a((g101
g102
tI-1
tp3775
a((g104
g105
tI-1
tp3776
a((g107
g108
tI-1
tp3777
a((g582
g583
tI-1
tp3778
a((g2053
g2054
tI-1
tp3779
a((g2056
g2057
tI-1
tp3780
a((g2059
g2060
tI-1
tp3781
asg15
g2059
sg16
(dp3782
g18
Nsg19
g48
sg21
I16
ssg19
g22
sg21
I657
sg23
g2060
sg18
(dp3783
g18
(dp3784
g2065
I1
sg591
S'i'
sg2066
I1
sg149
I0
sg137
I0
sg592
I0
sg595
I0
sg155
I0
sg2067
I1
sg594
F0.5
sg2068
I1
sg2069
I1
sg2070
I1
sg596
I0
sg2071
I1
sg2072
I0
sg2073
I0
sg597
I0
sg2074
I1
ssg19
g78
sg21
I658
sssg2075
I00
sg1926
I00
sg2076
S'blue-red'
p3785
sg2078
I01
sg56
S''
sg2079
I8
sg2080
(dp3786
g18
Nsg19
g48
sg21
I648
ssg2082
g2083
sg204
S''
sg2084
I01
sg2085
(dp3787
g2
(lp3788
((g4
g5
tI-1
tp3789
a((g7
g5
tI-1
tp3790
a((g101
g102
tI-1
tp3791
a((g104
g105
tI-1
tp3792
a((g107
g108
tI-1
tp3793
a((g174
g175
tI-1
tp3794
a((g2094
g2095
tI-1
tp3795
a((g2097
g2098
tI-1
tp3796
asg15
g2097
sg16
(dp3797
g18
Nsg19
g48
sg21
I16
ssg19
g22
sg21
I669
sg23
g2098
sg18
(dp3798
g18
(dp3799
g191
g2103
sg194
I1
sg2104
F0.17000000000000001
sg198
I1
sg2105
I0
sg2106
S'No vectors'
p3800
sg2108
S'%-#6.3g'
p3801
sg2110
F0.80000000000000004
sg2111
F10
sg2112
g2113
sg202
I1
sg2114
I0
sg195
I1
sg197
I1
sg149
I0
sg2115
I256
sg2116
I1
sg196
I1
sg2079
I8
sg155
I0
sg2028
(dp3802
g18
S'H4sIAIzzH04C/2tgSs4rzS2o1EvOL0rVyy3NKclMLCpKrOSKL0pNzs8rLikqTS7hKmSEqOLKS4HI\nFjJ5M7SGMia1BxUya3gzejO1QhWklFQWpHIVsoQypVl4M3gzAhWwangzhzLa+Pn5ef0HAjDhzVCS\n1BkqMGsmCLy0P/xVI6b/0FH7kiQ9AGpIg++RAAAA\n'
p3803
sg19
g146
sg21
I672
ssg2119
I0
sg137
I0
sg199
(dp3804
g18
S'H4sIAIzzH04C/2tgSs4rzS2o1EvOL0rVyy3NKclMLCpKrOSKL0pNzs8rLikqTS7hKmSEqOLKS4HI\nFjJ5M7SGMia1BxUya3gzejO1QhWklFQWpHIVsoQypVl4M3gzAhWwangzhzLa+Pn5ef0HAjDhzVCS\n1BkqMGsmCOy0rxZZ5/6wqsW+JEkPAHMFfKeRAAAA\n'
p3805
sg19
g146
sg21
I671
sssg19
g78
sg21
I670
ssssg19
g78
sg21
I644
sssg350
S'modulemanager.ico'
p3806
ssg19
g78
sg21
I615
ssasg19
g55
sg21
I613
ssg350
S'filter.ico'
p3807
ssg19
g78
sg21
I612
ssasg19
g55
sg21
I326
ssS'parametric_function'
p3808
(dp3809
g18
Nsg19
g48
sg21
I302
sssg19
g78
sg21
I294
ssasg19
g55
sg21
I292
ssg350
S'scene.ico'
p3810
ssg19
g78
sg21
I171
ssasg19
g55
sg21
I44
ssS'running'
p3811
I01
sg2985
Nssg19
g78
sg21
I2
ss.