(dp1
S'version'
p2
(lp3
((S'HasTraits'
p4
S'enthought.traits.has_traits'
p5
tI-1
tp6
a((S'HasStrictTraits'
p7
g5
tI-1
tp8
a((S'Engine'
p9
S'enthought.mayavi.core.engine'
p10
tI0
tp11
a((S'EnvisageEngine'
p12
S'enthought.mayavi.plugins.envisage_engine'
p13
tI0
tp14
asS'class_name'
p15
g12
sS'initargs'
p16
(dp17
S'data'
p18
(tsS'type'
p19
S'tuple'
p20
sS'id'
p21
I1
ssg19
S'instance'
p22
sg21
I0
sS'module'
p23
g13
sg18
(dp24
g18
(dp25
S'_current_selection'
p26
(dp27
g2
(lp28
((g4
g5
tI-1
tp29
a((S'HasPrivateTraits'
p30
g5
tI-1
tp31
a((S'TreeNodeObject'
p32
S'enthought.traits.ui.tree_node'
p33
tI-1
tp34
a((S'Base'
p35
S'enthought.mayavi.core.base'
p36
tI0
tp37
a((S'PipelineBase'
p38
S'enthought.mayavi.core.pipeline_base'
p39
tI0
tp40
a((S'Module'
p41
S'enthought.mayavi.core.module'
p42
tI0
tp43
a((S'Surface'
p44
S'enthought.mayavi.modules.surface'
p45
tI0
tp46
asg15
g44
sg16
(dp47
g18
Nsg19
S'reference'
p48
sg21
I1
ssg19
g22
sg21
I3
sg23
g45
sg18
(dp49
g18
(dp50
S'enable_contours'
p51
I01
sS'_widget_state'
p52
(dp53
g18
(lp54
sg19
S'list'
p55
sg21
I10
ssS'name'
p56
g44
sS'output_info'
p57
(dp58
g2
(lp59
((g4
g5
tI-1
tp60
a((S'PipelineInfo'
p61
S'enthought.mayavi.core.pipeline_info'
p62
tI-1
tp63
asg15
g61
sg16
(dp64
g18
Nsg19
g48
sg21
I1
ssg19
g22
sg21
I5
sg23
g62
sg18
(dp65
g18
(dp66
S'attribute_types'
p67
(dp68
g18
(lp69
sg19
g55
sg21
I7
ssS'datasets'
p70
(dp71
g18
(lp72
S'none'
p73
asg19
g55
sg21
I8
ssS'attributes'
p74
(dp75
g18
(lp76
sg19
g55
sg21
I9
sssg19
S'dict'
p77
sg21
I6
sssS'actor'
p78
(dp79
g2
(lp80
((g4
g5
tI-1
tp81
a((g30
g5
tI-1
tp82
a((g32
g33
tI-1
tp83
a((g35
g36
tI0
tp84
a((g38
g39
tI0
tp85
a((S'Component'
p86
S'enthought.mayavi.core.component'
p87
tI0
tp88
a((S'Actor'
p89
S'enthought.mayavi.components.actor'
p90
tI0
tp91
asg15
g89
sg16
(dp92
g18
Nsg19
g48
sg21
I1
ssg19
g22
sg21
I26
sg23
g90
sg18
(dp93
g18
(dp94
S'mapper'
p95
(dp96
g2
(lp97
((g4
g5
tI-1
tp98
a((g7
g5
tI-1
tp99
a((S'TVTKBase'
p100
S'enthought.tvtk.tvtk_base'
p101
tI-1
tp102
a((S'ObjectBase'
p103
S'tvtk_classes.object_base'
p104
tI-1
tp105
a((S'Object'
p106
S'tvtk_classes.object'
p107
tI-1
tp108
a((S'Algorithm'
p109
S'tvtk_classes.algorithm'
p110
tI-1
tp111
a((S'AbstractMapper'
p112
S'tvtk_classes.abstract_mapper'
p113
tI-1
tp114
a((S'AbstractMapper3D'
p115
S'tvtk_classes.abstract_mapper3d'
p116
tI-1
tp117
a((S'Mapper'
p118
S'tvtk_classes.mapper'
p119
tI-1
tp120
a((S'DataSetMapper'
p121
S'tvtk_classes.data_set_mapper'
p122
tI-1
tp123
asg15
g121
sg16
(dp124
g18
Nsg19
g48
sg21
I21
ssg19
g22
sg21
I35
sg23
g122
sg18
(dp125
g18
(dp126
S'immediate_mode_rendering'
p127
I0
sS'immediate_mode_rendering_'
p128
I0
sS'scalar_mode'
p129
S'use_cell_data'
p130
sS'static'
p131
I0
sS'static_'
p132
I0
sS'resolve_coincident_topology_z_shift'
p133
F0.01
sS'color_mode'
p134
S'default'
p135
sS'interpolate_scalars_before_mapping'
p136
I0
sS'debug'
p137
I0
sS'resolve_coincident_topology_'
p138
I0
sS'use_lookup_table_scalar_range'
p139
I1
sS'abort_execute'
p140
I0
sS'release_data_flag'
p141
I0
sS'progress'
p142
F1
sS'scalar_range'
p143
(dp144
g18
S'H4sIAOP1H04C/2tgSs4rzS2o1EvOL0rVyy3NKclMLCpKrOSKL0pNzs8rLikqTS7hKmSEqOLKS4HI\nFjJ5M7SGMia1BxUya3gzejO1QhWklFQWpHIVsoQypVl4M3gzAhWwangzhzLa+Pn5ef0HAjDhzVCS\n1BkqwIACPtiXJOkBAIHIRA6RAAAA\n'
p145
sg19
S'numeric'
p146
sg21
I37
ssS'progress_text'
p147
NsS'use_lookup_table_scalar_range_'
p148
I1
sS'global_warning_display_'
p149
I0
sS'scalar_mode_'
p150
I2
sS'global_immediate_mode_rendering_'
p151
I0
sS'scalar_visibility'
p152
I1
sS'abort_execute_'
p153
I0
sS'scalar_visibility_'
p154
I1
sS'debug_'
p155
I0
sS'interpolate_scalars_before_mapping_'
p156
I0
sS'scalar_material_mode'
p157
g135
sS'release_data_flag_'
p158
I0
sS'render_time'
p159
F0
sS'global_immediate_mode_rendering'
p160
I0
sS'resolve_coincident_topology'
p161
S'off'
p162
sS'resolve_coincident_topology_polygon_offset_faces'
p163
I1
ssg19
g77
sg21
I36
sssg52
(dp164
g18
(lp165
sg19
g55
sg21
I28
ssg56
S''
sg57
Nsg78
(dp166
g2
(lp167
((g4
g5
tI-1
tp168
a((g7
g5
tI-1
tp169
a((g100
g101
tI-1
tp170
a((g103
g104
tI-1
tp171
a((g106
g107
tI-1
tp172
a((S'Prop'
p173
S'tvtk_classes.prop'
p174
tI-1
tp175
a((S'Prop3D'
p176
S'tvtk_classes.prop3d'
p177
tI-1
tp178
a((g89
S'tvtk_classes.actor'
p179
tI-1
tp180
asg15
g89
sg16
(dp181
g18
Nsg19
g48
sg21
I21
ssg19
g22
sg21
I29
sg23
g179
sg18
(dp182
g18
(dp183
S'origin'
p184
(dp185
g18
S'H4sIAOP1H04C/2tgSs4rzS2o1EvOL0rVyy3NKclMLCpKrOSKL0pNzs8rLikqTS7hKmSEqOLKS4HI\nFjJ5M7SGMia1BxUya3gzejO3QhWklFQWpHIVsoQypVl4M3gzAhWwangzhzLa+Pn5ef0HAjDhzVCS\n1BkqwYADlCTpAQD67GqfmQAAAA==\n'
p186
sg19
g146
sg21
I31
ssS'scale'
p187
(dp188
g18
S'H4sIAOP1H04C/2tgSs4rzS2o1EvOL0rVyy3NKclMLCpKrOSKL0pNzs8rLikqTS7hKmSEqOLKS4HI\nFjJ5M7SGMia1BxUya3gzejO3QhWklFQWpHIVsoQypVl4M3gzAhWwangzhzLa+Pn5ef0HAjDhzVCS\n1BkqwQAGH+zR6ZIkPQDfyO6fmQAAAA==\n'
p189
sg19
g146
sg21
I33
ssS'orientation'
p190
(dp191
g18
S'H4sIAOP1H04C/2tgSs4rzS2o1EvOL0rVyy3NKclMLCpKrOSKL0pNzs8rLikqTS7hKmSEqOLKS4HI\nFjJ5M7SGMia1BxUya3gzejO3QhWklFQWpHIVsoQypVl4M3gzAhWwangzhzLa+Pn5ef0HAjDhzVCS\n1BkqwYAKGmCMkiQ9ABqDrf+ZAAAA\n'
p192
sg19
g146
sg21
I32
ssg137
I0
sS'dragable'
p193
I1
sS'visibility'
p194
I1
sS'pickable_'
p195
I1
sS'dragable_'
p196
I1
sg149
I0
sg155
I0
sS'visibility_'
p197
I1
sS'position'
p198
(dp199
g18
S'H4sIAOP1H04C/2tgSs4rzS2o1EvOL0rVyy3NKclMLCpKrOSKL0pNzs8rLikqTS7hKmSEqOLKS4HI\nFjJ5M7SGMia1BxUya3gzejO3QhWklFQWpHIVsoQypVl4M3gzAhWwangzhzLa+Pn5ef0HAjDhzVCS\n1BkqwYADlCTpAQD67GqfmQAAAA==\n'
p200
sg19
g146
sg21
I34
ssS'pickable'
p201
I1
ssg19
g77
sg21
I30
sssS'visible'
p202
I01
sS'_saved_state'
p203
S''
sS'input_info'
p204
NsS'recorder'
p205
NsS'property'
p206
(dp207
g2
(lp208
((g4
g5
tI-1
tp209
a((g7
g5
tI-1
tp210
a((g100
g101
tI-1
tp211
a((g103
g104
tI-1
tp212
a((g106
g107
tI-1
tp213
a((S'Property'
p214
S'tvtk_classes.property'
p215
tI-1
tp216
a((S'OpenGLProperty'
p217
S'tvtk_classes.open_gl_property'
p218
tI-1
tp219
asg15
g217
sg16
(dp220
g18
Nsg19
g48
sg21
I21
ssg19
g22
sg21
I38
sg23
g218
sg18
(dp221
g18
(dp222
S'diffuse_color'
p223
(dp224
g18
(F1
F1
F1
tp225
sg19
g20
sg21
I41
ssS'backface_culling'
p226
I0
sS'specular_power'
p227
F1
sS'edge_color'
p228
(dp229
g18
(F0
F0
F0
tp230
sg19
g20
sg21
I40
ssS'ambient'
p231
F0
sS'edge_visibility'
p232
I0
sS'interpolation'
p233
S'gouraud'
p234
sS'opacity'
p235
F0.63600000000000001
sS'frontface_culling'
p236
I0
sS'point_size'
p237
F1.5898447036743164
sS'specular_color'
p238
(dp239
g18
Nsg19
g48
sg21
I41
ssS'ambient_color'
p240
(dp241
g18
Nsg19
g48
sg21
I41
ssS'shading_'
p242
I0
sg149
I0
sS'backface_culling_'
p243
I0
sS'shading'
p244
I0
sS'diffuse'
p245
F1
sS'edge_visibility_'
p246
I0
sg155
I0
sS'specular'
p247
F0
sS'frontface_culling_'
p248
I0
sS'line_stipple_pattern'
p249
I65535
sg137
I0
sS'representation'
p250
S'surface'
p251
sS'line_stipple_repeat_factor'
p252
I1
sS'line_width'
p253
F5.2606925964355469
ssg19
g77
sg21
I39
sssg19
S''
ssg19
g77
sg21
I27
sssg202
I01
sg203
S''
sg204
(dp254
g2
(lp255
((g4
g5
tI-1
tp256
a((g61
g62
tI-1
tp257
asg15
g61
sg16
(dp258
g18
Nsg19
g48
sg21
I1
ssg19
g22
sg21
I11
sg23
g62
sg18
(dp259
g18
(dp260
g67
(dp261
g18
(lp262
S'any'
p263
asg19
g55
sg21
I13
ssg70
(dp264
g18
(lp265
g263
asg19
g55
sg21
I14
ssg74
(dp266
g18
(lp267
g263
asg19
g55
sg21
I15
sssg19
g77
sg21
I12
sssg205
Nsg19
S' module'
p268
sS'contour'
p269
(dp270
g2
(lp271
((g4
g5
tI-1
tp272
a((g30
g5
tI-1
tp273
a((g32
g33
tI-1
tp274
a((g35
g36
tI0
tp275
a((g38
g39
tI0
tp276
a((g86
g87
tI0
tp277
a((S'Contour'
p278
S'enthought.mayavi.components.contour'
p279
tI0
tp280
asg15
g278
sg16
(dp281
g18
Nsg19
g48
sg21
I1
ssg19
g22
sg21
I16
sg23
g279
sg18
(dp282
g18
(dp283
g52
(dp284
g18
(lp285
sg19
g55
sg21
I18
ssg56
S''
sS'auto_contours'
p286
I00
sg204
NsS'_current_range'
p287
(dp288
g18
(F0
F2.0999772911434813
tp289
sg19
g20
sg21
I19
ssS'filled_contours'
p290
I01
sg202
I01
sg203
S''
sS'_cont_filt'
p291
(dp292
g2
(lp293
((g4
g5
tI-1
tp294
a((g7
g5
tI-1
tp295
a((g100
g101
tI-1
tp296
a((g103
g104
tI-1
tp297
a((g106
g107
tI-1
tp298
a((g109
g110
tI-1
tp299
a((S'PolyDataAlgorithm'
p300
S'tvtk_classes.poly_data_algorithm'
p301
tI-1
tp302
a((S'ContourFilter'
p303
S'tvtk_classes.contour_filter'
p304
tI-1
tp305
asg15
g303
sg16
(dp306
g18
(NI0
tp307
sg19
g20
sg21
I21
ssg19
g22
sg21
I20
sg23
g304
sg18
(dp308
g18
(dp309
S'compute_gradients'
p310
I0
sg149
I0
sS'array_component'
p311
I0
sg147
NsS'use_scalar_tree_'
p312
I0
sg153
I0
sS'compute_scalars_'
p313
I1
sS'compute_normals'
p314
I1
sS'compute_scalars'
p315
I1
sS'use_scalar_tree'
p316
I0
sS'compute_gradients_'
p317
I0
sg140
I0
sg155
I0
sg141
I0
sS'compute_normals_'
p318
I1
sg158
I0
sg142
F1
sS'number_of_contours'
p319
I1
sg137
I0
ssg19
g77
sg21
I22
sssS'_traits_cache_minimum_contour'
p320
F0
sS'contours'
p321
(dp322
g18
(lp323
F0.18885243464892221
asg19
g55
sg21
I23
ssS'_fill_cont_filt'
p324
(dp325
g2
(lp326
((g4
g5
tI-1
tp327
a((g7
g5
tI-1
tp328
a((g100
g101
tI-1
tp329
a((g103
g104
tI-1
tp330
a((g106
g107
tI-1
tp331
a((g109
g110
tI-1
tp332
a((g300
g301
tI-1
tp333
a((S'BandedPolyDataContourFilter'
p334
S'tvtk_classes.banded_poly_data_contour_filter'
p335
tI-1
tp336
asg15
g334
sg16
(dp337
g18
Nsg19
g48
sg21
I21
ssg19
g22
sg21
I24
sg23
g335
sg18
(dp338
g18
(dp339
g155
I0
sS'clipping'
p340
I1
sg153
I0
sS'clipping_'
p341
I1
sg129
S'value'
p342
sS'generate_contour_edges'
p343
I0
sg147
Nsg137
I0
sg149
I0
sg140
I0
sg150
I1
sg141
I0
sg158
I0
sg142
F1
sg319
I1
sS'generate_contour_edges_'
p344
I0
ssg19
g77
sg21
I25
sssg57
NsS'show_filled_contours'
p345
I01
sS'auto_update_range'
p346
I01
sg205
Nsg319
I10
sg19
S''
sS'_traits_cache_maximum_contour'
p347
F0.18885243464892221
ssg19
g77
sg21
I17
sssS'icon'
p348
S'module.ico'
p349
ssg19
g77
sg21
I4
sssg56
S'Mayavi Envisage Engine'
p350
sS'scene_factory'
p351
(dp352
g2
(lp353
sg15
S'function'
p354
sg16
(dp355
g18
Nsg19
g48
sg21
I1
ssg19
g22
sg21
I42
sg23
S'__builtin__'
p356
sg18
(dp357
g18
(dp358
sg19
g77
sg21
I43
sssS'scenes'
p359
(dp360
g18
(lp361
(dp362
g2
(lp363
((g4
g5
tI-1
tp364
a((g30
g5
tI-1
tp365
a((g32
g33
tI-1
tp366
a((g35
g36
tI0
tp367
a((S'Scene'
p368
S'enthought.mayavi.core.scene'
p369
tI0
tp370
asg15
g368
sg16
(dp371
g18
Nsg19
g48
sg21
I1
ssg19
g22
sg21
I45
sg23
g369
sg18
(dp372
g18
(dp373
g56
VMayavi Scene 1
p374
sS'scene'
p375
(dp376
g2
(lp377
((g4
g5
tI-1
tp378
a((S'MWidget'
p379
S'enthought.pyface.i_widget'
p380
tI-1
tp381
a((S'Widget'
p382
S'enthought.pyface.ui.wx.widget'
p383
tI-1
tp384
a((g30
g5
tI-1
tp385
a((S'TVTKScene'
p386
S'enthought.tvtk.pyface.tvtk_scene'
p387
tI0
tp388
a((g368
S'enthought.tvtk.pyface.ui.wx.scene'
p389
tI0
tp390
a((S'DecoratedScene'
p391
S'enthought.tvtk.pyface.ui.wx.decorated_scene'
p392
tI0
tp393
asg15
g391
sg16
(dp394
g18
Nsg19
g48
sg21
I1
ssg19
g22
sg21
I47
sg23
g392
sg18
(dp395
g18
(dp396
S'picker'
p397
(dp398
g2
(lp399
((g4
g5
tI-1
tp400
a((S'Picker'
p401
S'enthought.tvtk.pyface.picker'
p402
tI0
tp403
asg15
g401
sg16
(dp404
g18
Nsg19
g48
sg21
I1
ssg19
g22
sg21
I49
sg23
g402
sg18
(dp405
g18
(dp406
S'p_mapper'
p407
(dp408
g2
(lp409
((g4
g5
tI-1
tp410
a((g7
g5
tI-1
tp411
a((g100
g101
tI-1
tp412
a((g103
g104
tI-1
tp413
a((g106
g107
tI-1
tp414
a((g109
g110
tI-1
tp415
a((g112
g113
tI-1
tp416
a((g115
g116
tI-1
tp417
a((g118
g119
tI-1
tp418
a((S'PolyDataMapper'
p419
S'tvtk_classes.poly_data_mapper'
p420
tI-1
tp421
asg15
g419
sg16
(dp422
g18
Nsg19
g48
sg21
I21
ssg19
g22
sg21
I51
sg23
g420
sg18
(dp423
g18
(dp424
g127
I0
sg128
I0
sg129
g135
sg131
I0
sg155
I0
sg133
F0.01
sS'ghost_level'
p425
I0
sg134
g135
sg136
I0
sg137
I0
sg138
I0
sg139
I0
sg140
I0
sg141
I0
sg142
F0
sg143
(dp426
g18
S'H4sIAOP1H04C/2tgSs4rzS2o1EvOL0rVyy3NKclMLCpKrOSKL0pNzs8rLikqTS7hKmSEqOLKS4HI\nFjJ5M7SGMia1BxUya3gzejO1QhWklFQWpHIVsoQypVl4M3gzAhWwangzhzLa+Pn5ef0HAjDhzVCS\n1BkqwIACPtiXJOkBAIHIRA6RAAAA\n'
p427
sg19
g146
sg21
I53
ssg147
Nsg148
I0
sg149
I0
sg151
I0
sg152
I1
sg153
I0
sg154
I1
sg132
I0
sg160
I0
sg156
I0
sg159
F0
sS'number_of_sub_pieces'
p428
I1
sg157
g135
sg158
I0
sS'piece'
p429
I0
sS'number_of_pieces'
p430
I1
sg161
g162
sg163
I1
ssg19
g77
sg21
I52
sssS'worldpicker'
p431
(dp432
g2
(lp433
((g4
g5
tI-1
tp434
a((g7
g5
tI-1
tp435
a((g100
g101
tI-1
tp436
a((g103
g104
tI-1
tp437
a((g106
g107
tI-1
tp438
a((S'AbstractPicker'
p439
S'tvtk_classes.abstract_picker'
p440
tI-1
tp441
a((S'WorldPointPicker'
p442
S'tvtk_classes.world_point_picker'
p443
tI-1
tp444
asg15
g442
sg16
(dp445
g18
Nsg19
g48
sg21
I21
ssg19
g22
sg21
I54
sg23
g443
sg18
(dp446
g18
(dp447
g137
I0
sg149
I0
sS'pick_from_list_'
p448
I0
sg155
I0
sS'pick_from_list'
p449
I0
ssg19
g77
sg21
I55
sssS'probe_data'
p450
(dp451
g2
(lp452
((g4
g5
tI-1
tp453
a((g7
g5
tI-1
tp454
a((g100
g101
tI-1
tp455
a((g103
g104
tI-1
tp456
a((g106
g107
tI-1
tp457
a((S'DataObject'
p458
S'tvtk_classes.data_object'
p459
tI-1
tp460
a((S'DataSet'
p461
S'tvtk_classes.data_set'
p462
tI-1
tp463
a((S'PointSet'
p464
S'tvtk_classes.point_set'
p465
tI-1
tp466
a((S'PolyData'
p467
S'tvtk_classes.poly_data'
p468
tI-1
tp469
asg15
g467
sg16
(dp470
g18
Nsg19
g48
sg21
I21
ssg19
g22
sg21
I56
sg23
g468
sg18
(dp471
g18
(dp472
S'update_piece'
p473
I0
sS'whole_extent'
p474
(dp475
g18
S'H4sIAOP1H04C/2tgSs4rzS2o1EvOL0rVyy3NKclMLCpKrOSKL0pNzs8rLikqTS7hKmSEqOLKS4HI\nFjJ5M7SGMia1BxUya3gzerO1QhWklFQWpHIVsoQyZZp4M3gzAhWwangzhzLa+Pn5ef0HAjDhzVCS\n1BkqwQAEIC46XZKkBwA5VpuHmQAAAA==\n'
p476
sg19
g146
sg21
I58
ssS'update_number_of_pieces'
p477
I1
sg137
I0
sS'update_ghost_level'
p478
I0
sS'global_release_data_flag_'
p479
I0
sg155
I0
sS'update_extent'
p480
(dp481
g18
S'H4sIAOP1H04C/2tgSs4rzS2o1EvOL0rVyy3NKclMLCpKrOSKL0pNzs8rLikqTS7hKmSEqOLKS4HI\nFjJ5M7SGMia1BxUya3gzerO1QhWklFQWpHIVsoQyZZp4M3gzAhWwangzhzLa+Pn5ef0HAjDhzVCS\n1BkqwQAEIC46XZKkBwA5VpuHmQAAAA==\n'
p482
sg19
g146
sg21
I60
ssS'request_exact_extent_'
p483
I0
sg149
I0
sg141
I0
sS'global_release_data_flag'
p484
I0
sg158
I0
sS'maximum_number_of_pieces'
p485
I-1
sS'request_exact_extent'
p486
I0
sS'whole_bounding_box'
p487
(dp488
g18
S'H4sIAOP1H04C/2tgSs4rzS2o1EvOL0rVyy3NKclMLCpKrOSKL0pNzs8rLikqTS7hKmSEqOLKS4HI\nFjJ5M7SGMia1BxUya3gzerO1QhWklFQWpHIVsoQypVl4M3gzAhWwangzhzLa+Pn5ef0HAjDhzVCS\n1BlqwIACPuwnxC9J0gMAMIASILEAAAA=\n'
p489
sg19
g146
sg21
I59
sssg19
g77
sg21
I57
sssS'cellpicker'
p490
(dp491
g2
(lp492
((g4
g5
tI-1
tp493
a((g7
g5
tI-1
tp494
a((g100
g101
tI-1
tp495
a((g103
g104
tI-1
tp496
a((g106
g107
tI-1
tp497
a((g439
g440
tI-1
tp498
a((S'AbstractPropPicker'
p499
S'tvtk_classes.abstract_prop_picker'
p500
tI-1
tp501
a((g401
S'tvtk_classes.picker'
p502
tI-1
tp503
a((S'CellPicker'
p504
S'tvtk_classes.cell_picker'
p505
tI-1
tp506
asg15
g504
sg16
(dp507
g18
Nsg19
g48
sg21
I21
ssg19
g22
sg21
I61
sg23
g505
sg18
(dp508
g18
(dp509
g155
I0
sg449
I0
sg149
I0
sg448
I0
sg137
I0
sS'tolerance'
p510
F0.025000000000000001
ssg19
g77
sg21
I62
sssS'p_actor'
p511
(dp512
g2
(lp513
((g4
g5
tI-1
tp514
a((g7
g5
tI-1
tp515
a((g100
g101
tI-1
tp516
a((g103
g104
tI-1
tp517
a((g106
g107
tI-1
tp518
a((g173
g174
tI-1
tp519
a((g176
g177
tI-1
tp520
a((g89
g179
tI-1
tp521
asg15
g89
sg16
(dp522
g18
Nsg19
g48
sg21
I21
ssg19
g22
sg21
I63
sg23
g179
sg18
(dp523
g18
(dp524
g184
(dp525
g18
S'H4sIAOP1H04C/2tgSs4rzS2o1EvOL0rVyy3NKclMLCpKrOSKL0pNzs8rLikqTS7hKmSEqOLKS4HI\nFjJ5M7SGMia1BxUya3gzejO3QhWklFQWpHIVsoQypVl4M3gzAhWwangzhzLa+Pn5ef0HAjDhzVCS\n1BkqwYADlCTpAQD67GqfmQAAAA==\n'
p526
sg19
g146
sg21
I65
ssg187
(dp527
g18
S'H4sIAOP1H04C/2tgSs4rzS2o1EvOL0rVyy3NKclMLCpKrOSKL0pNzs8rLikqTS7hKmSEqOLKS4HI\nFjJ5M7SGMia1BxUya3gzejO3QhWklFQWpHIVsoQypVl4M3gzAhWwangzhzLa+Pn5ef0HAjDhzVCS\n1BkqwQAGH+zR6ZIkPQDfyO6fmQAAAA==\n'
p528
sg19
g146
sg21
I67
ssg190
(dp529
g18
S'H4sIAOP1H04C/2tgSs4rzS2o1EvOL0rVyy3NKclMLCpKrOSKL0pNzs8rLikqTS7hKmSEqOLKS4HI\nFjJ5M7SGMia1BxUya3gzejO3QhWklFQWpHIVsoQypVl4M3gzAhWwangzhzLa+Pn5ef0HAjDhzVCS\n1BkqwYAKGmCMkiQ9ABqDrf+ZAAAA\n'
p530
sg19
g146
sg21
I66
ssg137
I0
sg193
I1
sg194
I0
sg195
I0
sg196
I1
sg149
I0
sg155
I0
sg197
I0
sg198
(dp531
g18
S'H4sIAOP1H04C/2tgSs4rzS2o1EvOL0rVyy3NKclMLCpKrOSKL0pNzs8rLikqTS7hKmSEqOLKS4HI\nFjJ5M7SGMia1BxUya3gzejO3QhWklFQWpHIVsoQypVl4M3gzAhWwangzhzLa+Pn5ef0HAjDhzVCS\n1BkqwYADlCTpAQD67GqfmQAAAA==\n'
p532
sg19
g146
sg21
I68
ssg201
I0
ssg19
g77
sg21
I64
sssS'p_source'
p533
(dp534
g2
(lp535
((g4
g5
tI-1
tp536
a((g7
g5
tI-1
tp537
a((g100
g101
tI-1
tp538
a((g103
g104
tI-1
tp539
a((g106
g107
tI-1
tp540
a((g109
g110
tI-1
tp541
a((g300
g301
tI-1
tp542
a((S'Axes'
p543
S'tvtk_classes.axes'
p544
tI-1
tp545
asg15
g543
sg16
(dp546
g18
Nsg19
g48
sg21
I21
ssg19
g22
sg21
I69
sg23
g544
sg18
(dp547
g18
(dp548
g184
(dp549
g18
S'H4sIAOP1H04C/2tgSs4rzS2o1EvOL0rVyy3NKclMLCpKrOSKL0pNzs8rLikqTS7hKmSEqOLKS4HI\nFjJ5M7SGMia1BxUya3gzejO3QhWklFQWpHIVsoQypVl4M3gzAhWwangzhzLa+Pn5ef0HAjDhzVCS\n1BkqwYADlCTpAQD67GqfmQAAAA==\n'
p550
sg19
g146
sg21
I71
ssS'scale_factor'
p551
F1
sg318
I1
sg153
I0
sg147
Nsg314
I1
sg137
I0
sS'symmetric'
p552
I1
sg149
I0
sg140
I0
sg155
I0
sg141
I0
sg158
I0
sg142
F0
sS'symmetric_'
p553
I1
ssg19
g77
sg21
I70
sssg510
F0.025000000000000001
sS'pointpicker'
p554
(dp555
g2
(lp556
((g4
g5
tI-1
tp557
a((g7
g5
tI-1
tp558
a((g100
g101
tI-1
tp559
a((g103
g104
tI-1
tp560
a((g106
g107
tI-1
tp561
a((g439
g440
tI-1
tp562
a((g499
g500
tI-1
tp563
a((g401
g502
tI-1
tp564
a((S'PointPicker'
p565
S'tvtk_classes.point_picker'
p566
tI-1
tp567
asg15
g565
sg16
(dp568
g18
Nsg19
g48
sg21
I21
ssg19
g22
sg21
I72
sg23
g566
sg18
(dp569
g18
(dp570
g155
I0
sg449
I0
sg149
I0
sg448
I0
sg137
I0
sg510
F0.025000000000000001
ssg19
g77
sg21
I73
ssssg19
g77
sg21
I50
sssS'anti_aliasing_frames'
p571
I8
sS'marker'
p572
(dp573
g2
(lp574
((g4
g5
tI-1
tp575
a((g7
g5
tI-1
tp576
a((g100
g101
tI-1
tp577
a((g103
g104
tI-1
tp578
a((g106
g107
tI-1
tp579
a((S'InteractorObserver'
p580
S'tvtk_classes.interactor_observer'
p581
tI-1
tp582
a((S'OrientationMarkerWidget'
p583
S'tvtk_classes.orientation_marker_widget'
p584
tI-1
tp585
asg15
g583
sg16
(dp586
g18
Nsg19
g48
sg21
I21
ssg19
g22
sg21
I74
sg23
g584
sg18
(dp587
g18
(dp588
S'key_press_activation_value'
p589
S'i'
sS'enabled'
p590
I0
sg155
I0
sS'interactive_'
p591
I1
sS'priority'
p592
F0.55000001192092896
sg149
I0
sS'key_press_activation_'
p593
I0
sS'enabled_'
p594
I0
sg137
I0
sS'key_press_activation'
p595
I0
sS'interactive'
p596
I1
ssg19
g77
sg21
I75
sssS'jpeg_progressive'
p597
I01
sS'axes'
p598
(dp599
g2
(lp600
((g4
g5
tI-1
tp601
a((g7
g5
tI-1
tp602
a((g100
g101
tI-1
tp603
a((g103
g104
tI-1
tp604
a((g106
g107
tI-1
tp605
a((g173
g174
tI-1
tp606
a((g176
g177
tI-1
tp607
a((S'AxesActor'
p608
S'tvtk_classes.axes_actor'
p609
tI-1
tp610
asg15
g608
sg16
(dp611
g18
Nsg19
g48
sg21
I21
ssg19
g22
sg21
I76
sg23
g609
sg18
(dp612
g18
(dp613
g184
(dp614
g18
S'H4sIAOP1H04C/2tgSs4rzS2o1EvOL0rVyy3NKclMLCpKrOSKL0pNzs8rLikqTS7hKmSEqOLKS4HI\nFjJ5M7SGMia1BxUya3gzejO3QhWklFQWpHIVsoQypVl4M3gzAhWwangzhzLa+Pn5ef0HAjDhzVCS\n1BkqwYADlCTpAQD67GqfmQAAAA==\n'
p615
sg19
g146
sg21
I78
ssg190
(dp616
g18
S'H4sIAOP1H04C/2tgSs4rzS2o1EvOL0rVyy3NKclMLCpKrOSKL0pNzs8rLikqTS7hKmSEqOLKS4HI\nFjJ5M7SGMia1BxUya3gzejO3QhWklFQWpHIVsoQypVl4M3gzAhWwangzhzLa+Pn5ef0HAjDhzVCS\n1BkqwYAKGmCMkiQ9ABqDrf+ZAAAA\n'
p617
sg19
g146
sg21
I79
ssS'normalized_tip_length'
p618
(dp619
g18
S'H4sIAOP1H04C/2tgSs4rzS2o1EvOL0rVyy3NKclMLCpKrOSKL0pNzs8rLikqTS7hKmSEqOLKS4HI\nFjJ5M7SGMia1BxUya3gzejO3QhWklFQWpHIVsoQypVl4M3gzAhWwangzhzLa+Pn5ef0HAjDhzVCS\n1BkqMWsmCNy0R6dLkvQABNrUG5kAAAA=\n'
p620
sg19
g146
sg21
I80
ssg193
I1
sg195
I1
sS'sphere_resolution'
p621
I16
sg197
I1
sg155
I0
sg187
(dp622
g18
S'H4sIAOP1H04C/2tgSs4rzS2o1EvOL0rVyy3NKclMLCpKrOSKL0pNzs8rLikqTS7hKmSEqOLKS4HI\nFjJ5M7SGMia1BxUya3gzejO3QhWklFQWpHIVsoQypVl4M3gzAhWwangzhzLa+Pn5ef0HAjDhzVCS\n1BkqwQAGH+zR6ZIkPQDfyO6fmQAAAA==\n'
p623
sg19
g146
sg21
I81
ssS'cylinder_radius'
p624
F0.050000000000000003
sS'cone_resolution'
p625
I16
sS'cylinder_resolution'
p626
I16
sS'axis_labels'
p627
I1
sS'total_length'
p628
(dp629
g18
S'H4sIAOP1H04C/2tgSs4rzS2o1EvOL0rVyy3NKclMLCpKrOSKL0pNzs8rLikqTS7hKmSEqOLKS4HI\nFjJ5M7SGMia1BxUya3gzejO3QhWklFQWpHIVsoQypVl4M3gzAhWwangzhzLa+Pn5ef0HAjDhzVCS\n1BkqwQAGH+zR6ZIkPQDfyO6fmQAAAA==\n'
p630
sg19
g146
sg21
I82
ssg201
I1
sS'tip_type'
p631
S'cone'
p632
sS'x_axis_label_text'
p633
S'X'
sS'cone_radius'
p634
F0.40000000000000002
sS'z_axis_label_text'
p635
S'Z'
sg194
I1
sg196
I1
sg149
I0
sS'axis_labels_'
p636
I1
sS'y_axis_label_text'
p637
S'Y'
sS'shaft_type_'
p638
I0
sS'sphere_radius'
p639
F0.5
sS'normalized_shaft_length'
p640
(dp641
g18
S'H4sIAOP1H04C/2tgSs4rzS2o1EvOL0rVyy3NKclMLCpKrOSKL0pNzs8rLikqTS7hKmSEqOLKS4HI\nFjJ5M7SGMia1BxUya3gzejO3QhWklFQWpHIVsoQypVl4M3gzAhWwangzhzLa+Pn5ef0HAjDhzVCS\n1BkqYQwGj+3R6ZIkPQB1t6TsmQAAAA==\n'
p642
sg19
g146
sg21
I83
ssS'shaft_type'
p643
S'cylinder'
p644
sS'normalized_label_position'
p645
(dp646
g18
S'H4sIAOP1H04C/2tgSs4rzS2o1EvOL0rVyy3NKclMLCpKrOSKL0pNzs8rLikqTS7hKmSEqOLKS4HI\nFjJ5M7SGMia1BxUya3gzejO3QhWklFQWpHIVsoQypVl4M3gzAhWwangzhzLa+Pn5ef0HAjDhzVCS\n1BkqwQAGH+zR6ZIkPQDfyO6fmQAAAA==\n'
p647
sg19
g146
sg21
I84
ssg137
I0
sg198
(dp648
g18
S'H4sIAOP1H04C/2tgSs4rzS2o1EvOL0rVyy3NKclMLCpKrOSKL0pNzs8rLikqTS7hKmSEqOLKS4HI\nFjJ5M7SGMia1BxUya3gzejO3QhWklFQWpHIVsoQypVl4M3gzAhWwangzhzLa+Pn5ef0HAjDhzVCS\n1BkqwYADlCTpAQD67GqfmQAAAA==\n'
p649
sg19
g146
sg21
I85
sssg19
g77
sg21
I77
sssS'magnification'
p650
I1
sS'camera'
p651
(dp652
g2
(lp653
((g4
g5
tI-1
tp654
a((g7
g5
tI-1
tp655
a((g100
g101
tI-1
tp656
a((g103
g104
tI-1
tp657
a((g106
g107
tI-1
tp658
a((S'Camera'
p659
S'tvtk_classes.camera'
p660
tI-1
tp661
a((S'OpenGLCamera'
p662
S'tvtk_classes.open_gl_camera'
p663
tI-1
tp664
asg15
g662
sg16
(dp665
g18
Nsg19
g48
sg21
I21
ssg19
g22
sg21
I86
sg23
g663
sg18
(dp666
g18
(dp667
S'distance'
p668
F1
sS'view_plane_normal'
p669
(dp670
g18
S'H4sIAOP1H04C/2tgSs4rzS2o1EvOL0rVyy3NKclMLCpKrOSKL0pNzs8rLikqTS7hKmSEqOLKS4HI\nFjJ5M7SGMia1BxUya3gzejO3QhWklFQWpHIVsoQypVl4M3gzAhWwangzhzLa+Pn5ef0HAjDhzVCS\n1BkqwQABDaj0B/uSJD0AnHsgdJkAAAA=\n'
p671
sg19
g146
sg21
I88
ssS'window_center'
p672
(dp673
g18
S'H4sIAOP1H04C/2tgSs4rzS2o1EvOL0rVyy3NKclMLCpKrOSKL0pNzs8rLikqTS7hKmSEqOLKS4HI\nFjJ5M7SGMia1BxUya3gzejO1QhWklFQWpHIVsoQypVl4M3gzAhWwangzhzLa+Pn5ef0HAjDhzVCS\n1BkqwIAGSpL0ACtwOO6RAAAA\n'
p674
sg19
g146
sg21
I89
ssS'parallel_projection_'
p675
I0
sS'left_eye'
p676
I1
sS'parallel_scale'
p677
F1
sS'parallel_projection'
p678
I0
sS'view_up'
p679
(dp680
g18
S'H4sIAOP1H04C/2tgSs4rzS2o1EvOL0rVyy3NKclMLCpKrOSKL0pNzs8rLikqTS7hKmSEqOLKS4HI\nFjJ5M7SGMia1BxUya3gzejO3QhWklFQWpHIVsoQypVl4M3gzAhWwangzhzLa+Pn5ef0HAjDhzVCS\n1BkqwYACPtjDWCVJegAcHEnjmQAAAA==\n'
p681
sg19
g146
sg21
I90
ssS'use_horizontal_view_angle'
p682
I0
sg155
I0
sS'focal_disk'
p683
F1
sg149
I0
sg198
(dp684
g18
S'H4sIAOP1H04C/2tgSs4rzS2o1EvOL0rVyy3NKclMLCpKrOSKL0pNzs8rLikqTS7hKmSEqOLKS4HI\nFjJ5M7SGMia1BxUya3gzejO3QhWklFQWpHIVsoQypVl4M3gzAhWwangzhzLa+Pn5ef0HAjDhzVCS\n1BkqwYAVfLAvSdIDAFBUFn+ZAAAA\n'
p685
sg19
g146
sg21
I94
ssS'clipping_range'
p686
(dp687
g18
S'H4sIAOP1H04C/2tgSs4rzS2o1EvOL0rVyy3NKclMLCpKrOSKL0pNzs8rLikqTS7hKmSEqOLKS4HI\nFjJ5M7SGMia1BxUya3gzejO1QhWklFQWpHIVsoQypVl4M3gzAhWwangzhzLa+Pn5ef0HAjDhzVCS\n1BkqUC2yzv1hVYs9iBRx6HcoSdIDABZ3KW+RAAAA\n'
p688
sg19
g146
sg21
I92
ssS'eye_angle'
p689
F2
sS'view_shear'
p690
(dp691
g18
S'H4sIAOP1H04C/2tgSs4rzS2o1EvOL0rVyy3NKclMLCpKrOSKL0pNzs8rLikqTS7hKmSEqOLKS4HI\nFjJ5M7SGMia1BxUya3gzejO3QhWklFQWpHIVsoQypVl4M3gzAhWwangzhzLa+Pn5ef0HAjDhzVCS\n1BkqwYAVfLAvSdIDAFBUFn+ZAAAA\n'
p692
sg19
g146
sg21
I91
ssg137
I0
sS'view_angle'
p693
F30
sS'thickness'
p694
F1000
sS'focal_point'
p695
(dp696
g18
S'H4sIAOP1H04C/2tgSs4rzS2o1EvOL0rVyy3NKclMLCpKrOSKL0pNzs8rLikqTS7hKmSEqOLKS4HI\nFjJ5M7SGMia1BxUya3gzejO3QhWklFQWpHIVsoQypVl4M3gzAhWwangzhzLa+Pn5ef0HAjDhzVCS\n1BkqwYADlCTpAQD67GqfmQAAAA==\n'
p697
sg19
g146
sg21
I93
ssS'use_horizontal_view_angle_'
p698
I0
ssg19
g77
sg21
I87
sssS'_renderer'
p699
(dp700
g2
(lp701
((g4
g5
tI-1
tp702
a((g7
g5
tI-1
tp703
a((g100
g101
tI-1
tp704
a((g103
g104
tI-1
tp705
a((g106
g107
tI-1
tp706
a((S'Viewport'
p707
S'tvtk_classes.viewport'
p708
tI-1
tp709
a((S'Renderer'
p710
S'tvtk_classes.renderer'
p711
tI-1
tp712
asg15
g710
sg16
(dp713
g18
Nsg19
g48
sg21
I21
ssg19
g22
sg21
I95
sg23
g711
sg18
(dp714
g18
(dp715
S'layer'
p716
I0
sS'draw_'
p717
I1
sg231
(dp718
g18
S'H4sIAOP1H04C/2tgSs4rzS2o1EvOL0rVyy3NKclMLCpKrOSKL0pNzs8rLikqTS7hKmSEqOLKS4HI\nFjJ5M7SGMia1BxUya3gzejO3QhWklFQWpHIVsoQypVl4M3gzAhWwangzhzLa+Pn5ef0HAjDhzVCS\n1BkqwQAGH+zR6ZIkPQDfyO6fmQAAAA==\n'
p719
sg19
g146
sg21
I97
ssS'two_sided_lighting_'
p720
I1
sS'view_point'
p721
(dp722
g18
S'H4sIAOP1H04C/2tgSs4rzS2o1EvOL0rVyy3NKclMLCpKrOSKL0pNzs8rLikqTS7hKmSEqOLKS4HI\nFjJ5M7SGMia1BxUya3gzejO3QhWklFQWpHIVsoQypVl4M3gzAhWwangzhzLa+Pn5ef0HAjDhzVCS\n1BkqwYADlCTpAQD67GqfmQAAAA==\n'
p723
sg19
g146
sg21
I98
ssS'near_clipping_plane_tolerance'
p724
F0
sS'erase'
p725
I1
sS'aspect'
p726
(dp727
g18
S'H4sIAOP1H04C/2tgSs4rzS2o1EvOL0rVyy3NKclMLCpKrOSKL0pNzs8rLikqTS7hKmSEqOLKS4HI\nFjJ5M7SGMia1BxUya3gzejO1QhWklFQWpHIVsoQypVl4M3gzAhWwangzhzLa+Pn5ef0HAjDhzVCS\n1BkqkHf+vf9Rx+/2DGDwwb4kSQ8AJZ1O1pEAAAA=\n'
p728
sg19
g146
sg21
I99
ssS'pixel_aspect'
p729
(dp730
g18
S'H4sIAOP1H04C/2tgSs4rzS2o1EvOL0rVyy3NKclMLCpKrOSKL0pNzs8rLikqTS7hKmSEqOLKS4HI\nFjJ5M7SGMia1BxUya3gzejO1QhWklFQWpHIVsoQypVl4M3gzAhWwangzhzLa+Pn5ef0HAjDhzVCS\n1BkqwAAGH+xhdEmSHgBnOGdykQAAAA==\n'
p731
sg19
g146
sg21
I100
ssS'erase_'
p732
I1
sS'use_depth_peeling_'
p733
I0
sS'use_depth_peeling'
p734
I0
sS'gradient_background'
p735
I00
sS'world_point'
p736
(dp737
g18
S'H4sIAOP1H04C/2tgSs4rzS2o1EvOL0rVyy3NKclMLCpKrOSKL0pNzs8rLikqTS7hKmSEqOLKS4HI\nFjJ5M7SGMia1BxUya3gzerO0QhWklFQWpHIVsoQypVl4M3gzAhWwangzhzLa+Pn5ef0HAjDhzVCS\n1BmqwEAAlCTpAQArcBtwoQAAAA==\n'
p738
sg19
g146
sg21
I101
ssS'draw'
p739
I1
sS'allocated_render_time'
p740
F10000
sS'maximum_number_of_peels'
p741
I4
sg149
I0
sS'occlusion_ratio'
p742
F0
sS'background'
p743
(dp744
g18
(F0.49803921568627452
F0.49803921568627452
F0.49803921568627452
tp745
sg19
g20
sg21
I102
ssS'two_sided_lighting'
p746
I1
sg591
I1
sS'background2'
p747
(dp748
g18
(F0.20000000000000001
F0.20000000000000001
F0.20000000000000001
tp749
sg19
g20
sg21
I104
ssS'viewport'
p750
(dp751
g18
S'H4sIAOP1H04C/2tgSs4rzS2o1EvOL0rVyy3NKclMLCpKrOSKL0pNzs8rLikqTS7hKmSEqOLKS4HI\nFjJ5M7SGMia1BxUya3gzerO0QhWklFQWpHIVsoQypVl4M3gzAhWwangzhzLa+Pn5ef0HAjDhzVCS\n1BmqwIAVfLCH0SVJegBnOETsoQAAAA==\n'
p752
sg19
g146
sg21
I105
ssS'display_point'
p753
(dp754
g18
S'H4sIAOP1H04C/2tgSs4rzS2o1EvOL0rVyy3NKclMLCpKrOSKL0pNzs8rLikqTS7hKmSEqOLKS4HI\nFjJ5M7SGMia1BxUya3gzejO3QhWklFQWpHIVsoQypVl4M3gzAhWwangzhzLa+Pn5ef0HAjDhzVCS\n1BkqwYADlCTpAQD67GqfmQAAAA==\n'
p755
sg19
g146
sg21
I103
ssS'backing_store_'
p756
I0
sS'automatic_light_creation_'
p757
I1
sS'automatic_light_creation'
p758
I1
sg155
I0
sS'backing_store'
p759
I0
sS'light_follow_camera'
p760
I1
sg137
I0
sS'light_follow_camera_'
p761
I1
sS'gradient_background_'
p762
I0
sg596
I1
ssg19
g77
sg21
I96
sssS'line_smoothing'
p763
I00
sS'foreground'
p764
(dp765
g18
Nsg19
g48
sg21
I41
ssS'parent'
p766
NsS'point_smoothing'
p767
I00
sg743
(dp768
g18
Nsg19
g48
sg21
I102
ssS'off_screen_rendering'
p769
I00
sS'polygon_smoothing'
p770
I00
sS'stereo'
p771
I00
sS'disable_render'
p772
I00
sS'jpeg_quality'
p773
I95
sS'show_axes'
p774
I00
sg678
I00
sS'light_manager'
p775
(dp776
g2
(lp777
((g4
g5
tI-1
tp778
a((S'LightManager'
p779
S'enthought.tvtk.pyface.light_manager'
p780
tI0
tp781
asg15
g779
sg16
(dp782
g18
Nsg19
g48
sg21
I1
ssg19
g22
sg21
I106
sg23
g780
sg18
(dp783
g18
(dp784
S'light_mode'
p785
S'raymond'
p786
sS'lights'
p787
(dp788
g18
(lp789
(dp790
g2
(lp791
((g4
g5
tI-1
tp792
a((S'CameraLight'
p793
g780
tI0
tp794
asg15
g793
sg16
(dp795
g18
Nsg19
g48
sg21
I1
ssg19
g22
sg21
I109
sg23
g780
sg18
(dp796
g18
(dp797
S'activate'
p798
I01
sS'elevation'
p799
F45
sS'color'
p800
(dp801
g18
Nsg19
g48
sg21
I41
ssS'source'
p802
(dp803
g2
(lp804
((g4
g5
tI-1
tp805
a((g7
g5
tI-1
tp806
a((g100
g101
tI-1
tp807
a((g103
g104
tI-1
tp808
a((g106
g107
tI-1
tp809
a((S'Light'
p810
S'tvtk_classes.light'
p811
tI-1
tp812
asg15
g810
sg16
(dp813
g18
Nsg19
g48
sg21
I21
ssg19
g22
sg21
I111
sg23
g811
sg18
(dp814
g18
(dp815
g238
(dp816
g18
Nsg19
g48
sg21
I41
ssS'attenuation_values'
p817
(dp818
g18
S'H4sIAOP1H04C/2tgSs4rzS2o1EvOL0rVyy3NKclMLCpKrOSKL0pNzs8rLikqTS7hKmSEqOLKS4HI\nFjJ5M7SGMia1BxUya3gzejO3QhWklFQWpHIVsoQypVl4M3gzAhWwangzhzLa+Pn5ef0HAjDhzVCS\n1BkqwQAGH+wZ0EBJkh4Ak4CxA5kAAAA=\n'
p819
sg19
g146
sg21
I115
ssS'switch_'
p820
I1
sS'exponent'
p821
F1
sS'switch'
p822
I1
sg223
(dp823
g18
Nsg19
g48
sg21
I41
ssg240
(dp824
g18
Nsg19
g48
sg21
I40
ssg155
I0
sS'light_type_'
p825
I2
sS'positional'
p826
I0
sg149
I0
sS'intensity'
p827
F1
sS'light_type'
p828
S'camera_light'
p829
sg137
I0
sg198
(dp830
g18
S'H4sIAOP1H04C/2tgSs4rzS2o1EvOL0rVyy3NKclMLCpKrOSKL0pNzs8rLikqTS7hKmSEqOLKS4HI\nFjJ5M7SGMia1BxUya3gzejO3QhWklFQWpHIVsoQypVl4M3gzAhWwangzhzLa+Pn5ef0HAjDhzVCS\n1Bkq8Q/E/n/f/qx1fdq8Bc/sGcDggX1Jkh4AGCjHt5kAAAA=\n'
p831
sg19
g146
sg21
I113
ssS'positional_'
p832
I0
sS'cone_angle'
p833
F30
sg695
(dp834
g18
S'H4sIAOP1H04C/2tgSs4rzS2o1EvOL0rVyy3NKclMLCpKrOSKL0pNzs8rLikqTS7hKmSEqOLKS4HI\nFjJ5M7SGMia1BxUya3gzejO3QhWklFQWpHIVsoQypVl4M3gzAhWwangzhzLa+Pn5ef0HAjDhzVCS\n1BkqwYADlCTpAQD67GqfmQAAAA==\n'
p835
sg19
g146
sg21
I114
sssg19
g77
sg21
I112
sssg827
F1
sS'azimuth'
p836
F45
sS'glyph'
p837
(dp838
g2
(lp839
((g4
g5
tI-1
tp840
a((S'LightGlyph'
p841
g780
tI0
tp842
asg15
g841
sg16
(dp843
g18
Nsg19
g48
sg21
I1
ssg19
g22
sg21
I116
sg23
g780
sg18
(dp844
g18
(dp845
S'el'
p846
F45
sS'az'
p847
F45
sg78
(dp848
g2
(lp849
((g4
g5
tI-1
tp850
a((g7
g5
tI-1
tp851
a((g100
g101
tI-1
tp852
a((g103
g104
tI-1
tp853
a((g106
g107
tI-1
tp854
a((g173
g174
tI-1
tp855
a((g176
g177
tI-1
tp856
a((g89
g179
tI-1
tp857
a((S'Follower'
p858
S'tvtk_classes.follower'
p859
tI-1
tp860
asg15
g858
sg16
(dp861
g18
Nsg19
g48
sg21
I21
ssg19
g22
sg21
I118
sg23
g859
sg18
(dp862
g18
(dp863
g184
(dp864
g18
S'H4sIAOP1H04C/2tgSs4rzS2o1EvOL0rVyy3NKclMLCpKrOSKL0pNzs8rLikqTS7hKmSEqOLKS4HI\nFjJ5M7SGMia1BxUya3gzejO3QhWklFQWpHIVsoQypVl4M3gzAhWwangzhzLa+Pn5ef0HAjDhzVCS\n1BkqwYADlCTpAQD67GqfmQAAAA==\n'
p865
sg19
g146
sg21
I120
ssg187
(dp866
g18
S'H4sIAOP1H04C/2tgSs4rzS2o1EvOL0rVyy3NKclMLCpKrOSKL0pNzs8rLikqTS7hKmSEqOLKS4HI\nFjJ5M7SGMia1BxUya3gzejO3QhWklFQWpHIVsoQypVl4M3gzAhWwangzhzLa+Pn5ef0HAjDhzVCS\n1BkqwQAGH+zR6ZIkPQDfyO6fmQAAAA==\n'
p867
sg19
g146
sg21
I122
ssg190
(dp868
g18
S'H4sIAOP1H04C/2tgSs4rzS2o1EvOL0rVyy3NKclMLCpKrOSKL0pNzs8rLikqTS7hKmSEqOLKS4HI\nFjJ5M7SGMia1BxUya3gzejO3QhWklFQWpHIVsoQypVl4M3gzAhWwangzhzLa+Pn5ef0HAjDhzVCS\n1BkqwcwAAnYOC6ZOr9KI83ZIyMpovb7Q8UBJkh4AejeobJkAAAA=\n'
p869
sg19
g146
sg21
I121
ssg137
I0
sg193
I1
sg194
I1
sg195
I1
sg196
I1
sg149
I0
sg155
I0
sg197
I1
sg198
(dp870
g18
S'H4sIAOP1H04C/2tgSs4rzS2o1EvOL0rVyy3NKclMLCpKrOSKL0pNzs8rLikqTS7hKmSEqOLKS4HI\nFjJ5M7SGMia1BxUya3gzejO3QhWklFQWpHIVsoQypVl4M3gzAhWwangzhzLa+Pn5ef0HAjDhzVCS\n1BkqwYADlCTpAQD67GqfmQAAAA==\n'
p871
sg19
g146
sg21
I123
ssg201
I1
ssg19
g77
sg21
I119
ssssg19
g77
sg21
I117
ssssg19
g77
sg21
I110
ssa(dp872
g2
(lp873
((g4
g5
tI-1
tp874
a((g793
g780
tI0
tp875
asg15
g793
sg16
(dp876
g18
Nsg19
g48
sg21
I1
ssg19
g22
sg21
I124
sg23
g780
sg18
(dp877
g18
(dp878
g798
I01
sg799
F-30
sg800
(dp879
g18
Nsg19
g48
sg21
I41
ssg802
(dp880
g2
(lp881
((g4
g5
tI-1
tp882
a((g7
g5
tI-1
tp883
a((g100
g101
tI-1
tp884
a((g103
g104
tI-1
tp885
a((g106
g107
tI-1
tp886
a((g810
g811
tI-1
tp887
asg15
g810
sg16
(dp888
g18
Nsg19
g48
sg21
I21
ssg19
g22
sg21
I126
sg23
g811
sg18
(dp889
g18
(dp890
g238
(dp891
g18
Nsg19
g48
sg21
I41
ssg817
(dp892
g18
S'H4sIAOP1H04C/2tgSs4rzS2o1EvOL0rVyy3NKclMLCpKrOSKL0pNzs8rLikqTS7hKmSEqOLKS4HI\nFjJ5M7SGMia1BxUya3gzejO3QhWklFQWpHIVsoQypVl4M3gzAhWwangzhzLa+Pn5ef0HAjDhzVCS\n1BkqwQAGH+wZ0EBJkh4Ak4CxA5kAAAA=\n'
p893
sg19
g146
sg21
I130
ssg820
I1
sg821
F1
sg822
I1
sg223
(dp894
g18
Nsg19
g48
sg21
I41
ssg240
(dp895
g18
Nsg19
g48
sg21
I40
ssg155
I0
sg825
I2
sg826
I0
sg149
I0
sg827
F0.59999999999999998
sg828
g829
sg137
I0
sg198
(dp896
g18
S'H4sIAOP1H04C/2tgSs4rzS2o1EvOL0rVyy3NKclMLCpKrOSKL0pNzs8rLikqTS7hKmSEqOLKS4HI\nFjJ5M7SGMia1BxUya3gzejO3QhWklFQWpHIVsoQypVl4M3gzAhWwangzhzLa+Pn5ef0HAjDhzVCS\n1BkqwQAGL/b/AYn9v79/rU/Ei6ptt+1LkvQAaH/w3pkAAAA=\n'
p897
sg19
g146
sg21
I128
ssg832
I0
sg833
F30
sg695
(dp898
g18
S'H4sIAOP1H04C/2tgSs4rzS2o1EvOL0rVyy3NKclMLCpKrOSKL0pNzs8rLikqTS7hKmSEqOLKS4HI\nFjJ5M7SGMia1BxUya3gzejO3QhWklFQWpHIVsoQypVl4M3gzAhWwangzhzLa+Pn5ef0HAjDhzVCS\n1BkqwYADlCTpAQD67GqfmQAAAA==\n'
p899
sg19
g146
sg21
I129
sssg19
g77
sg21
I127
sssg827
F0.59999999999999998
sg836
F-60
sg837
(dp900
g2
(lp901
((g4
g5
tI-1
tp902
a((g841
g780
tI0
tp903
asg15
g841
sg16
(dp904
g18
Nsg19
g48
sg21
I1
ssg19
g22
sg21
I131
sg23
g780
sg18
(dp905
g18
(dp906
g846
F-30
sg847
F-60
sg78
(dp907
g2
(lp908
((g4
g5
tI-1
tp909
a((g7
g5
tI-1
tp910
a((g100
g101
tI-1
tp911
a((g103
g104
tI-1
tp912
a((g106
g107
tI-1
tp913
a((g173
g174
tI-1
tp914
a((g176
g177
tI-1
tp915
a((g89
g179
tI-1
tp916
a((g858
g859
tI-1
tp917
asg15
g858
sg16
(dp918
g18
Nsg19
g48
sg21
I21
ssg19
g22
sg21
I133
sg23
g859
sg18
(dp919
g18
(dp920
g184
(dp921
g18
S'H4sIAOP1H04C/2tgSs4rzS2o1EvOL0rVyy3NKclMLCpKrOSKL0pNzs8rLikqTS7hKmSEqOLKS4HI\nFjJ5M7SGMia1BxUya3gzejO3QhWklFQWpHIVsoQypVl4M3gzAhWwangzhzLa+Pn5ef0HAjDhzVCS\n1BkqwYADlCTpAQD67GqfmQAAAA==\n'
p922
sg19
g146
sg21
I135
ssg187
(dp923
g18
S'H4sIAOP1H04C/2tgSs4rzS2o1EvOL0rVyy3NKclMLCpKrOSKL0pNzs8rLikqTS7hKmSEqOLKS4HI\nFjJ5M7SGMia1BxUya3gzejO3QhWklFQWpHIVsoQypVl4M3gzAhWwangzhzLa+Pn5ef0HAjDhzVCS\n1BkqwQAGH+zR6ZIkPQDfyO6fmQAAAA==\n'
p924
sg19
g146
sg21
I137
ssg190
(dp925
g18
S'H4sIAOP1H04C/2tgSs4rzS2o1EvOL0rVyy3NKclMLCpKrOSKL0pNzs8rLikqTS7hKmSEqOLKS4HI\nFjJ5M7SGMia1BxUya3gzejO3QhWklFQWpHIVsoQypVl4M3gzAhWwangzhzLa+Pn5ef0HAjDhzVCS\n1BkqEc+qU1XzReeA7Eed9DXb/Q8ckV1muHyC1YGSJD0A6DJGvZkAAAA=\n'
p926
sg19
g146
sg21
I136
ssg137
I0
sg193
I1
sg194
I1
sg195
I1
sg196
I1
sg149
I0
sg155
I0
sg197
I1
sg198
(dp927
g18
S'H4sIAOP1H04C/2tgSs4rzS2o1EvOL0rVyy3NKclMLCpKrOSKL0pNzs8rLikqTS7hKmSEqOLKS4HI\nFjJ5M7SGMia1BxUya3gzejO3QhWklFQWpHIVsoQypVl4M3gzAhWwangzhzLa+Pn5ef0HAjDhzVCS\n1BkqwYADlCTpAQD67GqfmQAAAA==\n'
p928
sg19
g146
sg21
I138
ssg201
I1
ssg19
g77
sg21
I134
ssssg19
g77
sg21
I132
ssssg19
g77
sg21
I125
ssa(dp929
g2
(lp930
((g4
g5
tI-1
tp931
a((g793
g780
tI0
tp932
asg15
g793
sg16
(dp933
g18
Nsg19
g48
sg21
I1
ssg19
g22
sg21
I139
sg23
g780
sg18
(dp934
g18
(dp935
g798
I01
sg799
F-30
sg800
(dp936
g18
Nsg19
g48
sg21
I41
ssg802
(dp937
g2
(lp938
((g4
g5
tI-1
tp939
a((g7
g5
tI-1
tp940
a((g100
g101
tI-1
tp941
a((g103
g104
tI-1
tp942
a((g106
g107
tI-1
tp943
a((g810
g811
tI-1
tp944
asg15
g810
sg16
(dp945
g18
Nsg19
g48
sg21
I21
ssg19
g22
sg21
I141
sg23
g811
sg18
(dp946
g18
(dp947
g238
(dp948
g18
Nsg19
g48
sg21
I41
ssg817
(dp949
g18
S'H4sIAOP1H04C/2tgSs4rzS2o1EvOL0rVyy3NKclMLCpKrOSKL0pNzs8rLikqTS7hKmSEqOLKS4HI\nFjJ5M7SGMia1BxUya3gzejO3QhWklFQWpHIVsoQypVl4M3gzAhWwangzhzLa+Pn5ef0HAjDhzVCS\n1BkqwQAGH+wZ0EBJkh4Ak4CxA5kAAAA=\n'
p950
sg19
g146
sg21
I145
ssg820
I1
sg821
F1
sg822
I1
sg223
(dp951
g18
Nsg19
g48
sg21
I41
ssg240
(dp952
g18
Nsg19
g48
sg21
I40
ssg155
I0
sg825
I2
sg826
I0
sg149
I0
sg827
F0.5
sg828
g829
sg137
I0
sg198
(dp953
g18
S'H4sIAOP1H04C/2tgSs4rzS2o1EvOL0rVyy3NKclMLCpKrOSKL0pNzs8rLikqTS7hKmSEqOLKS4HI\nFjJ5M7SGMia1BxUya3gzejO3QhWklFQWpHIVsoQypVl4M3gzAhWwangzhzLa+Pn5ef0HAjDhzVCS\n1BkqwQAGL+z/gMT+39+/1ifiRdW22/YlSXoARD8BtZkAAAA=\n'
p954
sg19
g146
sg21
I143
ssg832
I0
sg833
F30
sg695
(dp955
g18
S'H4sIAOP1H04C/2tgSs4rzS2o1EvOL0rVyy3NKclMLCpKrOSKL0pNzs8rLikqTS7hKmSEqOLKS4HI\nFjJ5M7SGMia1BxUya3gzejO3QhWklFQWpHIVsoQypVl4M3gzAhWwangzhzLa+Pn5ef0HAjDhzVCS\n1BkqwYADlCTpAQD67GqfmQAAAA==\n'
p956
sg19
g146
sg21
I144
sssg19
g77
sg21
I142
sssg827
F0.5
sg836
F60
sg837
(dp957
g2
(lp958
((g4
g5
tI-1
tp959
a((g841
g780
tI0
tp960
asg15
g841
sg16
(dp961
g18
Nsg19
g48
sg21
I1
ssg19
g22
sg21
I146
sg23
g780
sg18
(dp962
g18
(dp963
g846
F-30
sg847
F60
sg78
(dp964
g2
(lp965
((g4
g5
tI-1
tp966
a((g7
g5
tI-1
tp967
a((g100
g101
tI-1
tp968
a((g103
g104
tI-1
tp969
a((g106
g107
tI-1
tp970
a((g173
g174
tI-1
tp971
a((g176
g177
tI-1
tp972
a((g89
g179
tI-1
tp973
a((g858
g859
tI-1
tp974
asg15
g858
sg16
(dp975
g18
Nsg19
g48
sg21
I21
ssg19
g22
sg21
I148
sg23
g859
sg18
(dp976
g18
(dp977
g184
(dp978
g18
S'H4sIAOP1H04C/2tgSs4rzS2o1EvOL0rVyy3NKclMLCpKrOSKL0pNzs8rLikqTS7hKmSEqOLKS4HI\nFjJ5M7SGMia1BxUya3gzejO3QhWklFQWpHIVsoQypVl4M3gzAhWwangzhzLa+Pn5ef0HAjDhzVCS\n1BkqwYADlCTpAQD67GqfmQAAAA==\n'
p979
sg19
g146
sg21
I150
ssg187
(dp980
g18
S'H4sIAOP1H04C/2tgSs4rzS2o1EvOL0rVyy3NKclMLCpKrOSKL0pNzs8rLikqTS7hKmSEqOLKS4HI\nFjJ5M7SGMia1BxUya3gzejO3QhWklFQWpHIVsoQypVl4M3gzAhWwangzhzLa+Pn5ef0HAjDhzVCS\n1BkqwQAGH+zR6ZIkPQDfyO6fmQAAAA==\n'
p981
sg19
g146
sg21
I152
ssg190
(dp982
g18
S'H4sIAOP1H04C/2tgSs4rzS2o1EvOL0rVyy3NKclMLCpKrOSKL0pNzs8rLikqTS7hKmSEqOLKS4HI\nFjJ5M7SGMia1BxUya3gzejO3QhWklFQWpHIVsoQypVl4M3gzAhWwangzhzLa+Pn5ef0HAjDhzVCS\n1BkqEc+qU1XzReeA7Eed9DXb/R2OyC4zXD7ByqEkSQ8AM+vYMJkAAAA=\n'
p983
sg19
g146
sg21
I151
ssg137
I0
sg193
I1
sg194
I1
sg195
I1
sg196
I1
sg149
I0
sg155
I0
sg197
I1
sg198
(dp984
g18
S'H4sIAOP1H04C/2tgSs4rzS2o1EvOL0rVyy3NKclMLCpKrOSKL0pNzs8rLikqTS7hKmSEqOLKS4HI\nFjJ5M7SGMia1BxUya3gzejO3QhWklFQWpHIVsoQypVl4M3gzAhWwangzhzLa+Pn5ef0HAjDhzVCS\n1BkqwYADlCTpAQD67GqfmQAAAA==\n'
p985
sg19
g146
sg21
I153
ssg201
I1
ssg19
g77
sg21
I149
ssssg19
g77
sg21
I147
ssssg19
g77
sg21
I140
ssa(dp986
g2
(lp987
((g4
g5
tI-1
tp988
a((g793
g780
tI0
tp989
asg15
g793
sg16
(dp990
g18
Nsg19
g48
sg21
I1
ssg19
g22
sg21
I154
sg23
g780
sg18
(dp991
g18
(dp992
g798
I00
sg799
F0
sg800
(dp993
g18
Nsg19
g48
sg21
I41
ssg802
(dp994
g2
(lp995
((g4
g5
tI-1
tp996
a((g7
g5
tI-1
tp997
a((g100
g101
tI-1
tp998
a((g103
g104
tI-1
tp999
a((g106
g107
tI-1
tp1000
a((g810
g811
tI-1
tp1001
asg15
g810
sg16
(dp1002
g18
Nsg19
g48
sg21
I21
ssg19
g22
sg21
I156
sg23
g811
sg18
(dp1003
g18
(dp1004
g238
(dp1005
g18
Nsg19
g48
sg21
I41
ssg817
(dp1006
g18
S'H4sIAOP1H04C/2tgSs4rzS2o1EvOL0rVyy3NKclMLCpKrOSKL0pNzs8rLikqTS7hKmSEqOLKS4HI\nFjJ5M7SGMia1BxUya3gzejO3QhWklFQWpHIVsoQypVl4M3gzAhWwangzhzLa+Pn5ef0HAjDhzVCS\n1BkqwQAGH+wZ0EBJkh4Ak4CxA5kAAAA=\n'
p1007
sg19
g146
sg21
I160
ssg820
I0
sg821
F1
sg822
I0
sg223
(dp1008
g18
Nsg19
g48
sg21
I41
ssg240
(dp1009
g18
Nsg19
g48
sg21
I40
ssg155
I0
sg825
I2
sg826
I0
sg149
I0
sg827
F1
sg828
g829
sg137
I0
sg198
(dp1010
g18
S'H4sIAOP1H04C/2tgSs4rzS2o1EvOL0rVyy3NKclMLCpKrOSKL0pNzs8rLikqTS7hKmSEqOLKS4HI\nFjJ5M7SGMia1BxUya3gzejO3QhWklFQWpHIVsoQypVl4M3gzAhWwangzhzLa+Pn5ef0HAjDhzVCS\n1BkqwYAVfLAvSdIDAFBUFn+ZAAAA\n'
p1011
sg19
g146
sg21
I158
ssg832
I0
sg833
F30
sg695
(dp1012
g18
S'H4sIAOP1H04C/2tgSs4rzS2o1EvOL0rVyy3NKclMLCpKrOSKL0pNzs8rLikqTS7hKmSEqOLKS4HI\nFjJ5M7SGMia1BxUya3gzejO3QhWklFQWpHIVsoQypVl4M3gzAhWwangzhzLa+Pn5ef0HAjDhzVCS\n1BkqwYADlCTpAQD67GqfmQAAAA==\n'
p1013
sg19
g146
sg21
I159
sssg19
g77
sg21
I157
sssg827
F1
sg836
F0
sg837
(dp1014
g2
(lp1015
((g4
g5
tI-1
tp1016
a((g841
g780
tI0
tp1017
asg15
g841
sg16
(dp1018
g18
Nsg19
g48
sg21
I1
ssg19
g22
sg21
I161
sg23
g780
sg18
(dp1019
g18
(dp1020
g846
F0
sg847
F0
sg78
(dp1021
g2
(lp1022
((g4
g5
tI-1
tp1023
a((g7
g5
tI-1
tp1024
a((g100
g101
tI-1
tp1025
a((g103
g104
tI-1
tp1026
a((g106
g107
tI-1
tp1027
a((g173
g174
tI-1
tp1028
a((g176
g177
tI-1
tp1029
a((g89
g179
tI-1
tp1030
a((g858
g859
tI-1
tp1031
asg15
g858
sg16
(dp1032
g18
Nsg19
g48
sg21
I21
ssg19
g22
sg21
I163
sg23
g859
sg18
(dp1033
g18
(dp1034
g184
(dp1035
g18
S'H4sIAOP1H04C/2tgSs4rzS2o1EvOL0rVyy3NKclMLCpKrOSKL0pNzs8rLikqTS7hKmSEqOLKS4HI\nFjJ5M7SGMia1BxUya3gzejO3QhWklFQWpHIVsoQypVl4M3gzAhWwangzhzLa+Pn5ef0HAjDhzVCS\n1BkqwYADlCTpAQD67GqfmQAAAA==\n'
p1036
sg19
g146
sg21
I165
ssg187
(dp1037
g18
S'H4sIAOP1H04C/2tgSs4rzS2o1EvOL0rVyy3NKclMLCpKrOSKL0pNzs8rLikqTS7hKmSEqOLKS4HI\nFjJ5M7SGMia1BxUya3gzejO3QhWklFQWpHIVsoQypVl4M3gzAhWwangzhzLa+Pn5ef0HAjDhzVCS\n1BkqwQAGH+zR6ZIkPQDfyO6fmQAAAA==\n'
p1038
sg19
g146
sg21
I167
ssg190
(dp1039
g18
S'H4sIAOP1H04C/2tgSs4rzS2o1EvOL0rVyy3NKclMLCpKrOSKL0pNzs8rLikqTS7hKmSEqOLKS4HI\nFjJ5M7SGMia1BxUya3gzejO3QhWklFQWpHIVsoQypVl4M3gzAhWwangzhzLa+Pn5ef0HAjDhzVCS\n1BkqwYAKGmCMkiQ9ABqDrf+ZAAAA\n'
p1040
sg19
g146
sg21
I166
ssg137
I0
sg193
I1
sg194
I0
sg195
I1
sg196
I1
sg149
I0
sg155
I0
sg197
I0
sg198
(dp1041
g18
S'H4sIAOP1H04C/2tgSs4rzS2o1EvOL0rVyy3NKclMLCpKrOSKL0pNzs8rLikqTS7hKmSEqOLKS4HI\nFjJ5M7SGMia1BxUya3gzejO3QhWklFQWpHIVsoQypVl4M3gzAhWwangzhzLa+Pn5ef0HAjDhzVCS\n1BkqwYADlCTpAQD67GqfmQAAAA==\n'
p1042
sg19
g146
sg21
I168
ssg201
I1
ssg19
g77
sg21
I164
ssssg19
g77
sg21
I162
ssssg19
g77
sg21
I155
ssasg19
g55
sg21
I108
ssS'number_of_lights'
p1043
I4
ssg19
g77
sg21
I107
sssS'_def_pos'
p1044
I1
ssg19
g77
sg21
I48
sssg203
S''
sg19
S' scene'
p1045
sS'children'
p1046
(dp1047
g18
(lp1048
sg19
g55
sg21
I169
ssg348
S'scene.ico'
p1049
ssg19
g77
sg21
I46
ssa(dp1050
g2
(lp1051
((g4
g5
tI-1
tp1052
a((g30
g5
tI-1
tp1053
a((g32
g33
tI-1
tp1054
a((g35
g36
tI0
tp1055
a((g368
g369
tI0
tp1056
asg15
g368
sg16
(dp1057
g18
Nsg19
g48
sg21
I1
ssg19
g22
sg21
I170
sg23
g369
sg18
(dp1058
g18
(dp1059
g56
VMayavi Scene 1
p1060
sg375
(dp1061
g2
(lp1062
((g4
g5
tI-1
tp1063
a((g379
g380
tI-1
tp1064
a((g382
g383
tI-1
tp1065
a((g30
g5
tI-1
tp1066
a((g386
g387
tI0
tp1067
a((g368
g389
tI0
tp1068
a((g391
g392
tI0
tp1069
asg15
g391
sg16
(dp1070
g18
Nsg19
g48
sg21
I1
ssg19
g22
sg21
I172
sg23
g392
sg18
(dp1071
g18
(dp1072
g397
(dp1073
g2
(lp1074
((g4
g5
tI-1
tp1075
a((g401
g402
tI0
tp1076
asg15
g401
sg16
(dp1077
g18
Nsg19
g48
sg21
I1
ssg19
g22
sg21
I174
sg23
g402
sg18
(dp1078
g18
(dp1079
g407
(dp1080
g2
(lp1081
((g4
g5
tI-1
tp1082
a((g7
g5
tI-1
tp1083
a((g100
g101
tI-1
tp1084
a((g103
g104
tI-1
tp1085
a((g106
g107
tI-1
tp1086
a((g109
g110
tI-1
tp1087
a((g112
g113
tI-1
tp1088
a((g115
g116
tI-1
tp1089
a((g118
g119
tI-1
tp1090
a((g419
g420
tI-1
tp1091
asg15
g419
sg16
(dp1092
g18
Nsg19
g48
sg21
I21
ssg19
g22
sg21
I176
sg23
g420
sg18
(dp1093
g18
(dp1094
g127
I0
sg128
I0
sg129
g135
sg131
I0
sg155
I0
sg133
F0.01
sg425
I0
sg134
g135
sg136
I0
sg137
I0
sg138
I0
sg139
I0
sg140
I0
sg141
I0
sg142
F0
sg143
(dp1095
g18
S'H4sIAOP1H04C/2tgSs4rzS2o1EvOL0rVyy3NKclMLCpKrOSKL0pNzs8rLikqTS7hKmSEqOLKS4HI\nFjJ5M7SGMia1BxUya3gzejO1QhWklFQWpHIVsoQypVl4M3gzAhWwangzhzLa+Pn5ef0HAjDhzVCS\n1BkqwIACPtiXJOkBAIHIRA6RAAAA\n'
p1096
sg19
g146
sg21
I178
ssg147
Nsg148
I0
sg149
I0
sg151
I0
sg152
I1
sg153
I0
sg154
I1
sg132
I0
sg160
I0
sg156
I0
sg159
F0
sg428
I1
sg157
g135
sg158
I0
sg429
I0
sg430
I1
sg161
g162
sg163
I1
ssg19
g77
sg21
I177
sssg431
(dp1097
g2
(lp1098
((g4
g5
tI-1
tp1099
a((g7
g5
tI-1
tp1100
a((g100
g101
tI-1
tp1101
a((g103
g104
tI-1
tp1102
a((g106
g107
tI-1
tp1103
a((g439
g440
tI-1
tp1104
a((g442
g443
tI-1
tp1105
asg15
g442
sg16
(dp1106
g18
Nsg19
g48
sg21
I21
ssg19
g22
sg21
I179
sg23
g443
sg18
(dp1107
g18
(dp1108
g137
I0
sg149
I0
sg448
I0
sg155
I0
sg449
I0
ssg19
g77
sg21
I180
sssg450
(dp1109
g2
(lp1110
((g4
g5
tI-1
tp1111
a((g7
g5
tI-1
tp1112
a((g100
g101
tI-1
tp1113
a((g103
g104
tI-1
tp1114
a((g106
g107
tI-1
tp1115
a((g458
g459
tI-1
tp1116
a((g461
g462
tI-1
tp1117
a((g464
g465
tI-1
tp1118
a((g467
g468
tI-1
tp1119
asg15
g467
sg16
(dp1120
g18
Nsg19
g48
sg21
I21
ssg19
g22
sg21
I181
sg23
g468
sg18
(dp1121
g18
(dp1122
g473
I0
sg474
(dp1123
g18
S'H4sIAOP1H04C/2tgSs4rzS2o1EvOL0rVyy3NKclMLCpKrOSKL0pNzs8rLikqTS7hKmSEqOLKS4HI\nFjJ5M7SGMia1BxUya3gzerO1QhWklFQWpHIVsoQyZZp4M3gzAhWwangzhzLa+Pn5ef0HAjDhzVCS\n1BkqwQAEIC46XZKkBwA5VpuHmQAAAA==\n'
p1124
sg19
g146
sg21
I183
ssg477
I1
sg137
I0
sg478
I0
sg479
I0
sg155
I0
sg480
(dp1125
g18
S'H4sIAOP1H04C/2tgSs4rzS2o1EvOL0rVyy3NKclMLCpKrOSKL0pNzs8rLikqTS7hKmSEqOLKS4HI\nFjJ5M7SGMia1BxUya3gzerO1QhWklFQWpHIVsoQyZZp4M3gzAhWwangzhzLa+Pn5ef0HAjDhzVCS\n1BkqwQAEIC46XZKkBwA5VpuHmQAAAA==\n'
p1126
sg19
g146
sg21
I185
ssg483
I0
sg149
I0
sg141
I0
sg484
I0
sg158
I0
sg485
I-1
sg486
I0
sg487
(dp1127
g18
S'H4sIAOP1H04C/2tgSs4rzS2o1EvOL0rVyy3NKclMLCpKrOSKL0pNzs8rLikqTS7hKmSEqOLKS4HI\nFjJ5M7SGMia1BxUya3gzerO1QhWklFQWpHIVsoQypVl4M3gzAhWwangzhzLa+Pn5ef0HAjDhzVCS\n1BlqwIACPuwnxC9J0gMAMIASILEAAAA=\n'
p1128
sg19
g146
sg21
I184
sssg19
g77
sg21
I182
sssg490
(dp1129
g2
(lp1130
((g4
g5
tI-1
tp1131
a((g7
g5
tI-1
tp1132
a((g100
g101
tI-1
tp1133
a((g103
g104
tI-1
tp1134
a((g106
g107
tI-1
tp1135
a((g439
g440
tI-1
tp1136
a((g499
g500
tI-1
tp1137
a((g401
g502
tI-1
tp1138
a((g504
g505
tI-1
tp1139
asg15
g504
sg16
(dp1140
g18
Nsg19
g48
sg21
I21
ssg19
g22
sg21
I186
sg23
g505
sg18
(dp1141
g18
(dp1142
g155
I0
sg449
I0
sg149
I0
sg448
I0
sg137
I0
sg510
F0.025000000000000001
ssg19
g77
sg21
I187
sssg511
(dp1143
g2
(lp1144
((g4
g5
tI-1
tp1145
a((g7
g5
tI-1
tp1146
a((g100
g101
tI-1
tp1147
a((g103
g104
tI-1
tp1148
a((g106
g107
tI-1
tp1149
a((g173
g174
tI-1
tp1150
a((g176
g177
tI-1
tp1151
a((g89
g179
tI-1
tp1152
asg15
g89
sg16
(dp1153
g18
Nsg19
g48
sg21
I21
ssg19
g22
sg21
I188
sg23
g179
sg18
(dp1154
g18
(dp1155
g184
(dp1156
g18
S'H4sIAOP1H04C/2tgSs4rzS2o1EvOL0rVyy3NKclMLCpKrOSKL0pNzs8rLikqTS7hKmSEqOLKS4HI\nFjJ5M7SGMia1BxUya3gzejO3QhWklFQWpHIVsoQypVl4M3gzAhWwangzhzLa+Pn5ef0HAjDhzVCS\n1BkqwYADlCTpAQD67GqfmQAAAA==\n'
p1157
sg19
g146
sg21
I190
ssg187
(dp1158
g18
S'H4sIAOP1H04C/2tgSs4rzS2o1EvOL0rVyy3NKclMLCpKrOSKL0pNzs8rLikqTS7hKmSEqOLKS4HI\nFjJ5M7SGMia1BxUya3gzejO3QhWklFQWpHIVsoQypVl4M3gzAhWwangzhzLa+Pn5ef0HAjDhzVCS\n1BkqwQAGH+zR6ZIkPQDfyO6fmQAAAA==\n'
p1159
sg19
g146
sg21
I192
ssg190
(dp1160
g18
S'H4sIAOP1H04C/2tgSs4rzS2o1EvOL0rVyy3NKclMLCpKrOSKL0pNzs8rLikqTS7hKmSEqOLKS4HI\nFjJ5M7SGMia1BxUya3gzejO3QhWklFQWpHIVsoQypVl4M3gzAhWwangzhzLa+Pn5ef0HAjDhzVCS\n1BkqwYAKGmCMkiQ9ABqDrf+ZAAAA\n'
p1161
sg19
g146
sg21
I191
ssg137
I0
sg193
I1
sg194
I0
sg195
I0
sg196
I1
sg149
I0
sg155
I0
sg197
I0
sg198
(dp1162
g18
S'H4sIAOP1H04C/2tgSs4rzS2o1EvOL0rVyy3NKclMLCpKrOSKL0pNzs8rLikqTS7hKmSEqOLKS4HI\nFjJ5M7SGMia1BxUya3gzejO3QhWklFQWpHIVsoQypVl4M3gzAhWwangzhzLa+Pn5ef0HAjDhzVCS\n1BkqwYADlCTpAQD67GqfmQAAAA==\n'
p1163
sg19
g146
sg21
I193
ssg201
I0
ssg19
g77
sg21
I189
sssg533
(dp1164
g2
(lp1165
((g4
g5
tI-1
tp1166
a((g7
g5
tI-1
tp1167
a((g100
g101
tI-1
tp1168
a((g103
g104
tI-1
tp1169
a((g106
g107
tI-1
tp1170
a((g109
g110
tI-1
tp1171
a((g300
g301
tI-1
tp1172
a((g543
g544
tI-1
tp1173
asg15
g543
sg16
(dp1174
g18
Nsg19
g48
sg21
I21
ssg19
g22
sg21
I194
sg23
g544
sg18
(dp1175
g18
(dp1176
g184
(dp1177
g18
S'H4sIAOP1H04C/2tgSs4rzS2o1EvOL0rVyy3NKclMLCpKrOSKL0pNzs8rLikqTS7hKmSEqOLKS4HI\nFjJ5M7SGMia1BxUya3gzejO3QhWklFQWpHIVsoQypVl4M3gzAhWwangzhzLa+Pn5ef0HAjDhzVCS\n1BkqwYADlCTpAQD67GqfmQAAAA==\n'
p1178
sg19
g146
sg21
I196
ssg551
F1
sg318
I1
sg153
I0
sg147
Nsg314
I1
sg137
I0
sg552
I1
sg149
I0
sg140
I0
sg155
I0
sg141
I0
sg158
I0
sg142
F0
sg553
I1
ssg19
g77
sg21
I195
sssg510
F0.025000000000000001
sg554
(dp1179
g2
(lp1180
((g4
g5
tI-1
tp1181
a((g7
g5
tI-1
tp1182
a((g100
g101
tI-1
tp1183
a((g103
g104
tI-1
tp1184
a((g106
g107
tI-1
tp1185
a((g439
g440
tI-1
tp1186
a((g499
g500
tI-1
tp1187
a((g401
g502
tI-1
tp1188
a((g565
g566
tI-1
tp1189
asg15
g565
sg16
(dp1190
g18
Nsg19
g48
sg21
I21
ssg19
g22
sg21
I197
sg23
g566
sg18
(dp1191
g18
(dp1192
g155
I0
sg449
I0
sg149
I0
sg448
I0
sg137
I0
sg510
F0.025000000000000001
ssg19
g77
sg21
I198
ssssg19
g77
sg21
I175
sssS'anti_aliasing_frames'
p1193
I8
sg572
(dp1194
g2
(lp1195
((g4
g5
tI-1
tp1196
a((g7
g5
tI-1
tp1197
a((g100
g101
tI-1
tp1198
a((g103
g104
tI-1
tp1199
a((g106
g107
tI-1
tp1200
a((g580
g581
tI-1
tp1201
a((g583
g584
tI-1
tp1202
asg15
g583
sg16
(dp1203
g18
Nsg19
g48
sg21
I21
ssg19
g22
sg21
I199
sg23
g584
sg18
(dp1204
g18
(dp1205
g589
S'i'
sg590
I0
sg155
I0
sg591
I1
sg592
F0.55000001192092896
sg149
I0
sg593
I0
sg594
I0
sg137
I0
sg595
I0
sg596
I1
ssg19
g77
sg21
I200
sssS'jpeg_progressive'
p1206
I01
sg598
(dp1207
g2
(lp1208
((g4
g5
tI-1
tp1209
a((g7
g5
tI-1
tp1210
a((g100
g101
tI-1
tp1211
a((g103
g104
tI-1
tp1212
a((g106
g107
tI-1
tp1213
a((g173
g174
tI-1
tp1214
a((g176
g177
tI-1
tp1215
a((g608
g609
tI-1
tp1216
asg15
g608
sg16
(dp1217
g18
Nsg19
g48
sg21
I21
ssg19
g22
sg21
I201
sg23
g609
sg18
(dp1218
g18
(dp1219
g184
(dp1220
g18
S'H4sIAOP1H04C/2tgSs4rzS2o1EvOL0rVyy3NKclMLCpKrOSKL0pNzs8rLikqTS7hKmSEqOLKS4HI\nFjJ5M7SGMia1BxUya3gzejO3QhWklFQWpHIVsoQypVl4M3gzAhWwangzhzLa+Pn5ef0HAjDhzVCS\n1BkqwYADlCTpAQD67GqfmQAAAA==\n'
p1221
sg19
g146
sg21
I203
ssg190
(dp1222
g18
S'H4sIAOP1H04C/2tgSs4rzS2o1EvOL0rVyy3NKclMLCpKrOSKL0pNzs8rLikqTS7hKmSEqOLKS4HI\nFjJ5M7SGMia1BxUya3gzejO3QhWklFQWpHIVsoQypVl4M3gzAhWwangzhzLa+Pn5ef0HAjDhzVCS\n1BkqwYAKGmCMkiQ9ABqDrf+ZAAAA\n'
p1223
sg19
g146
sg21
I204
ssg618
(dp1224
g18
S'H4sIAOP1H04C/2tgSs4rzS2o1EvOL0rVyy3NKclMLCpKrOSKL0pNzs8rLikqTS7hKmSEqOLKS4HI\nFjJ5M7SGMia1BxUya3gzejO3QhWklFQWpHIVsoQypVl4M3gzAhWwangzhzLa+Pn5ef0HAjDhzVCS\n1BkqMWsmCNy0R6dLkvQABNrUG5kAAAA=\n'
p1225
sg19
g146
sg21
I205
ssg193
I1
sg195
I1
sg621
I16
sg197
I0
sg155
I0
sg187
(dp1226
g18
S'H4sIAOP1H04C/2tgSs4rzS2o1EvOL0rVyy3NKclMLCpKrOSKL0pNzs8rLikqTS7hKmSEqOLKS4HI\nFjJ5M7SGMia1BxUya3gzejO3QhWklFQWpHIVsoQypVl4M3gzAhWwangzhzLa+Pn5ef0HAjDhzVCS\n1BkqwQAGH+zR6ZIkPQDfyO6fmQAAAA==\n'
p1227
sg19
g146
sg21
I206
ssg624
F0.050000000000000003
sg625
I16
sg626
I16
sg627
I1
sg628
(dp1228
g18
S'H4sIAOP1H04C/2tgSs4rzS2o1EvOL0rVyy3NKclMLCpKrOSKL0pNzs8rLikqTS7hKmSEqOLKS4HI\nFjJ5M7SGMia1BxUya3gzejO3QhWklFQWpHIVsoQypVl4M3gzAhWwangzhzLa+Pn5ef0HAjDhzVCS\n1BkqwQAGH+zR6ZIkPQDfyO6fmQAAAA==\n'
p1229
sg19
g146
sg21
I207
ssg201
I1
sg631
g632
sg633
S'X'
sg634
F0.40000000000000002
sg635
S'Z'
sg194
I0
sg196
I1
sg149
I0
sg636
I1
sg637
S'Y'
sg638
I0
sg639
F0.5
sg640
(dp1230
g18
S'H4sIAOP1H04C/2tgSs4rzS2o1EvOL0rVyy3NKclMLCpKrOSKL0pNzs8rLikqTS7hKmSEqOLKS4HI\nFjJ5M7SGMia1BxUya3gzejO3QhWklFQWpHIVsoQypVl4M3gzAhWwangzhzLa+Pn5ef0HAjDhzVCS\n1BkqYQwGj+3R6ZIkPQB1t6TsmQAAAA==\n'
p1231
sg19
g146
sg21
I208
ssg643
g644
sg645
(dp1232
g18
S'H4sIAOP1H04C/2tgSs4rzS2o1EvOL0rVyy3NKclMLCpKrOSKL0pNzs8rLikqTS7hKmSEqOLKS4HI\nFjJ5M7SGMia1BxUya3gzejO3QhWklFQWpHIVsoQypVl4M3gzAhWwangzhzLa+Pn5ef0HAjDhzVCS\n1BkqwQAGH+zR6ZIkPQDfyO6fmQAAAA==\n'
p1233
sg19
g146
sg21
I209
ssg137
I0
sg198
(dp1234
g18
S'H4sIAOP1H04C/2tgSs4rzS2o1EvOL0rVyy3NKclMLCpKrOSKL0pNzs8rLikqTS7hKmSEqOLKS4HI\nFjJ5M7SGMia1BxUya3gzejO3QhWklFQWpHIVsoQypVl4M3gzAhWwangzhzLa+Pn5ef0HAjDhzVCS\n1BkqwYADlCTpAQD67GqfmQAAAA==\n'
p1235
sg19
g146
sg21
I210
sssg19
g77
sg21
I202
sssg650
I1
sg651
(dp1236
g2
(lp1237
((g4
g5
tI-1
tp1238
a((g7
g5
tI-1
tp1239
a((g100
g101
tI-1
tp1240
a((g103
g104
tI-1
tp1241
a((g106
g107
tI-1
tp1242
a((g659
g660
tI-1
tp1243
a((g662
g663
tI-1
tp1244
asg15
g662
sg16
(dp1245
g18
Nsg19
g48
sg21
I21
ssg19
g22
sg21
I211
sg23
g663
sg18
(dp1246
g18
(dp1247
g668
F47.322824044960562
sg669
(dp1248
g18
S'H4sIAOP1H04C/2tgSs4rzS2o1EvOL0rVyy3NKclMLCpKrOSKL0pNzs8rLikqTS7hKmSEqOLKS4HI\nFjJ5M7SGMia1BxUya3gzejO3QhWklFQWpHIVsoQypVl4M3gzAhWwangzhzLa+Pn5ef0HAjDhzVCS\n1BkqcS7jzfqKX2/3178vaXBlvrh//q1lZ+OlztqXJOkBACj1xkGZAAAA\n'
p1249
sg19
g146
sg21
I213
ssg672
(dp1250
g18
S'H4sIAOP1H04C/2tgSs4rzS2o1EvOL0rVyy3NKclMLCpKrOSKL0pNzs8rLikqTS7hKmSEqOLKS4HI\nFjJ5M7SGMia1BxUya3gzejO1QhWklFQWpHIVsoQypVl4M3gzAhWwangzhzLa+Pn5ef0HAjDhzVCS\n1BkqwIAGSpL0ACtwOO6RAAAA\n'
p1251
sg19
g146
sg21
I214
ssg675
I0
sg676
I1
sg677
F17.932367755968961
sg678
I0
sg679
(dp1252
g18
S'H4sIAOP1H04C/2tgSs4rzS2o1EvOL0rVyy3NKclMLCpKrOSKL0pNzs8rLikqTS7hKmSEqOLKS4HI\nFjJ5M7SGMia1BxUya3gzejO3QhWklFQWpHIVsoQypVl4M3gzAhWwangzhzLa+Pn5ef0HAjDhzVCS\n1Bkq0WC+dOenlWfthapKvjeq9Nt/VWiQYVR4b1+SpAcAjm4vD5kAAAA=\n'
p1253
sg19
g146
sg21
I215
ssg682
I0
sg155
I0
sg683
F1
sg149
I0
sg198
(dp1254
g18
S'H4sIAOP1H04C/2tgSs4rzS2o1EvOL0rVyy3NKclMLCpKrOSKL0pNzs8rLikqTS7hKmSEqOLKS4HI\nFjJ5M7SGMia1BxUya3gzejO3QhWklFQWpHIVsoQypVl4M3gzAhWwangzhzLa+Pn5ef0HAjDhzVCS\n1Bkq4fnVaOkyLbcDy7w+Pvq+iOVAesb5OGUHXYeSJD0AEPcfepkAAAA=\n'
p1255
sg19
g146
sg21
I219
ssg686
(dp1256
g18
S'H4sIAOP1H04C/2tgSs4rzS2o1EvOL0rVyy3NKclMLCpKrOSKL0pNzs8rLikqTS7hKmSEqOLKS4HI\nFjJ5M7SGMia1BxUya3gzejO1QhWklFQWpHIVsoQypVl4M3gzAhWwangzhzLa+Pn5ef0HAjDhzVCS\n1BkqYHxrt309i77DuuK2Jf/uhTqUJOkBAGdG1ASRAAAA\n'
p1257
sg19
g146
sg21
I217
ssg689
F2
sg690
(dp1258
g18
S'H4sIAOP1H04C/2tgSs4rzS2o1EvOL0rVyy3NKclMLCpKrOSKL0pNzs8rLikqTS7hKmSEqOLKS4HI\nFjJ5M7SGMia1BxUya3gzejO3QhWklFQWpHIVsoQypVl4M3gzAhWwangzhzLa+Pn5ef0HAjDhzVCS\n1BkqwYAVfLAvSdIDAFBUFn+ZAAAA\n'
p1259
sg19
g146
sg21
I216
ssg137
I0
sg693
F30
sg694
F71.975508823031873
sg695
(dp1260
g18
S'H4sIAOP1H04C/2tgSs4rzS2o1EvOL0rVyy3NKclMLCpKrOSKL0pNzs8rLikqTS7hKmSEqOLKS4HI\nFjJ5M7SGMia1BxUya3gzejO3QhWklFQWpHIVsoQypVl4M3gzAhWwangzhzLa+Pn5ef0HAjDhzVCS\n1BkqofD73IFT28T2cjOAgIoDJwNDw8E3fA4lSXoA0Kl8hpkAAAA=\n'
p1261
sg19
g146
sg21
I218
ssg698
I0
ssg19
g77
sg21
I212
sssg699
(dp1262
g2
(lp1263
((g4
g5
tI-1
tp1264
a((g7
g5
tI-1
tp1265
a((g100
g101
tI-1
tp1266
a((g103
g104
tI-1
tp1267
a((g106
g107
tI-1
tp1268
a((g707
g708
tI-1
tp1269
a((g710
g711
tI-1
tp1270
asg15
g710
sg16
(dp1271
g18
Nsg19
g48
sg21
I21
ssg19
g22
sg21
I220
sg23
g711
sg18
(dp1272
g18
(dp1273
g716
I0
sg717
I1
sg231
(dp1274
g18
S'H4sIAOP1H04C/2tgSs4rzS2o1EvOL0rVyy3NKclMLCpKrOSKL0pNzs8rLikqTS7hKmSEqOLKS4HI\nFjJ5M7SGMia1BxUya3gzejO3QhWklFQWpHIVsoQypVl4M3gzAhWwangzhzLa+Pn5ef0HAjDhzVCS\n1BkqwQAGH+zR6ZIkPQDfyO6fmQAAAA==\n'
p1275
sg19
g146
sg21
I222
ssg720
I1
sg721
(dp1276
g18
S'H4sIAOP1H04C/2tgSs4rzS2o1EvOL0rVyy3NKclMLCpKrOSKL0pNzs8rLikqTS7hKmSEqOLKS4HI\nFjJ5M7SGMia1BxUya3gzejO3QhWklFQWpHIVsoQypVl4M3gzAhWwangzhzLa+Pn5ef0HAjDhzVCS\n1Bkqsex7/62qGc72JRfXOiSrudnPfSmg9F31lX1Jkh4AWKGShJkAAAA=\n'
p1277
sg19
g146
sg21
I223
ssg724
F0.001
sg725
I1
sg726
(dp1278
g18
S'H4sIAOP1H04C/2tgSs4rzS2o1EvOL0rVyy3NKclMLCpKrOSKL0pNzs8rLikqTS7hKmSEqOLKS4HI\nFjJ5M7SGMia1BxUya3gzejO1QhWklFQWpHIVsoQypVl4M3gzAhWwangzhzLa+Pn5ef0HAjDhzVCS\n1BkqkHf+vf9Rx+/2DGDwwb4kSQ8AJZ1O1pEAAAA=\n'
p1279
sg19
g146
sg21
I224
ssg729
(dp1280
g18
S'H4sIAOP1H04C/2tgSs4rzS2o1EvOL0rVyy3NKclMLCpKrOSKL0pNzs8rLikqTS7hKmSEqOLKS4HI\nFjJ5M7SGMia1BxUya3gzejO1QhWklFQWpHIVsoQypVl4M3gzAhWwangzhzLa+Pn5ef0HAjDhzVCS\n1BkqwAAGH+xhdEmSHgBnOGdykQAAAA==\n'
p1281
sg19
g146
sg21
I225
ssg732
I1
sg733
I0
sg734
I0
sg735
I00
sg736
(dp1282
g18
S'H4sIAOP1H04C/2tgSs4rzS2o1EvOL0rVyy3NKclMLCpKrOSKL0pNzs8rLikqTS7hKmSEqOLKS4HI\nFjJ5M7SGMia1BxUya3gzerO0QhWklFQWpHIVsoQypVl4M3gzAhWwangzhzLa+Pn5ef0HAjDhzVCS\n1Bmq4MPGEuem7XYgr/+eYFUvy4HsvlJeZRtdBwYw+GBfkqQHAPwvxHGhAAAA\n'
p1283
sg19
g146
sg21
I226
ssg739
I1
sg740
F10000
sg741
I4
sg149
I0
sg742
F0
sg743
(dp1284
g18
Nsg19
g48
sg21
I102
ssg746
I1
sg591
I1
sg747
(dp1285
g18
Nsg19
g48
sg21
I104
ssg750
(dp1286
g18
S'H4sIAOP1H04C/2tgSs4rzS2o1EvOL0rVyy3NKclMLCpKrOSKL0pNzs8rLikqTS7hKmSEqOLKS4HI\nFjJ5M7SGMia1BxUya3gzerO0QhWklFQWpHIVsoQypVl4M3gzAhWwangzhzLa+Pn5ef0HAjDhzVCS\n1BmqwIAVfLCH0SVJegBnOETsoQAAAA==\n'
p1287
sg19
g146
sg21
I228
ssg753
(dp1288
g18
S'H4sIAOP1H04C/2tgSs4rzS2o1EvOL0rVyy3NKclMLCpKrOSKL0pNzs8rLikqTS7hKmSEqOLKS4HI\nFjJ5M7SGMia1BxUya3gzejO3QhWklFQWpHIVsoQypVl4M3gzAhWwangzhzLa+Pn5ef0HAjDhzVCS\n1BkqwZXvf7Llf5vDp12sfyqW1jvMfSmg9F31lX1Jkh4A3BRDcJkAAAA=\n'
p1289
sg19
g146
sg21
I227
ssg756
I0
sg757
I1
sg758
I1
sg155
I0
sg759
I0
sg760
I1
sg137
I0
sg761
I1
sg762
I0
sg596
I1
ssg19
g77
sg21
I221
sssg763
I00
sg764
(dp1290
g18
Nsg19
g48
sg21
I41
ssS'parent'
p1291
Nsg767
I00
sg743
(dp1292
g18
Nsg19
g48
sg21
I102
ssg769
I00
sg770
I00
sg771
I00
sg772
I00
sS'jpeg_quality'
p1293
I95
sg774
I00
sg678
I00
sg775
(dp1294
g2
(lp1295
((g4
g5
tI-1
tp1296
a((g779
g780
tI0
tp1297
asg15
g779
sg16
(dp1298
g18
Nsg19
g48
sg21
I1
ssg19
g22
sg21
I229
sg23
g780
sg18
(dp1299
g18
(dp1300
g785
S'vtk'
p1301
sg787
(dp1302
g18
(lp1303
(dp1304
g2
(lp1305
((g4
g5
tI-1
tp1306
a((g793
g780
tI0
tp1307
asg15
g793
sg16
(dp1308
g18
Nsg19
g48
sg21
I1
ssg19
g22
sg21
I232
sg23
g780
sg18
(dp1309
g18
(dp1310
g798
I01
sg799
F0
sg800
(dp1311
g18
Nsg19
g48
sg21
I41
ssg802
(dp1312
g2
(lp1313
((g4
g5
tI-1
tp1314
a((g7
g5
tI-1
tp1315
a((g100
g101
tI-1
tp1316
a((g103
g104
tI-1
tp1317
a((g106
g107
tI-1
tp1318
a((g810
g811
tI-1
tp1319
asg15
g810
sg16
(dp1320
g18
Nsg19
g48
sg21
I21
ssg19
g22
sg21
I234
sg23
g811
sg18
(dp1321
g18
(dp1322
g238
(dp1323
g18
Nsg19
g48
sg21
I41
ssg817
(dp1324
g18
S'H4sIAOP1H04C/2tgSs4rzS2o1EvOL0rVyy3NKclMLCpKrOSKL0pNzs8rLikqTS7hKmSEqOLKS4HI\nFjJ5M7SGMia1BxUya3gzejO3QhWklFQWpHIVsoQypVl4M3gzAhWwangzhzLa+Pn5ef0HAjDhzVCS\n1BkqwQAGH+wZ0EBJkh4Ak4CxA5kAAAA=\n'
p1325
sg19
g146
sg21
I238
ssg820
I1
sg821
F1
sg822
I1
sg223
(dp1326
g18
Nsg19
g48
sg21
I41
ssg240
(dp1327
g18
Nsg19
g48
sg21
I40
ssg155
I0
sg825
I2
sg826
I0
sg149
I0
sg827
F1
sg828
g829
sg137
I0
sg198
(dp1328
g18
S'H4sIAOP1H04C/2tgSs4rzS2o1EvOL0rVyy3NKclMLCpKrOSKL0pNzs8rLikqTS7hKmSEqOLKS4HI\nFjJ5M7SGMia1BxUya3gzejO3QhWklFQWpHIVsoQypVl4M3gzAhWwangzhzLa+Pn5ef0HAjDhzVCS\n1BkqwYAMlk20gTA+2Jck6QEAEakbEZkAAAA=\n'
p1329
sg19
g146
sg21
I236
ssg832
I0
sg833
F30
sg695
(dp1330
g18
S'H4sIAOP1H04C/2tgSs4rzS2o1EvOL0rVyy3NKclMLCpKrOSKL0pNzs8rLikqTS7hKmSEqOLKS4HI\nFjJ5M7SGMia1BxUya3gzejO3QhWklFQWpHIVsoQypVl4M3gzAhWwangzhzLa+Pn5ef0HAjDhzVCS\n1BkqwYADlCTpAQD67GqfmQAAAA==\n'
p1331
sg19
g146
sg21
I237
sssg19
g77
sg21
I235
sssg827
F1
sg836
F0
sg837
(dp1332
g2
(lp1333
((g4
g5
tI-1
tp1334
a((g841
g780
tI0
tp1335
asg15
g841
sg16
(dp1336
g18
Nsg19
g48
sg21
I1
ssg19
g22
sg21
I239
sg23
g780
sg18
(dp1337
g18
(dp1338
g846
F0
sg847
F0
sg78
(dp1339
g2
(lp1340
((g4
g5
tI-1
tp1341
a((g7
g5
tI-1
tp1342
a((g100
g101
tI-1
tp1343
a((g103
g104
tI-1
tp1344
a((g106
g107
tI-1
tp1345
a((g173
g174
tI-1
tp1346
a((g176
g177
tI-1
tp1347
a((g89
g179
tI-1
tp1348
a((g858
g859
tI-1
tp1349
asg15
g858
sg16
(dp1350
g18
Nsg19
g48
sg21
I21
ssg19
g22
sg21
I241
sg23
g859
sg18
(dp1351
g18
(dp1352
g184
(dp1353
g18
S'H4sIAOP1H04C/2tgSs4rzS2o1EvOL0rVyy3NKclMLCpKrOSKL0pNzs8rLikqTS7hKmSEqOLKS4HI\nFjJ5M7SGMia1BxUya3gzejO3QhWklFQWpHIVsoQypVl4M3gzAhWwangzhzLa+Pn5ef0HAjDhzVCS\n1BkqwYADlCTpAQD67GqfmQAAAA==\n'
p1354
sg19
g146
sg21
I243
ssg187
(dp1355
g18
S'H4sIAOP1H04C/2tgSs4rzS2o1EvOL0rVyy3NKclMLCpKrOSKL0pNzs8rLikqTS7hKmSEqOLKS4HI\nFjJ5M7SGMia1BxUya3gzejO3QhWklFQWpHIVsoQypVl4M3gzAhWwangzhzLa+Pn5ef0HAjDhzVCS\n1BkqwQAGH+zR6ZIkPQDfyO6fmQAAAA==\n'
p1356
sg19
g146
sg21
I245
ssg190
(dp1357
g18
S'H4sIAOP1H04C/2tgSs4rzS2o1EvOL0rVyy3NKclMLCpKrOSKL0pNzs8rLikqTS7hKmSEqOLKS4HI\nFjJ5M7SGMia1BxUya3gzejO3QhWklFQWpHIVsoQypVl4M3gzAhWwangzhzLa+Pn5ef0HAjDhzVCS\n1BkqsXDOLdeoncdttnHePFi31NgSyt9TkqQHAJCW9u+ZAAAA\n'
p1358
sg19
g146
sg21
I244
ssg137
I0
sg193
I1
sg194
I1
sg195
I1
sg196
I1
sg149
I0
sg155
I0
sg197
I1
sg198
(dp1359
g18
S'H4sIAOP1H04C/2tgSs4rzS2o1EvOL0rVyy3NKclMLCpKrOSKL0pNzs8rLikqTS7hKmSEqOLKS4HI\nFjJ5M7SGMia1BxUya3gzejO3QhWklFQWpHIVsoQypVl4M3gzAhWwangzhzLa+Pn5ef0HAjDhzVCS\n1BkqwYADlCTpAQD67GqfmQAAAA==\n'
p1360
sg19
g146
sg21
I246
ssg201
I1
ssg19
g77
sg21
I242
ssssg19
g77
sg21
I240
ssssg19
g77
sg21
I233
ssa(dp1361
g2
(lp1362
((g4
g5
tI-1
tp1363
a((g793
g780
tI0
tp1364
asg15
g793
sg16
(dp1365
g18
Nsg19
g48
sg21
I1
ssg19
g22
sg21
I247
sg23
g780
sg18
(dp1366
g18
(dp1367
g798
I00
sg799
F0
sg800
(dp1368
g18
Nsg19
g48
sg21
I41
ssg802
(dp1369
g2
(lp1370
((g4
g5
tI-1
tp1371
a((g7
g5
tI-1
tp1372
a((g100
g101
tI-1
tp1373
a((g103
g104
tI-1
tp1374
a((g106
g107
tI-1
tp1375
a((g810
g811
tI-1
tp1376
asg15
g810
sg16
(dp1377
g18
Nsg19
g48
sg21
I21
ssg19
g22
sg21
I249
sg23
g811
sg18
(dp1378
g18
(dp1379
g238
(dp1380
g18
Nsg19
g48
sg21
I41
ssg817
(dp1381
g18
S'H4sIAOP1H04C/2tgSs4rzS2o1EvOL0rVyy3NKclMLCpKrOSKL0pNzs8rLikqTS7hKmSEqOLKS4HI\nFjJ5M7SGMia1BxUya3gzejO3QhWklFQWpHIVsoQypVl4M3gzAhWwangzhzLa+Pn5ef0HAjDhzVCS\n1BkqwQAGH+wZ0EBJkh4Ak4CxA5kAAAA=\n'
p1382
sg19
g146
sg21
I253
ssg820
I0
sg821
F1
sg822
I0
sg223
(dp1383
g18
Nsg19
g48
sg21
I41
ssg240
(dp1384
g18
Nsg19
g48
sg21
I40
ssg155
I0
sg825
I2
sg826
I0
sg149
I0
sg827
F1
sg828
g829
sg137
I0
sg198
(dp1385
g18
S'H4sIAOP1H04C/2tgSs4rzS2o1EvOL0rVyy3NKclMLCpKrOSKL0pNzs8rLikqTS7hKmSEqOLKS4HI\nFjJ5M7SGMia1BxUya3gzejO3QhWklFQWpHIVsoQypVl4M3gzAhWwangzhzLa+Pn5ef0HAjDhzVCS\n1BkqwYAMlk20gTA+2Jck6QEAEakbEZkAAAA=\n'
p1386
sg19
g146
sg21
I251
ssg832
I0
sg833
F30
sg695
(dp1387
g18
S'H4sIAOP1H04C/2tgSs4rzS2o1EvOL0rVyy3NKclMLCpKrOSKL0pNzs8rLikqTS7hKmSEqOLKS4HI\nFjJ5M7SGMia1BxUya3gzejO3QhWklFQWpHIVsoQypVl4M3gzAhWwangzhzLa+Pn5ef0HAjDhzVCS\n1BkqwYADlCTpAQD67GqfmQAAAA==\n'
p1388
sg19
g146
sg21
I252
sssg19
g77
sg21
I250
sssg827
F1
sg836
F0
sg837
(dp1389
g2
(lp1390
((g4
g5
tI-1
tp1391
a((g841
g780
tI0
tp1392
asg15
g841
sg16
(dp1393
g18
Nsg19
g48
sg21
I1
ssg19
g22
sg21
I254
sg23
g780
sg18
(dp1394
g18
(dp1395
g846
F0
sg847
F0
sg78
(dp1396
g2
(lp1397
((g4
g5
tI-1
tp1398
a((g7
g5
tI-1
tp1399
a((g100
g101
tI-1
tp1400
a((g103
g104
tI-1
tp1401
a((g106
g107
tI-1
tp1402
a((g173
g174
tI-1
tp1403
a((g176
g177
tI-1
tp1404
a((g89
g179
tI-1
tp1405
a((g858
g859
tI-1
tp1406
asg15
g858
sg16
(dp1407
g18
Nsg19
g48
sg21
I21
ssg19
g22
sg21
I256
sg23
g859
sg18
(dp1408
g18
(dp1409
g184
(dp1410
g18
S'H4sIAOP1H04C/2tgSs4rzS2o1EvOL0rVyy3NKclMLCpKrOSKL0pNzs8rLikqTS7hKmSEqOLKS4HI\nFjJ5M7SGMia1BxUya3gzejO3QhWklFQWpHIVsoQypVl4M3gzAhWwangzhzLa+Pn5ef0HAjDhzVCS\n1BkqwYADlCTpAQD67GqfmQAAAA==\n'
p1411
sg19
g146
sg21
I258
ssg187
(dp1412
g18
S'H4sIAOP1H04C/2tgSs4rzS2o1EvOL0rVyy3NKclMLCpKrOSKL0pNzs8rLikqTS7hKmSEqOLKS4HI\nFjJ5M7SGMia1BxUya3gzejO3QhWklFQWpHIVsoQypVl4M3gzAhWwangzhzLa+Pn5ef0HAjDhzVCS\n1BkqwQAGH+zR6ZIkPQDfyO6fmQAAAA==\n'
p1413
sg19
g146
sg21
I260
ssg190
(dp1414
g18
S'H4sIAOP1H04C/2tgSs4rzS2o1EvOL0rVyy3NKclMLCpKrOSKL0pNzs8rLikqTS7hKmSEqOLKS4HI\nFjJ5M7SGMia1BxUya3gzejO3QhWklFQWpHIVsoQypVl4M3gzAhWwangzhzLa+Pn5ef0HAjDhzVCS\n1BkqEXa2NK3N9oLNtyDnzRkMjDv58xdkL/rba1OSpAcAoXrkqJkAAAA=\n'
p1415
sg19
g146
sg21
I259
ssg137
I0
sg193
I1
sg194
I0
sg195
I1
sg196
I1
sg149
I0
sg155
I0
sg197
I0
sg198
(dp1416
g18
S'H4sIAOP1H04C/2tgSs4rzS2o1EvOL0rVyy3NKclMLCpKrOSKL0pNzs8rLikqTS7hKmSEqOLKS4HI\nFjJ5M7SGMia1BxUya3gzejO3QhWklFQWpHIVsoQypVl4M3gzAhWwangzhzLa+Pn5ef0HAjDhzVCS\n1BkqwYADlCTpAQD67GqfmQAAAA==\n'
p1417
sg19
g146
sg21
I261
ssg201
I1
ssg19
g77
sg21
I257
ssssg19
g77
sg21
I255
ssssg19
g77
sg21
I248
ssa(dp1418
g2
(lp1419
((g4
g5
tI-1
tp1420
a((g793
g780
tI0
tp1421
asg15
g793
sg16
(dp1422
g18
Nsg19
g48
sg21
I1
ssg19
g22
sg21
I262
sg23
g780
sg18
(dp1423
g18
(dp1424
g798
I00
sg799
F0
sg800
(dp1425
g18
Nsg19
g48
sg21
I41
ssg802
(dp1426
g2
(lp1427
((g4
g5
tI-1
tp1428
a((g7
g5
tI-1
tp1429
a((g100
g101
tI-1
tp1430
a((g103
g104
tI-1
tp1431
a((g106
g107
tI-1
tp1432
a((g810
g811
tI-1
tp1433
asg15
g810
sg16
(dp1434
g18
Nsg19
g48
sg21
I21
ssg19
g22
sg21
I264
sg23
g811
sg18
(dp1435
g18
(dp1436
g238
(dp1437
g18
Nsg19
g48
sg21
I41
ssg817
(dp1438
g18
S'H4sIAOP1H04C/2tgSs4rzS2o1EvOL0rVyy3NKclMLCpKrOSKL0pNzs8rLikqTS7hKmSEqOLKS4HI\nFjJ5M7SGMia1BxUya3gzejO3QhWklFQWpHIVsoQypVl4M3gzAhWwangzhzLa+Pn5ef0HAjDhzVCS\n1BkqwQAGH+wZ0EBJkh4Ak4CxA5kAAAA=\n'
p1439
sg19
g146
sg21
I268
ssg820
I0
sg821
F1
sg822
I0
sg223
(dp1440
g18
Nsg19
g48
sg21
I41
ssg240
(dp1441
g18
Nsg19
g48
sg21
I40
ssg155
I0
sg825
I2
sg826
I0
sg149
I0
sg827
F1
sg828
g829
sg137
I0
sg198
(dp1442
g18
S'H4sIAOP1H04C/2tgSs4rzS2o1EvOL0rVyy3NKclMLCpKrOSKL0pNzs8rLikqTS7hKmSEqOLKS4HI\nFjJ5M7SGMia1BxUya3gzejO3QhWklFQWpHIVsoQypVl4M3gzAhWwangzhzLa+Pn5ef0HAjDhzVCS\n1BkqwYAMlk20gTA+2Jck6QEAEakbEZkAAAA=\n'
p1443
sg19
g146
sg21
I266
ssg832
I0
sg833
F30
sg695
(dp1444
g18
S'H4sIAOP1H04C/2tgSs4rzS2o1EvOL0rVyy3NKclMLCpKrOSKL0pNzs8rLikqTS7hKmSEqOLKS4HI\nFjJ5M7SGMia1BxUya3gzejO3QhWklFQWpHIVsoQypVl4M3gzAhWwangzhzLa+Pn5ef0HAjDhzVCS\n1BkqwYADlCTpAQD67GqfmQAAAA==\n'
p1445
sg19
g146
sg21
I267
sssg19
g77
sg21
I265
sssg827
F1
sg836
F0
sg837
(dp1446
g2
(lp1447
((g4
g5
tI-1
tp1448
a((g841
g780
tI0
tp1449
asg15
g841
sg16
(dp1450
g18
Nsg19
g48
sg21
I1
ssg19
g22
sg21
I269
sg23
g780
sg18
(dp1451
g18
(dp1452
g846
F0
sg847
F0
sg78
(dp1453
g2
(lp1454
((g4
g5
tI-1
tp1455
a((g7
g5
tI-1
tp1456
a((g100
g101
tI-1
tp1457
a((g103
g104
tI-1
tp1458
a((g106
g107
tI-1
tp1459
a((g173
g174
tI-1
tp1460
a((g176
g177
tI-1
tp1461
a((g89
g179
tI-1
tp1462
a((g858
g859
tI-1
tp1463
asg15
g858
sg16
(dp1464
g18
Nsg19
g48
sg21
I21
ssg19
g22
sg21
I271
sg23
g859
sg18
(dp1465
g18
(dp1466
g184
(dp1467
g18
S'H4sIAOP1H04C/2tgSs4rzS2o1EvOL0rVyy3NKclMLCpKrOSKL0pNzs8rLikqTS7hKmSEqOLKS4HI\nFjJ5M7SGMia1BxUya3gzejO3QhWklFQWpHIVsoQypVl4M3gzAhWwangzhzLa+Pn5ef0HAjDhzVCS\n1BkqwYADlCTpAQD67GqfmQAAAA==\n'
p1468
sg19
g146
sg21
I273
ssg187
(dp1469
g18
S'H4sIAOP1H04C/2tgSs4rzS2o1EvOL0rVyy3NKclMLCpKrOSKL0pNzs8rLikqTS7hKmSEqOLKS4HI\nFjJ5M7SGMia1BxUya3gzejO3QhWklFQWpHIVsoQypVl4M3gzAhWwangzhzLa+Pn5ef0HAjDhzVCS\n1BkqwQAGH+zR6ZIkPQDfyO6fmQAAAA==\n'
p1470
sg19
g146
sg21
I275
ssg190
(dp1471
g18
S'H4sIAOP1H04C/2tgSs4rzS2o1EvOL0rVyy3NKclMLCpKrOSKL0pNzs8rLikqTS7hKmSEqOLKS4HI\nFjJ5M7SGMia1BxUya3gzejO3QhWklFQWpHIVsoQypVl4M3gzAhWwangzhzLa+Pn5ef0HAjDhzVCS\n1BkqEXa2NK3N9oLNtyDnzRkMjJb8+QuyF/3t3VOSpAcAeqN6JZkAAAA=\n'
p1472
sg19
g146
sg21
I274
ssg137
I0
sg193
I1
sg194
I0
sg195
I1
sg196
I1
sg149
I0
sg155
I0
sg197
I0
sg198
(dp1473
g18
S'H4sIAOP1H04C/2tgSs4rzS2o1EvOL0rVyy3NKclMLCpKrOSKL0pNzs8rLikqTS7hKmSEqOLKS4HI\nFjJ5M7SGMia1BxUya3gzejO3QhWklFQWpHIVsoQypVl4M3gzAhWwangzhzLa+Pn5ef0HAjDhzVCS\n1BkqwYADlCTpAQD67GqfmQAAAA==\n'
p1474
sg19
g146
sg21
I276
ssg201
I1
ssg19
g77
sg21
I272
ssssg19
g77
sg21
I270
ssssg19
g77
sg21
I263
ssa(dp1475
g2
(lp1476
((g4
g5
tI-1
tp1477
a((g793
g780
tI0
tp1478
asg15
g793
sg16
(dp1479
g18
Nsg19
g48
sg21
I1
ssg19
g22
sg21
I277
sg23
g780
sg18
(dp1480
g18
(dp1481
g798
I00
sg799
F0
sg800
(dp1482
g18
Nsg19
g48
sg21
I41
ssg802
(dp1483
g2
(lp1484
((g4
g5
tI-1
tp1485
a((g7
g5
tI-1
tp1486
a((g100
g101
tI-1
tp1487
a((g103
g104
tI-1
tp1488
a((g106
g107
tI-1
tp1489
a((g810
g811
tI-1
tp1490
asg15
g810
sg16
(dp1491
g18
Nsg19
g48
sg21
I21
ssg19
g22
sg21
I279
sg23
g811
sg18
(dp1492
g18
(dp1493
g238
(dp1494
g18
Nsg19
g48
sg21
I41
ssg817
(dp1495
g18
S'H4sIAOP1H04C/2tgSs4rzS2o1EvOL0rVyy3NKclMLCpKrOSKL0pNzs8rLikqTS7hKmSEqOLKS4HI\nFjJ5M7SGMia1BxUya3gzejO3QhWklFQWpHIVsoQypVl4M3gzAhWwangzhzLa+Pn5ef0HAjDhzVCS\n1BkqwQAGH+wZ0EBJkh4Ak4CxA5kAAAA=\n'
p1496
sg19
g146
sg21
I283
ssg820
I0
sg821
F1
sg822
I0
sg223
(dp1497
g18
Nsg19
g48
sg21
I41
ssg240
(dp1498
g18
Nsg19
g48
sg21
I40
ssg155
I0
sg825
I2
sg826
I0
sg149
I0
sg827
F1
sg828
g829
sg137
I0
sg198
(dp1499
g18
S'H4sIAOP1H04C/2tgSs4rzS2o1EvOL0rVyy3NKclMLCpKrOSKL0pNzs8rLikqTS7hKmSEqOLKS4HI\nFjJ5M7SGMia1BxUya3gzejO3QhWklFQWpHIVsoQypVl4M3gzAhWwangzhzLa+Pn5ef0HAjDhzVCS\n1BkqwYAVfLAvSdIDAFBUFn+ZAAAA\n'
p1500
sg19
g146
sg21
I281
ssg832
I0
sg833
F30
sg695
(dp1501
g18
S'H4sIAOP1H04C/2tgSs4rzS2o1EvOL0rVyy3NKclMLCpKrOSKL0pNzs8rLikqTS7hKmSEqOLKS4HI\nFjJ5M7SGMia1BxUya3gzejO3QhWklFQWpHIVsoQypVl4M3gzAhWwangzhzLa+Pn5ef0HAjDhzVCS\n1BkqwYADlCTpAQD67GqfmQAAAA==\n'
p1502
sg19
g146
sg21
I282
sssg19
g77
sg21
I280
sssg827
F1
sg836
F0
sg837
(dp1503
g2
(lp1504
((g4
g5
tI-1
tp1505
a((g841
g780
tI0
tp1506
asg15
g841
sg16
(dp1507
g18
Nsg19
g48
sg21
I1
ssg19
g22
sg21
I284
sg23
g780
sg18
(dp1508
g18
(dp1509
g846
F0
sg847
F0
sg78
(dp1510
g2
(lp1511
((g4
g5
tI-1
tp1512
a((g7
g5
tI-1
tp1513
a((g100
g101
tI-1
tp1514
a((g103
g104
tI-1
tp1515
a((g106
g107
tI-1
tp1516
a((g173
g174
tI-1
tp1517
a((g176
g177
tI-1
tp1518
a((g89
g179
tI-1
tp1519
a((g858
g859
tI-1
tp1520
asg15
g858
sg16
(dp1521
g18
Nsg19
g48
sg21
I21
ssg19
g22
sg21
I286
sg23
g859
sg18
(dp1522
g18
(dp1523
g184
(dp1524
g18
S'H4sIAOP1H04C/2tgSs4rzS2o1EvOL0rVyy3NKclMLCpKrOSKL0pNzs8rLikqTS7hKmSEqOLKS4HI\nFjJ5M7SGMia1BxUya3gzejO3QhWklFQWpHIVsoQypVl4M3gzAhWwangzhzLa+Pn5ef0HAjDhzVCS\n1BkqwYADlCTpAQD67GqfmQAAAA==\n'
p1525
sg19
g146
sg21
I288
ssg187
(dp1526
g18
S'H4sIAOP1H04C/2tgSs4rzS2o1EvOL0rVyy3NKclMLCpKrOSKL0pNzs8rLikqTS7hKmSEqOLKS4HI\nFjJ5M7SGMia1BxUya3gzejO3QhWklFQWpHIVsoQypVl4M3gzAhWwangzhzLa+Pn5ef0HAjDhzVCS\n1BkqwQAGH+zR6ZIkPQDfyO6fmQAAAA==\n'
p1527
sg19
g146
sg21
I290
ssg190
(dp1528
g18
S'H4sIAOP1H04C/2tgSs4rzS2o1EvOL0rVyy3NKclMLCpKrOSKL0pNzs8rLikqTS7hKmSEqOLKS4HI\nFjJ5M7SGMia1BxUya3gzejO3QhWklFQWpHIVsoQypVl4M3gzAhWwangzhzLa+Pn5ef0HAjDhzVCS\n1BkqwYAKGmCMkiQ9ABqDrf+ZAAAA\n'
p1529
sg19
g146
sg21
I289
ssg137
I0
sg193
I1
sg194
I0
sg195
I1
sg196
I1
sg149
I0
sg155
I0
sg197
I0
sg198
(dp1530
g18
S'H4sIAOP1H04C/2tgSs4rzS2o1EvOL0rVyy3NKclMLCpKrOSKL0pNzs8rLikqTS7hKmSEqOLKS4HI\nFjJ5M7SGMia1BxUya3gzejO3QhWklFQWpHIVsoQypVl4M3gzAhWwangzhzLa+Pn5ef0HAjDhzVCS\n1BkqwYADlCTpAQD67GqfmQAAAA==\n'
p1531
sg19
g146
sg21
I291
ssg201
I1
ssg19
g77
sg21
I287
ssssg19
g77
sg21
I285
ssssg19
g77
sg21
I278
ssasg19
g55
sg21
I231
ssS'light_mode_'
p1532
I2
sg1043
I4
ssg19
g77
sg21
I230
sssg1044
I1
ssg19
g77
sg21
I173
sssg203
S''
sg19
S' scene'
p1533
sg1046
(dp1534
g18
(lp1535
(dp1536
g2
(lp1537
((g4
g5
tI-1
tp1538
a((g30
g5
tI-1
tp1539
a((g32
g33
tI-1
tp1540
a((g35
g36
tI0
tp1541
a((g38
g39
tI0
tp1542
a((S'Source'
p1543
S'enthought.mayavi.core.source'
p1544
tI0
tp1545
a((S'ParametricSurface'
p1546
S'enthought.mayavi.sources.parametric_surface'
p1547
tI0
tp1548
asg15
g1546
sg16
(dp1549
g18
Nsg19
g48
sg21
I1
ssg19
g22
sg21
I293
sg23
g1547
sg18
(dp1550
g18
(dp1551
S'function'
p1552
S'random_hills'
p1553
sS'_function_dict'
p1554
(dp1555
g18
(dp1556
S'conic_spiral'
p1557
(dp1558
g2
(lp1559
((g4
g5
tI-1
tp1560
a((g7
g5
tI-1
tp1561
a((g100
g101
tI-1
tp1562
a((g103
g104
tI-1
tp1563
a((g106
g107
tI-1
tp1564
a((S'ParametricFunction'
p1565
S'tvtk_classes.parametric_function'
p1566
tI-1
tp1567
a((S'ParametricConicSpiral'
p1568
S'tvtk_classes.parametric_conic_spiral'
p1569
tI-1
tp1570
asg15
g1568
sg16
(dp1571
g18
Nsg19
g48
sg21
I21
ssg19
g22
sg21
I296
sg23
g1569
sg18
(dp1572
g18
(dp1573
S'join_u_'
p1574
I0
sS'derivatives_available'
p1575
I1
sS'twist_v'
p1576
I0
sS'twist_u'
p1577
I0
sS'derivatives_available_'
p1578
I1
sS'twist_v_'
p1579
I0
sS'minimum_v'
p1580
F0
sS'minimum_w'
p1581
F0
sS'maximum_v'
p1582
F6.2831854820251465
sS'maximum_w'
p1583
F1
sS'clockwise_ordering_'
p1584
I1
sS'clockwise_ordering'
p1585
I1
sS'twist_u_'
p1586
I0
sS'maximum_u'
p1587
F6.2831854820251465
sS'join_v'
p1588
I0
sS'join_u'
p1589
I0
sg149
I0
sS'a'
F0.20000000000000001
sS'c'
F0.10000000000000001
sS'b'
F1
sg155
I0
sS'n'
F2
sg137
I0
sS'join_v_'
p1590
I0
sS'minimum_u'
p1591
F0
ssg19
g77
sg21
I297
sssS'enneper'
p1592
(dp1593
g2
(lp1594
((g4
g5
tI-1
tp1595
a((g7
g5
tI-1
tp1596
a((g100
g101
tI-1
tp1597
a((g103
g104
tI-1
tp1598
a((g106
g107
tI-1
tp1599
a((g1565
g1566
tI-1
tp1600
a((S'ParametricEnneper'
p1601
S'tvtk_classes.parametric_enneper'
p1602
tI-1
tp1603
asg15
g1601
sg16
(dp1604
g18
Nsg19
g48
sg21
I21
ssg19
g22
sg21
I298
sg23
g1602
sg18
(dp1605
g18
(dp1606
g1574
I0
sg1585
I1
sg1591
F-2
sg149
I0
sg1586
I0
sg1575
I1
sg1587
F2
sg1588
I0
sg1589
I0
sg1576
I0
sg1577
I0
sg1578
I1
sg1579
I0
sg1580
F-2
sg1581
F0
sg137
I0
sg1590
I0
sg155
I0
sg1582
F2
sg1583
F1
sg1584
I1
ssg19
g77
sg21
I299
sssS'cap'
p1607
(dp1608
g2
(lp1609
((g4
g5
tI-1
tp1610
a((g7
g5
tI-1
tp1611
a((g100
g101
tI-1
tp1612
a((g103
g104
tI-1
tp1613
a((g106
g107
tI-1
tp1614
a((g1565
g1566
tI-1
tp1615
a((S'ParametricCrossCap'
p1616
S'tvtk_classes.parametric_cross_cap'
p1617
tI-1
tp1618
asg15
g1616
sg16
(dp1619
g18
Nsg19
g48
sg21
I21
ssg19
g22
sg21
I312
sg23
g1617
sg18
(dp1620
g18
(dp1621
g1574
I1
sg1585
I1
sg1591
F0
sg149
I0
sg1586
I1
sg1575
I1
sg1587
F3.1415927410125732
sg1588
I1
sg1589
I1
sg1576
I1
sg1577
I1
sg1578
I1
sg1579
I1
sg1580
F0
sg1581
F0
sg137
I0
sg1590
I1
sg155
I0
sg1582
F3.1415927410125732
sg1583
F1
sg1584
I1
ssg19
g77
sg21
I313
sssg1553
(dp1622
g2
(lp1623
((g4
g5
tI-1
tp1624
a((g7
g5
tI-1
tp1625
a((g100
g101
tI-1
tp1626
a((g103
g104
tI-1
tp1627
a((g106
g107
tI-1
tp1628
a((g1565
g1566
tI-1
tp1629
a((S'ParametricRandomHills'
p1630
S'tvtk_classes.parametric_random_hills'
p1631
tI-1
tp1632
asg15
g1630
sg16
(dp1633
g18
Nsg19
g48
sg21
I21
ssg19
g22
sg21
I302
sg23
g1631
sg18
(dp1634
g18
(dp1635
g1574
I0
sS'number_of_hills'
p1636
I32
sS'hill_y_variance'
p1637
F2.5
sg1575
I0
sS'allow_random_generation'
p1638
I1
sg1576
I0
sg1577
I0
sg1578
I0
sg1579
I0
sg1580
F-10
sg1581
F0
sg1582
F10
sg1583
F1
sg1584
I1
sg1585
I1
sS'y_variance_scale_factor'
p1639
F0.33333333333333331
sg1586
I0
sS'hill_x_variance'
p1640
F2.5
sg1587
F10
sS'random_seed'
p1641
I101
sg1588
I0
sg1589
I0
sg149
I0
sS'amplitude_scale_factor'
p1642
F0.33333333333333331
sS'x_variance_scale_factor'
p1643
F0.33333333333333331
sS'allow_random_generation_'
p1644
I1
sS'hill_amplitude'
p1645
F2
sg155
I0
sg137
I0
sg1590
I0
sg1591
F-10
ssg19
g77
sg21
I303
sssS'klein'
p1646
(dp1647
g2
(lp1648
((g4
g5
tI-1
tp1649
a((g7
g5
tI-1
tp1650
a((g100
g101
tI-1
tp1651
a((g103
g104
tI-1
tp1652
a((g106
g107
tI-1
tp1653
a((g1565
g1566
tI-1
tp1654
a((S'ParametricKlein'
p1655
S'tvtk_classes.parametric_klein'
p1656
tI-1
tp1657
asg15
g1655
sg16
(dp1658
g18
Nsg19
g48
sg21
I21
ssg19
g22
sg21
I304
sg23
g1656
sg18
(dp1659
g18
(dp1660
g1574
I0
sg1585
I1
sg1591
F0
sg149
I0
sg1586
I0
sg1575
I1
sg1587
F3.1415927410125732
sg1588
I1
sg1589
I0
sg1576
I0
sg1577
I0
sg1578
I1
sg1579
I0
sg1580
F0
sg1581
F0
sg137
I0
sg1590
I1
sg155
I0
sg1582
F6.2831854820251465
sg1583
F1
sg1584
I1
ssg19
g77
sg21
I305
sssS'ellipsoid'
p1661
(dp1662
g2
(lp1663
((g4
g5
tI-1
tp1664
a((g7
g5
tI-1
tp1665
a((g100
g101
tI-1
tp1666
a((g103
g104
tI-1
tp1667
a((g106
g107
tI-1
tp1668
a((g1565
g1566
tI-1
tp1669
a((S'ParametricEllipsoid'
p1670
S'tvtk_classes.parametric_ellipsoid'
p1671
tI-1
tp1672
asg15
g1670
sg16
(dp1673
g18
Nsg19
g48
sg21
I21
ssg19
g22
sg21
I306
sg23
g1671
sg18
(dp1674
g18
(dp1675
g1574
I1
sS'x_radius'
p1676
F1
sg1575
I1
sS'y_radius'
p1677
F1
sg1576
I0
sg1577
I0
sg1578
I1
sg1579
I0
sg1580
F0
sg1581
F0
sg1582
F3.1415927410125732
sg1583
F1
sg1584
I1
sg1585
I1
sg1586
I0
sS'z_radius'
p1678
F1
sg1587
F6.2831854820251465
sg1588
I0
sg1589
I1
sg149
I0
sg155
I0
sg137
I0
sg1590
I0
sg1591
F0
ssg19
g77
sg21
I307
sssS'boy'
p1679
(dp1680
g2
(lp1681
((g4
g5
tI-1
tp1682
a((g7
g5
tI-1
tp1683
a((g100
g101
tI-1
tp1684
a((g103
g104
tI-1
tp1685
a((g106
g107
tI-1
tp1686
a((g1565
g1566
tI-1
tp1687
a((S'ParametricBoy'
p1688
S'tvtk_classes.parametric_boy'
p1689
tI-1
tp1690
asg15
g1688
sg16
(dp1691
g18
Nsg19
g48
sg21
I21
ssg19
g22
sg21
I300
sg23
g1689
sg18
(dp1692
g18
(dp1693
g1574
I1
sg1575
I1
sg1576
I1
sg1577
I1
sg1578
I1
sg1591
F0
sg1580
F0
sg1581
F0
sg1582
F3.1415927410125732
sg1583
F1
sg1587
F3.1415927410125732
sg1585
I1
sg1586
I1
sg1584
I1
sg1588
I1
sg1589
I1
sg149
I0
sS'z_scale'
p1694
F0.125
sg155
I0
sg137
I0
sg1590
I1
sg1579
I1
ssg19
g77
sg21
I301
sssS'torus'
p1695
(dp1696
g2
(lp1697
((g4
g5
tI-1
tp1698
a((g7
g5
tI-1
tp1699
a((g100
g101
tI-1
tp1700
a((g103
g104
tI-1
tp1701
a((g106
g107
tI-1
tp1702
a((g1565
g1566
tI-1
tp1703
a((S'ParametricTorus'
p1704
S'tvtk_classes.parametric_torus'
p1705
tI-1
tp1706
asg15
g1704
sg16
(dp1707
g18
Nsg19
g48
sg21
I21
ssg19
g22
sg21
I310
sg23
g1705
sg18
(dp1708
g18
(dp1709
g1574
I1
sg1575
I1
sg1576
I0
sg1577
I0
sg1578
I1
sg1579
I0
sg1580
F0
sg1581
F0
sS'cross_section_radius'
p1710
F0.5
sg1582
F6.2831854820251465
sg1583
F1
sg1587
F6.2831854820251465
sg1585
I1
sg1586
I0
sg1584
I1
sg1588
I1
sg1589
I1
sg149
I0
sS'ring_radius'
p1711
F1
sg155
I0
sg137
I0
sg1590
I1
sg1591
F0
ssg19
g77
sg21
I311
sssS'figure8klein'
p1712
(dp1713
g2
(lp1714
((g4
g5
tI-1
tp1715
a((g7
g5
tI-1
tp1716
a((g100
g101
tI-1
tp1717
a((g103
g104
tI-1
tp1718
a((g106
g107
tI-1
tp1719
a((g1565
g1566
tI-1
tp1720
a((S'ParametricFigure8Klein'
p1721
S'tvtk_classes.parametric_figure8_klein'
p1722
tI-1
tp1723
asg15
g1721
sg16
(dp1724
g18
Nsg19
g48
sg21
I21
ssg19
g22
sg21
I308
sg23
g1722
sg18
(dp1725
g18
(dp1726
g1574
I1
sg1575
I1
sg1576
I0
sg1577
I1
sg1578
I1
sS'radius'
p1727
F1
sg1591
F-3.1415927410125732
sg1580
F-3.1415927410125732
sg1581
F0
sg1582
F3.1415927410125732
sg1583
F1
sg1587
F3.1415927410125732
sg1585
I1
sg1586
I1
sg1584
I1
sg1588
I1
sg1589
I1
sg149
I0
sg155
I0
sg137
I0
sg1590
I1
sg1579
I0
ssg19
g77
sg21
I309
sssS'super_toroid'
p1728
(dp1729
g2
(lp1730
((g4
g5
tI-1
tp1731
a((g7
g5
tI-1
tp1732
a((g100
g101
tI-1
tp1733
a((g103
g104
tI-1
tp1734
a((g106
g107
tI-1
tp1735
a((g1565
g1566
tI-1
tp1736
a((S'ParametricSuperToroid'
p1737
S'tvtk_classes.parametric_super_toroid'
p1738
tI-1
tp1739
asg15
g1737
sg16
(dp1740
g18
Nsg19
g48
sg21
I21
ssg19
g22
sg21
I314
sg23
g1738
sg18
(dp1741
g18
(dp1742
g1574
I1
sg1676
F1
sg1575
I0
sg1677
F1
sg1576
I0
sg1577
I0
sg1578
I0
sg1591
F0
sg1580
F0
sg1581
F0
sg1710
F0.5
sg1582
F6.2831854820251465
sg1583
F1
sg1584
I1
sg1585
I1
sg1586
I0
sg1678
F1
sg1587
F6.2831854820251465
sg1588
I1
sg1589
I1
sg149
I0
sg1711
F1
sS'n1'
p1743
F1
sg155
I0
sg137
I0
sg1590
I1
sS'n2'
p1744
F1
sg1579
I0
ssg19
g77
sg21
I315
sssS'dini'
p1745
(dp1746
g2
(lp1747
((g4
g5
tI-1
tp1748
a((g7
g5
tI-1
tp1749
a((g100
g101
tI-1
tp1750
a((g103
g104
tI-1
tp1751
a((g106
g107
tI-1
tp1752
a((g1565
g1566
tI-1
tp1753
a((S'ParametricDini'
p1754
S'tvtk_classes.parametric_dini'
p1755
tI-1
tp1756
asg15
g1754
sg16
(dp1757
g18
Nsg19
g48
sg21
I21
ssg19
g22
sg21
I316
sg23
g1755
sg18
(dp1758
g18
(dp1759
g1574
I0
sg1575
I1
sg1576
I0
sg1577
I0
sg1578
I1
sg1591
F0
sg1580
F0.001
sg1581
F0
sg1582
F2
sg1583
F1
sg1587
F12.566370964050293
sg1585
I1
sg1586
I0
sg1584
I1
sg1588
I0
sg1589
I0
sg149
I0
sS'a'
F1
sS'b'
F0.20000000000000001
sg155
I0
sg137
I0
sg1590
I0
sg1579
I0
ssg19
g77
sg21
I317
sssS'roman'
p1760
(dp1761
g2
(lp1762
((g4
g5
tI-1
tp1763
a((g7
g5
tI-1
tp1764
a((g100
g101
tI-1
tp1765
a((g103
g104
tI-1
tp1766
a((g106
g107
tI-1
tp1767
a((g1565
g1566
tI-1
tp1768
a((S'ParametricRoman'
p1769
S'tvtk_classes.parametric_roman'
p1770
tI-1
tp1771
asg15
g1769
sg16
(dp1772
g18
Nsg19
g48
sg21
I21
ssg19
g22
sg21
I318
sg23
g1770
sg18
(dp1773
g18
(dp1774
g1574
I1
sg1575
I1
sg1576
I0
sg1577
I1
sg1578
I1
sg1727
F1
sg1591
F0
sg1580
F0
sg1581
F0
sg1582
F3.1415927410125732
sg1583
F1
sg1587
F3.1415927410125732
sg1585
I1
sg1586
I1
sg1584
I1
sg1588
I1
sg1589
I1
sg149
I0
sg155
I0
sg137
I0
sg1590
I1
sg1579
I0
ssg19
g77
sg21
I319
sssS'mobius'
p1775
(dp1776
g2
(lp1777
((g4
g5
tI-1
tp1778
a((g7
g5
tI-1
tp1779
a((g100
g101
tI-1
tp1780
a((g103
g104
tI-1
tp1781
a((g106
g107
tI-1
tp1782
a((g1565
g1566
tI-1
tp1783
a((S'ParametricMobius'
p1784
S'tvtk_classes.parametric_mobius'
p1785
tI-1
tp1786
asg15
g1784
sg16
(dp1787
g18
Nsg19
g48
sg21
I21
ssg19
g22
sg21
I320
sg23
g1785
sg18
(dp1788
g18
(dp1789
g1574
I1
sg1575
I1
sg1576
I0
sg1577
I1
sg1578
I1
sg1727
F1
sg1591
F0
sg1580
F-1
sg1581
F0
sg1582
F1
sg1583
F1
sg1587
F6.2831854820251465
sg1585
I1
sg1586
I1
sg1584
I1
sg1588
I0
sg1589
I1
sg149
I0
sg155
I0
sg137
I0
sg1590
I0
sg1579
I0
ssg19
g77
sg21
I321
sssS'super_ellipsoid'
p1790
(dp1791
g2
(lp1792
((g4
g5
tI-1
tp1793
a((g7
g5
tI-1
tp1794
a((g100
g101
tI-1
tp1795
a((g103
g104
tI-1
tp1796
a((g106
g107
tI-1
tp1797
a((g1565
g1566
tI-1
tp1798
a((S'ParametricSuperEllipsoid'
p1799
S'tvtk_classes.parametric_super_ellipsoid'
p1800
tI-1
tp1801
asg15
g1799
sg16
(dp1802
g18
Nsg19
g48
sg21
I21
ssg19
g22
sg21
I322
sg23
g1800
sg18
(dp1803
g18
(dp1804
g1574
I1
sg1676
F1
sg1575
I0
sg1677
F1
sg1576
I0
sg1577
I0
sg1578
I0
sg1579
I0
sg1580
F0
sg1581
F0
sg1582
F3.1415927410125732
sg1583
F1
sg1584
I1
sg1585
I1
sg1586
I0
sg1678
F1
sg1587
F6.2831854820251465
sg1588
I0
sg1589
I1
sg149
I0
sg1743
F1
sg155
I0
sg137
I0
sg1590
I0
sg1744
F1
sg1591
F0
ssg19
g77
sg21
I323
sssS'spline'
p1805
(dp1806
g2
(lp1807
((g4
g5
tI-1
tp1808
a((g7
g5
tI-1
tp1809
a((g100
g101
tI-1
tp1810
a((g103
g104
tI-1
tp1811
a((g106
g107
tI-1
tp1812
a((g1565
g1566
tI-1
tp1813
a((S'ParametricSpline'
p1814
S'tvtk_classes.parametric_spline'
p1815
tI-1
tp1816
asg15
g1814
sg16
(dp1817
g18
Nsg19
g48
sg21
I21
ssg19
g22
sg21
I324
sg23
g1815
sg18
(dp1818
g18
(dp1819
g1574
I0
sS'left_value'
p1820
F0
sg1576
I0
sg1577
I0
sg1578
I1
sg1579
I0
sg1580
F0
sg1581
F0
sg1582
F1
sg1583
F1
sS'right_value'
p1821
F0
sg1585
I1
sg1586
I0
sS'left_constraint'
p1822
I1
sS'parameterize_by_length_'
p1823
I1
sS'closed'
p1824
I0
sg1584
I1
sg1575
I1
sS'closed_'
p1825
I0
sg1588
I0
sg1589
I0
sg149
I0
sS'right_constraint'
p1826
I1
sS'parameterize_by_length'
p1827
I1
sg1587
F1
sg155
I0
sg137
I0
sg1590
I0
sg1591
F0
ssg19
g77
sg21
I325
ssssg19
g77
sg21
I295
ssg56
S'ParametricSurface'
p1828
sg802
(dp1829
g2
(lp1830
((g4
g5
tI-1
tp1831
a((g7
g5
tI-1
tp1832
a((g100
g101
tI-1
tp1833
a((g103
g104
tI-1
tp1834
a((g106
g107
tI-1
tp1835
a((g109
g110
tI-1
tp1836
a((g300
g301
tI-1
tp1837
a((S'ParametricFunctionSource'
p1838
S'tvtk_classes.parametric_function_source'
p1839
tI-1
tp1840
asg15
g1838
sg16
(dp1841
g18
Nsg19
g48
sg21
I21
ssg19
g22
sg21
I712
sg23
g1839
sg18
(dp1842
g18
(dp1843
g153
I0
sS'generate_texture_coordinates_'
p1844
I0
sS'w_resolution'
p1845
I50
sg129
S'z'
sS'v_resolution'
p1846
I50
sg147
NsS'generate_texture_coordinates'
p1847
I0
sg137
I0
sg149
I0
sg140
I0
sg150
I11
sg141
I0
sg158
I0
sg142
F1
sS'u_resolution'
p1848
I50
sg155
I0
ssg19
g77
sg21
I713
sssg57
(dp1849
g2
(lp1850
((g4
g5
tI-1
tp1851
a((g61
g62
tI-1
tp1852
asg15
g61
sg16
(dp1853
g18
Nsg19
g48
sg21
I1
ssg19
g22
sg21
I714
sg23
g62
sg18
(dp1854
g18
(dp1855
g67
(dp1856
g18
(lp1857
g263
asg19
g55
sg21
I716
ssg70
(dp1858
g18
(lp1859
S'poly_data'
p1860
asg19
g55
sg21
I717
ssg74
(dp1861
g18
(lp1862
g263
asg19
g55
sg21
I718
sssg19
g77
sg21
I715
sssg202
I01
sg203
S''
sS'recorder'
p1863
Nsg19
S' data source'
p1864
sg1046
(dp1865
g18
(lp1866
(dp1867
g2
(lp1868
((g4
g5
tI-1
tp1869
a((g30
g5
tI-1
tp1870
a((g32
g33
tI-1
tp1871
a((g35
g36
tI0
tp1872
a((S'ModuleManager'
p1873
S'enthought.mayavi.core.module_manager'
p1874
tI0
tp1875
asg15
g1873
sg16
(dp1876
g18
Nsg19
g48
sg21
I1
ssg19
g22
sg21
I327
sg23
g1874
sg18
(dp1877
g18
(dp1878
g56
S'Colors and legends'
p1879
sS'lut_data_mode'
p1880
S'auto'
p1881
sS'vector_lut_manager'
p1882
(dp1883
g2
(lp1884
((g4
g5
tI-1
tp1885
a((g30
g5
tI-1
tp1886
a((g32
g33
tI-1
tp1887
a((g35
g36
tI0
tp1888
a((S'LUTManager'
p1889
S'enthought.mayavi.core.lut_manager'
p1890
tI0
tp1891
asg15
g1889
sg16
(dp1892
g18
Nsg19
g48
sg21
I1
ssg19
g22
sg21
I329
sg23
g1890
sg18
(dp1893
g18
(dp1894
S'_label_text_property'
p1895
(dp1896
g2
(lp1897
((g4
g5
tI-1
tp1898
a((g7
g5
tI-1
tp1899
a((g100
g101
tI-1
tp1900
a((g103
g104
tI-1
tp1901
a((g106
g107
tI-1
tp1902
a((S'TextProperty'
p1903
S'tvtk_classes.text_property'
p1904
tI-1
tp1905
asg15
g1903
sg16
(dp1906
g18
Nsg19
g48
sg21
I21
ssg19
g22
sg21
I331
sg23
g1904
sg18
(dp1907
g18
(dp1908
g235
F1
sS'justification'
p1909
S'left'
p1910
sS'font_size'
p1911
I12
sg190
F0
sS'line_offset'
p1912
F0
sS'italic_'
p1913
I1
sS'vertical_justification'
p1914
S'bottom'
p1915
sS'shadow_'
p1916
I0
sg155
I0
sS'line_spacing'
p1917
F1.1000000000000001
sg800
(dp1918
g18
Nsg19
g48
sg21
I41
ssS'italic'
p1919
I1
sS'shadow_offset'
p1920
(dp1921
g18
S'H4sIAOP1H04C/2tgSs4rzS2o1EvOL0rVyy3NKclMLCpKrOSKL0pNzs8rLikqTS7hKmSEqOLKS4HI\nFjJ5M7SGMia1BxUya3gzejO1QhWklFQWpHIVsoQyZZp4M3gzAhWwangzhzLa+Pn5ef0HAjDhzVCS\n1BnKwcjAwADiliTpAQCk2G9tiQAAAA==\n'
p1922
sg19
g146
sg21
I333
ssg137
I0
sS'bold_'
p1923
I1
sS'shadow'
p1924
I0
sS'font_family'
p1925
S'arial'
p1926
sg149
I0
sS'bold'
p1927
I1
ssg19
g77
sg21
I332
sssS'file_name'
p1928
S''
sS'data_name'
p1929
S'No vectors'
p1930
sS'visible'
p1931
I01
sS'default_data_range'
p1932
(dp1933
g18
S'H4sIAOP1H04C/2tgSs4rzS2o1EvOL0rVyy3NKclMLCpKrOSKL0pNzs8rLikqTS7hKmSEqOLKS4HI\nFjJ5M7SGMia1BxUya3gzejO1QhWklFQWpHIVsoQypVl4M3gzAhWwangzhzLa+Pn5ef0HAjDhzVCS\n1BkqwIACPtiXJOkBAIHIRA6RAAAA\n'
p1934
sg19
g146
sg21
I334
ssS'lut'
p1935
(dp1936
g2
(lp1937
((g4
g5
tI-1
tp1938
a((g7
g5
tI-1
tp1939
a((g100
g101
tI-1
tp1940
a((g103
g104
tI-1
tp1941
a((g106
g107
tI-1
tp1942
a((S'ScalarsToColors'
p1943
S'tvtk_classes.scalars_to_colors'
p1944
tI-1
tp1945
a((S'LookupTable'
p1946
S'tvtk_classes.lookup_table'
p1947
tI-1
tp1948
asg15
g1946
sg16
(dp1949
g18
Nsg19
g48
sg21
I21
ssg19
g22
sg21
I335
sg23
g1947
sg18
(dp1950
g18
(dp1951
S'ramp_'
p1952
I2
sg187
S'linear'
p1953
sS'saturation_range'
p1954
(dp1955
g18
S'H4sIAOP1H04C/2tgSs4rzS2o1EvOL0rVyy3NKclMLCpKrOSKL0pNzs8rLikqTS7hKmSEqOLKS4HI\nFjJ5M7SGMia1BxUya3gzejO1QhWklFQWpHIVsoQypVl4M3gzAhWwangzhzLa+Pn5ef0HAjDhzVCS\n1BkqwAAGH+xhdEmSHgBnOGdykQAAAA==\n'
p1956
sg19
g146
sg21
I337
ssS'table_range'
p1957
(dp1958
g18
S'H4sIAOP1H04C/2tgSs4rzS2o1EvOL0rVyy3NKclMLCpKrOSKL0pNzs8rLikqTS7hKmSEqOLKS4HI\nFjJ5M7SGMia1BxUya3gzejO1QhWklFQWpHIVsoQypVl4M3gzAhWwangzhzLa+Pn5ef0HAjDhzVCS\n1BkqwIACPtiXJOkBAIHIRA6RAAAA\n'
p1959
sg19
g146
sg21
I339
ssS'hue_range'
p1960
(dp1961
g18
S'H4sIAOP1H04C/2tgSs4rzS2o1EvOL0rVyy3NKclMLCpKrOSKL0pNzs8rLikqTS7hKmSEqOLKS4HI\nFjJ5M7SGMia1BxUya3gzejO1QhWklFQWpHIVsoQypVl4M3gzAhWwangzhzLa+Pn5ef0HAjDhzVCS\n1Bkq4H2C3XZ26FN7BigoSdIDAObNAnCRAAAA\n'
p1962
sg19
g146
sg21
I338
ssS'number_of_table_values'
p1963
I256
sS'ramp'
p1964
S'sqrt'
p1965
sg155
I0
sS'number_of_colors'
p1966
I256
sS'alpha_range'
p1967
(dp1968
g18
S'H4sIAOP1H04C/2tgSs4rzS2o1EvOL0rVyy3NKclMLCpKrOSKL0pNzs8rLikqTS7hKmSEqOLKS4HI\nFjJ5M7SGMia1BxUya3gzejO1QhWklFQWpHIVsoQypVl4M3gzAhWwangzhzLa+Pn5ef0HAjDhzVCS\n1BkqwAAGH+xhdEmSHgBnOGdykQAAAA==\n'
p1969
sg19
g146
sg21
I340
ssS'range'
p1970
(dp1971
g18
S'H4sIAOP1H04C/2tgSs4rzS2o1EvOL0rVyy3NKclMLCpKrOSKL0pNzs8rLikqTS7hKmSEqOLKS4HI\nFjJ5M7SGMia1BxUya3gzejO1QhWklFQWpHIVsoQypVl4M3gzAhWwangzhzLa+Pn5ef0HAjDhzVCS\n1BkqwIACPtiXJOkBAIHIRA6RAAAA\n'
p1972
sg19
g146
sg21
I341
ssS'vector_component'
p1973
I0
sS'value_range'
p1974
(dp1975
g18
S'H4sIAOP1H04C/2tgSs4rzS2o1EvOL0rVyy3NKclMLCpKrOSKL0pNzs8rLikqTS7hKmSEqOLKS4HI\nFjJ5M7SGMia1BxUya3gzejO1QhWklFQWpHIVsoQypVl4M3gzAhWwangzhzLa+Pn5ef0HAjDhzVCS\n1BkqwAAGH+xhdEmSHgBnOGdykQAAAA==\n'
p1976
sg19
g146
sg21
I342
ssg137
I0
sS'alpha'
p1977
F1
sS'vector_mode'
p1978
S'component'
p1979
sg149
I0
ssg19
g77
sg21
I336
sssS'_title_text_property'
p1980
(dp1981
g2
(lp1982
((g4
g5
tI-1
tp1983
a((g7
g5
tI-1
tp1984
a((g100
g101
tI-1
tp1985
a((g103
g104
tI-1
tp1986
a((g106
g107
tI-1
tp1987
a((g1903
g1904
tI-1
tp1988
asg15
g1903
sg16
(dp1989
g18
Nsg19
g48
sg21
I21
ssg19
g22
sg21
I352
sg23
g1904
sg18
(dp1990
g18
(dp1991
g235
F1
sg1909
g1910
sg1911
I12
sg190
F0
sg1912
F0
sg1913
I1
sg1914
g1915
sg1916
I0
sg155
I0
sg1917
F1.1000000000000001
sg800
(dp1992
g18
Nsg19
g48
sg21
I41
ssg1919
I1
sg1920
(dp1993
g18
S'H4sIAOT1H04C/2tgSs4rzS2o1EvOL0rVyy3NKclMLCpKrOSKL0pNzs8rLikqTS7hKmSEqOLKS4HI\nFjJ5M7SGMia1BxUya3gzejO1QhWklFQWpHIVsoQyZZp4M3gzAhWwangzhzLa+Pn5ef0HAjDhzVCS\n1BnKwcjAwADiliTpAQCk2G9tiQAAAA==\n'
p1994
sg19
g146
sg21
I354
ssg137
I0
sg1923
I1
sg1924
I0
sg1925
g1926
sg149
I0
sg1927
I1
ssg19
g77
sg21
I353
sssg1966
I256
sS'_orig_data_range'
p1995
(dp1996
g18
S'H4sIAOP1H04C/2tgSs4rzS2o1EvOL0rVyy3NKclMLCpKrOSKL0pNzs8rLikqTS7hKmSEqOLKS4HI\nFjJ5M7SGMia1BxUya3gzejO1QhWklFQWpHIVsoQypVl4M3gzAhWwangzhzLa+Pn5ef0HAjDhzVCS\n1BkqwIACPtiXJOkBAIHIRA6RAAAA\n'
p1997
sg19
g146
sg21
I345
ssg1863
NsS'reverse_lut'
p1998
I00
sS'type'
p1999
S''
sS'scalar_bar_representation'
p2000
(dp2001
g2
(lp2002
((g4
g5
tI-1
tp2003
a((g7
g5
tI-1
tp2004
a((g100
g101
tI-1
tp2005
a((g103
g104
tI-1
tp2006
a((g106
g107
tI-1
tp2007
a((g173
g174
tI-1
tp2008
a((S'WidgetRepresentation'
p2009
S'tvtk_classes.widget_representation'
p2010
tI-1
tp2011
a((S'BorderRepresentation'
p2012
S'tvtk_classes.border_representation'
p2013
tI-1
tp2014
a((S'ScalarBarRepresentation'
p2015
S'tvtk_classes.scalar_bar_representation'
p2016
tI-1
tp2017
asg15
g2015
sg16
(dp2018
g18
Nsg19
g48
sg21
I21
ssg19
g22
sg21
I346
sg23
g2016
sg18
(dp2019
g18
(dp2020
g190
I1
sS'need_to_render'
p2021
I0
sg193
I1
sg195
I1
sS'show_border'
p2022
S'active'
p2023
sg197
I1
sS'show_border_'
p2024
I2
sS'need_to_render_'
p2025
I0
sS'proportional_resize_'
p2026
I0
sS'position2'
p2027
(dp2028
g18
S'H4sIAOT1H04C/2tgSs4rzS2o1EvOL0rVyy3NKclMLCpKrOSKL0pNzs8rLikqTS7hKmSEqOLKS4HI\nFjJ5M7SGMia1BxUya3gzejO1QhWklFQWpHIVsoQypVl4M3gzAhWwangzhzLa+Pn5ef0HAjDhzVCS\n1BkqcPirRkz/oaP2s2aCwEv7kiQ9AC+e0nyRAAAA\n'
p2029
sg19
g146
sg21
I349
ssS'moving_'
p2030
I0
sS'maximum_size'
p2031
(dp2032
g18
S'H4sIAOT1H04C/2tgSs4rzS2o1EvOL0rVyy3NKclMLCpKrOSKL0pNzs8rLikqTS7hKmSEqOLKS4HI\nFjJ5M7SGMia1BxUya3gzejO1QhWklFQWpHIVsoQyZZp4M3gzAhWwangzhzLa+Pn5ef0HAjDhzVCS\n1BnKsaCNkQGES5L0ALP9TXGJAAAA\n'
p2033
sg19
g146
sg21
I351
ssg201
I1
sg510
I3
sS'minimum_size'
p2034
(dp2035
g18
S'H4sIAOT1H04C/2tgSs4rzS2o1EvOL0rVyy3NKclMLCpKrOSKL0pNzs8rLikqTS7hKmSEqOLKS4HI\nFjJ5M7SGMia1BxUya3gzejO1QhWklFQWpHIVsoQyZZp4M3gzAhWwangzhzLa+Pn5ef0HAjDhzVCS\n1BnKwcjAwADCJUl6AJHzi6mJAAAA\n'
p2036
sg19
g146
sg21
I348
ssg194
I1
sg196
I1
sg149
I0
sS'moving'
p2037
I0
sS'place_factor'
p2038
F0.5
sS'proportional_resize'
p2039
I0
sg155
I0
sg137
I0
sg198
(dp2040
g18
S'H4sIAOT1H04C/2tgSs4rzS2o1EvOL0rVyy3NKclMLCpKrOSKL0pNzs8rLikqTS7hKmSEqOLKS4HI\nFjJ5M7SGMia1BxUya3gzejO1QhWklFQWpHIVsoQypVl4M3gzAhWwangzhzLa+Pn5ef0HAjDhzVCS\n1BkqYMt1fXGB7Sv7WTNBYKd9SZIeADd4AQGRAAAA\n'
p2041
sg19
g146
sg21
I350
ssS'handle_size'
p2042
F0.01
ssg19
g77
sg21
I347
sssS'scalar_bar_widget'
p2043
(dp2044
g2
(lp2045
((g4
g5
tI-1
tp2046
a((g7
g5
tI-1
tp2047
a((g100
g101
tI-1
tp2048
a((g103
g104
tI-1
tp2049
a((g106
g107
tI-1
tp2050
a((g580
g581
tI-1
tp2051
a((S'AbstractWidget'
p2052
S'tvtk_classes.abstract_widget'
p2053
tI-1
tp2054
a((S'BorderWidget'
p2055
S'tvtk_classes.border_widget'
p2056
tI-1
tp2057
a((S'ScalarBarWidget'
p2058
S'tvtk_classes.scalar_bar_widget'
p2059
tI-1
tp2060
asg15
g2058
sg16
(dp2061
g18
Nsg19
g48
sg21
I21
ssg19
g22
sg21
I343
sg23
g2059
sg18
(dp2062
g18
(dp2063
S'process_events_'
p2064
I1
sg589
S'i'
sS'resizable'
p2065
I1
sg149
I0
sg137
I0
sg590
I0
sg593
I0
sg155
I0
sS'manages_cursor'
p2066
I1
sg592
F0.5
sS'repositionable'
p2067
I1
sS'repositionable_'
p2068
I1
sS'manages_cursor_'
p2069
I1
sg594
I0
sS'resizable_'
p2070
I1
sS'selectable_'
p2071
I0
sS'selectable'
p2072
I0
sg595
I0
sS'process_events'
p2073
I1
ssg19
g77
sg21
I344
sssS'show_scalar_bar'
p2074
I00
sg1924
I00
sS'lut_mode'
p2075
S'RdYlBu'
p2076
sS'use_default_name'
p2077
I01
sS'name'
p2078
S''
sS'number_of_labels'
p2079
I8
sS'data_range'
p2080
(dp2081
g18
Nsg19
g48
sg21
I334
ssS'default_data_name'
p2082
S'No vectors'
p2083
sg203
S''
sS'use_default_range'
p2084
I01
sS'scalar_bar'
p2085
(dp2086
g2
(lp2087
((g4
g5
tI-1
tp2088
a((g7
g5
tI-1
tp2089
a((g100
g101
tI-1
tp2090
a((g103
g104
tI-1
tp2091
a((g106
g107
tI-1
tp2092
a((g173
g174
tI-1
tp2093
a((S'Actor2D'
p2094
S'tvtk_classes.actor2d'
p2095
tI-1
tp2096
a((S'ScalarBarActor'
p2097
S'tvtk_classes.scalar_bar_actor'
p2098
tI-1
tp2099
asg15
g2097
sg16
(dp2100
g18
Nsg19
g48
sg21
I21
ssg19
g22
sg21
I355
sg23
g2098
sg18
(dp2101
g18
(dp2102
g190
S'vertical'
p2103
sg193
I1
sS'height'
p2104
F0.17000000000000001
sg197
I1
sS'layer_number'
p2105
I0
sS'title'
p2106
S'No vectors'
p2107
sS'label_format'
p2108
S'%-#6.3g'
p2109
sS'width'
p2110
F0.80000000000000004
sS'texture_grid_width'
p2111
F10
sS'text_position'
p2112
S'succeed_scalar_bar'
p2113
sg201
I1
sS'use_opacity'
p2114
I0
sg194
I1
sg196
I1
sg149
I0
sS'maximum_number_of_colors'
p2115
I256
sS'orientation_'
p2116
I1
sg195
I1
sg2079
I8
sg155
I0
sg2027
(dp2117
g18
S'H4sIAOT1H04C/2tgSs4rzS2o1EvOL0rVyy3NKclMLCpKrOSKL0pNzs8rLikqTS7hKmSEqOLKS4HI\nFjJ5M7SGMia1BxUya3gzejO1QhWklFQWpHIVsoQypVl4M3gzAhWwangzhzLa+Pn5ef0HAjDhzVCS\n1BkqMGsmCLy0P/xVI6b/0FH7kiQ9AGpIg++RAAAA\n'
p2118
sg19
g146
sg21
I358
ssS'use_opacity_'
p2119
I0
sg137
I0
sg198
(dp2120
g18
S'H4sIAOT1H04C/2tgSs4rzS2o1EvOL0rVyy3NKclMLCpKrOSKL0pNzs8rLikqTS7hKmSEqOLKS4HI\nFjJ5M7SGMia1BxUya3gzejO1QhWklFQWpHIVsoQypVl4M3gzAhWwangzhzLa+Pn5ef0HAjDhzVCS\n1BkqMGsmCOy0rxZZ5/6wqsW+JEkPAHMFfKeRAAAA\n'
p2121
sg19
g146
sg21
I357
sssg19
g77
sg21
I356
ssssg19
g77
sg21
I330
sssg203
S''
sS'scalar_lut_manager'
p2122
(dp2123
g2
(lp2124
((g4
g5
tI-1
tp2125
a((g30
g5
tI-1
tp2126
a((g32
g33
tI-1
tp2127
a((g35
g36
tI0
tp2128
a((g1889
g1890
tI0
tp2129
asg15
g1889
sg16
(dp2130
g18
Nsg19
g48
sg21
I1
ssg19
g22
sg21
I386
sg23
g1890
sg18
(dp2131
g18
(dp2132
g1895
(dp2133
g2
(lp2134
((g4
g5
tI-1
tp2135
a((g7
g5
tI-1
tp2136
a((g100
g101
tI-1
tp2137
a((g103
g104
tI-1
tp2138
a((g106
g107
tI-1
tp2139
a((g1903
g1904
tI-1
tp2140
asg15
g1903
sg16
(dp2141
g18
Nsg19
g48
sg21
I21
ssg19
g22
sg21
I388
sg23
g1904
sg18
(dp2142
g18
(dp2143
g235
F1
sg1909
g1910
sg1911
I12
sg190
F0
sg1912
F0
sg1913
I1
sg1914
g1915
sg1916
I0
sg155
I0
sg1917
F1.1000000000000001
sg800
(dp2144
g18
Nsg19
g48
sg21
I41
ssg1919
I1
sg1920
(dp2145
g18
S'H4sIAOT1H04C/2tgSs4rzS2o1EvOL0rVyy3NKclMLCpKrOSKL0pNzs8rLikqTS7hKmSEqOLKS4HI\nFjJ5M7SGMia1BxUya3gzejO1QhWklFQWpHIVsoQyZZp4M3gzAhWwangzhzLa+Pn5ef0HAjDhzVCS\n1BnKwcjAwADiliTpAQCk2G9tiQAAAA==\n'
p2146
sg19
g146
sg21
I390
ssg137
I0
sg1923
I1
sg1924
I0
sg1925
g1926
sg149
I0
sg1927
I1
ssg19
g77
sg21
I389
sssg1928
S''
sg1929
S'point_scalars'
p2147
sg1931
I01
sg1932
(dp2148
g18
S'H4sIAOT1H04C/2tgSs4rzS2o1EvOL0rVyy3NKclMLCpKrOSKL0pNzs8rLikqTS7hKmSEqOLKS4HI\nFjJ5M7SGMia1BxUya3gzejO1QhWklFQWpHIVsoQypVl4M3gzAhWwangzhzLa+Pn5ef0HAjDhzVCS\n1BkqwMDAcEAhYpM9kH6QsFjOoSRJDwAML/RykQAAAA==\n'
p2149
sg19
g146
sg21
I391
ssg1935
(dp2150
g2
(lp2151
((g4
g5
tI-1
tp2152
a((g7
g5
tI-1
tp2153
a((g100
g101
tI-1
tp2154
a((g103
g104
tI-1
tp2155
a((g106
g107
tI-1
tp2156
a((g1943
g1944
tI-1
tp2157
a((g1946
g1947
tI-1
tp2158
asg15
g1946
sg16
(dp2159
g18
Nsg19
g48
sg21
I21
ssg19
g22
sg21
I392
sg23
g1947
sg18
(dp2160
g18
(dp2161
g1952
I2
sg187
g1953
sg1954
(dp2162
g18
S'H4sIAOT1H04C/2tgSs4rzS2o1EvOL0rVyy3NKclMLCpKrOSKL0pNzs8rLikqTS7hKmSEqOLKS4HI\nFjJ5M7SGMia1BxUya3gzejO1QhWklFQWpHIVsoQypVl4M3gzAhWwangzhzLa+Pn5ef0HAjDhzVCS\n1BkqwAAGH+xhdEmSHgBnOGdykQAAAA==\n'
p2163
sg19
g146
sg21
I394
ssg1957
(dp2164
g18
S'H4sIAOT1H04C/2tgSs4rzS2o1EvOL0rVyy3NKclMLCpKrOSKL0pNzs8rLikqTS7hKmSEqOLKS4HI\nFjJ5M7SGMia1BxUya3gzejO1QhWklFQWpHIVsoQypVl4M3gzAhWwangzhzLa+Pn5ef0HAjDhzVCS\n1BkqwMDAcEAhYpM9kH6QsFjOoSRJDwAML/RykQAAAA==\n'
p2165
sg19
g146
sg21
I396
ssg1960
(dp2166
g18
S'H4sIAOT1H04C/2tgSs4rzS2o1EvOL0rVyy3NKclMLCpKrOSKL0pNzs8rLikqTS7hKmSEqOLKS4HI\nFjJ5M7SGMia1BxUya3gzejO1QhWklFQWpHIVsoQypVl4M3gzAhWwangzhzLa+Pn5ef0HAjDhzVCS\n1Bkq4H2C3XZ26FN7BigoSdIDAObNAnCRAAAA\n'
p2167
sg19
g146
sg21
I395
ssg1963
I256
sg1964
g1965
sg155
I0
sg1966
I256
sg1967
(dp2168
g18
S'H4sIAOT1H04C/2tgSs4rzS2o1EvOL0rVyy3NKclMLCpKrOSKL0pNzs8rLikqTS7hKmSEqOLKS4HI\nFjJ5M7SGMia1BxUya3gzejO1QhWklFQWpHIVsoQypVl4M3gzAhWwangzhzLa+Pn5ef0HAjDhzVCS\n1BkqwAAGH+xhdEmSHgBnOGdykQAAAA==\n'
p2169
sg19
g146
sg21
I397
ssg1970
(dp2170
g18
S'H4sIAOT1H04C/2tgSs4rzS2o1EvOL0rVyy3NKclMLCpKrOSKL0pNzs8rLikqTS7hKmSEqOLKS4HI\nFjJ5M7SGMia1BxUya3gzejO1QhWklFQWpHIVsoQypVl4M3gzAhWwangzhzLa+Pn5ef0HAjDhzVCS\n1BkqwMDAcEAhYpM9kH6QsFjOoSRJDwAML/RykQAAAA==\n'
p2171
sg19
g146
sg21
I398
ssg1973
I0
sg1974
(dp2172
g18
S'H4sIAOT1H04C/2tgSs4rzS2o1EvOL0rVyy3NKclMLCpKrOSKL0pNzs8rLikqTS7hKmSEqOLKS4HI\nFjJ5M7SGMia1BxUya3gzejO1QhWklFQWpHIVsoQypVl4M3gzAhWwangzhzLa+Pn5ef0HAjDhzVCS\n1BkqwAAGH+xhdEmSHgBnOGdykQAAAA==\n'
p2173
sg19
g146
sg21
I399
ssg137
I0
sg1977
F1
sg1978
g1979
sg149
I0
ssg19
g77
sg21
I393
sssg1980
(dp2174
g2
(lp2175
((g4
g5
tI-1
tp2176
a((g7
g5
tI-1
tp2177
a((g100
g101
tI-1
tp2178
a((g103
g104
tI-1
tp2179
a((g106
g107
tI-1
tp2180
a((g1903
g1904
tI-1
tp2181
asg15
g1903
sg16
(dp2182
g18
Nsg19
g48
sg21
I21
ssg19
g22
sg21
I409
sg23
g1904
sg18
(dp2183
g18
(dp2184
g235
F1
sg1909
g1910
sg1911
I12
sg190
F0
sg1912
F0
sg1913
I1
sg1914
g1915
sg1916
I0
sg155
I0
sg1917
F1.1000000000000001
sg800
(dp2185
g18
Nsg19
g48
sg21
I41
ssg1919
I1
sg1920
(dp2186
g18
S'H4sIAOT1H04C/2tgSs4rzS2o1EvOL0rVyy3NKclMLCpKrOSKL0pNzs8rLikqTS7hKmSEqOLKS4HI\nFjJ5M7SGMia1BxUya3gzejO1QhWklFQWpHIVsoQyZZp4M3gzAhWwangzhzLa+Pn5ef0HAjDhzVCS\n1BnKwcjAwADiliTpAQCk2G9tiQAAAA==\n'
p2187
sg19
g146
sg21
I411
ssg137
I0
sg1923
I1
sg1924
I0
sg1925
g1926
sg149
I0
sg1927
I1
ssg19
g77
sg21
I410
sssg1966
I256
sg1995
(dp2188
g18
S'H4sIAOT1H04C/2tgSs4rzS2o1EvOL0rVyy3NKclMLCpKrOSKL0pNzs8rLikqTS7hKmSEqOLKS4HI\nFjJ5M7SGMia1BxUya3gzejO1QhWklFQWpHIVsoQypVl4M3gzAhWwangzhzLa+Pn5ef0HAjDhzVCS\n1BkqwIACPtiXJOkBAIHIRA6RAAAA\n'
p2189
sg19
g146
sg21
I402
ssg1863
Nsg1998
I00
sg1999
S''
sg2000
(dp2190
g2
(lp2191
((g4
g5
tI-1
tp2192
a((g7
g5
tI-1
tp2193
a((g100
g101
tI-1
tp2194
a((g103
g104
tI-1
tp2195
a((g106
g107
tI-1
tp2196
a((g173
g174
tI-1
tp2197
a((g2009
g2010
tI-1
tp2198
a((g2012
g2013
tI-1
tp2199
a((g2015
g2016
tI-1
tp2200
asg15
g2015
sg16
(dp2201
g18
Nsg19
g48
sg21
I21
ssg19
g22
sg21
I403
sg23
g2016
sg18
(dp2202
g18
(dp2203
g190
I1
sg2021
I0
sg193
I1
sg195
I1
sg2022
g2023
sg197
I1
sg2024
I2
sg2025
I0
sg2026
I0
sg2027
(dp2204
g18
S'H4sIAOT1H04C/2tgSs4rzS2o1EvOL0rVyy3NKclMLCpKrOSKL0pNzs8rLikqTS7hKmSEqOLKS4HI\nFjJ5M7SGMia1BxUya3gzejO1QhWklFQWpHIVsoQypVl4M3gzAhWwangzhzLa+Pn5ef0HAjDhzVCS\n1BkqcPirRkz/oaP2s2aCwEv7kiQ9AC+e0nyRAAAA\n'
p2205
sg19
g146
sg21
I406
ssg2030
I0
sg2031
(dp2206
g18
S'H4sIAOT1H04C/2tgSs4rzS2o1EvOL0rVyy3NKclMLCpKrOSKL0pNzs8rLikqTS7hKmSEqOLKS4HI\nFjJ5M7SGMia1BxUya3gzejO1QhWklFQWpHIVsoQyZZp4M3gzAhWwangzhzLa+Pn5ef0HAjDhzVCS\n1BnKsaCNkQGES5L0ALP9TXGJAAAA\n'
p2207
sg19
g146
sg21
I408
ssg201
I1
sg510
I3
sg2034
(dp2208
g18
S'H4sIAOT1H04C/2tgSs4rzS2o1EvOL0rVyy3NKclMLCpKrOSKL0pNzs8rLikqTS7hKmSEqOLKS4HI\nFjJ5M7SGMia1BxUya3gzejO1QhWklFQWpHIVsoQyZZp4M3gzAhWwangzhzLa+Pn5ef0HAjDhzVCS\n1BnKwcjAwADCJUl6AJHzi6mJAAAA\n'
p2209
sg19
g146
sg21
I405
ssg194
I1
sg196
I1
sg149
I0
sg2037
I0
sg2038
F0.5
sg2039
I0
sg155
I0
sg137
I0
sg198
(dp2210
g18
S'H4sIAOT1H04C/2tgSs4rzS2o1EvOL0rVyy3NKclMLCpKrOSKL0pNzs8rLikqTS7hKmSEqOLKS4HI\nFjJ5M7SGMia1BxUya3gzejO1QhWklFQWpHIVsoQypVl4M3gzAhWwangzhzLa+Pn5ef0HAjDhzVCS\n1BkqYMt1fXGB7Sv7WTNBYKd9SZIeADd4AQGRAAAA\n'
p2211
sg19
g146
sg21
I407
ssg2042
F0.01
ssg19
g77
sg21
I404
sssg2043
(dp2212
g2
(lp2213
((g4
g5
tI-1
tp2214
a((g7
g5
tI-1
tp2215
a((g100
g101
tI-1
tp2216
a((g103
g104
tI-1
tp2217
a((g106
g107
tI-1
tp2218
a((g580
g581
tI-1
tp2219
a((g2052
g2053
tI-1
tp2220
a((g2055
g2056
tI-1
tp2221
a((g2058
g2059
tI-1
tp2222
asg15
g2058
sg16
(dp2223
g18
Nsg19
g48
sg21
I21
ssg19
g22
sg21
I400
sg23
g2059
sg18
(dp2224
g18
(dp2225
g2064
I1
sg589
S'i'
sg2065
I1
sg149
I0
sg137
I0
sg590
I0
sg593
I0
sg155
I0
sg2066
I1
sg592
F0.5
sg2067
I1
sg2068
I1
sg2069
I1
sg594
I0
sg2070
I1
sg2071
I0
sg2072
I0
sg595
I0
sg2073
I1
ssg19
g77
sg21
I401
sssg2074
I00
sg1924
I00
sg2075
S'flag'
p2226
sg2077
I01
sg2078
S''
sg2079
I8
sg2080
(dp2227
g18
Nsg19
g48
sg21
I391
ssg2082
S'point_scalars'
p2228
sg203
S''
sg2084
I01
sg2085
(dp2229
g2
(lp2230
((g4
g5
tI-1
tp2231
a((g7
g5
tI-1
tp2232
a((g100
g101
tI-1
tp2233
a((g103
g104
tI-1
tp2234
a((g106
g107
tI-1
tp2235
a((g173
g174
tI-1
tp2236
a((g2094
g2095
tI-1
tp2237
a((g2097
g2098
tI-1
tp2238
asg15
g2097
sg16
(dp2239
g18
Nsg19
g48
sg21
I21
ssg19
g22
sg21
I412
sg23
g2098
sg18
(dp2240
g18
(dp2241
g190
g2103
sg193
I1
sg2104
F0.17000000000000001
sg197
I1
sg2105
I0
sg2106
S'point_scalars'
p2242
sg2108
S'%-#6.3g'
p2243
sg2110
F0.80000000000000004
sg2111
F10
sg2112
g2113
sg201
I1
sg2114
I0
sg194
I1
sg196
I1
sg149
I0
sg2115
I256
sg2116
I1
sg195
I1
sg2079
I8
sg155
I0
sg2027
(dp2244
g18
S'H4sIAOT1H04C/2tgSs4rzS2o1EvOL0rVyy3NKclMLCpKrOSKL0pNzs8rLikqTS7hKmSEqOLKS4HI\nFjJ5M7SGMia1BxUya3gzejO1QhWklFQWpHIVsoQypVl4M3gzAhWwangzhzLa+Pn5ef0HAjDhzVCS\n1BkqMGsmCLy0P/xVI6b/0FH7kiQ9AGpIg++RAAAA\n'
p2245
sg19
g146
sg21
I415
ssg2119
I0
sg137
I0
sg198
(dp2246
g18
S'H4sIAOT1H04C/2tgSs4rzS2o1EvOL0rVyy3NKclMLCpKrOSKL0pNzs8rLikqTS7hKmSEqOLKS4HI\nFjJ5M7SGMia1BxUya3gzejO1QhWklFQWpHIVsoQypVl4M3gzAhWwangzhzLa+Pn5ef0HAjDhzVCS\n1BkqMGsmCOy0rxZZ5/6wqsW+JEkPAHMFfKeRAAAA\n'
p2247
sg19
g146
sg21
I414
sssg19
g77
sg21
I413
ssssg19
g77
sg21
I387
sssg1999
S' colors and legends'
p2248
sg1046
(dp2249
g18
(lp2250
(dp2251
g2
(lp2252
((g4
g5
tI-1
tp2253
a((g30
g5
tI-1
tp2254
a((g32
g33
tI-1
tp2255
a((g35
g36
tI0
tp2256
a((g38
g39
tI0
tp2257
a((g41
g42
tI0
tp2258
a((g44
g45
tI0
tp2259
asg15
g44
sg16
(dp2260
g18
Nsg19
g48
sg21
I1
ssg19
g22
sg21
I360
sg23
g45
sg18
(dp2261
g18
(dp2262
g51
I00
sS'_widget_state'
p2263
(dp2264
g18
(lp2265
sg19
g55
sg21
I362
ssg56
S'Surface'
p2266
sS'output_info'
p2267
(dp2268
g18
Nsg19
g48
sg21
I5
ssg78
(dp2269
g2
(lp2270
((g4
g5
tI-1
tp2271
a((g30
g5
tI-1
tp2272
a((g32
g33
tI-1
tp2273
a((g35
g36
tI0
tp2274
a((g38
g39
tI0
tp2275
a((g86
g87
tI0
tp2276
a((g89
g90
tI0
tp2277
asg15
g89
sg16
(dp2278
g18
Nsg19
g48
sg21
I1
ssg19
g22
sg21
I372
sg23
g90
sg18
(dp2279
g18
(dp2280
g95
(dp2281
g2
(lp2282
((g4
g5
tI-1
tp2283
a((g7
g5
tI-1
tp2284
a((g100
g101
tI-1
tp2285
a((g103
g104
tI-1
tp2286
a((g106
g107
tI-1
tp2287
a((g109
g110
tI-1
tp2288
a((g112
g113
tI-1
tp2289
a((g115
g116
tI-1
tp2290
a((g118
g119
tI-1
tp2291
a((g121
g122
tI-1
tp2292
asg15
g121
sg16
(dp2293
g18
Nsg19
g48
sg21
I21
ssg19
g22
sg21
I381
sg23
g122
sg18
(dp2294
g18
(dp2295
g127
I0
sg128
I0
sg129
g135
sg131
I0
sg132
I0
sg133
F0.01
sg134
g135
sg136
I0
sg137
I0
sg138
I0
sg139
I1
sg140
I0
sg141
I0
sg142
F1
sg143
(dp2296
g18
S'H4sIAOT1H04C/2tgSs4rzS2o1EvOL0rVyy3NKclMLCpKrOSKL0pNzs8rLikqTS7hKmSEqOLKS4HI\nFjJ5M7SGMia1BxUya3gzejO1QhWklFQWpHIVsoQypVl4M3gzAhWwangzhzLa+Pn5ef0HAjDhzVCS\n1BkqwIACPtiXJOkBAIHIRA6RAAAA\n'
p2297
sg19
g146
sg21
I383
ssg147
Nsg148
I1
sg149
I0
sg150
I0
sg151
I0
sg152
I1
sg153
I0
sg154
I1
sg155
I0
sg156
I0
sg157
g135
sg158
I0
sg159
F0
sg160
I0
sg161
g162
sg163
I1
ssg19
g77
sg21
I382
sssg2263
(dp2298
g18
(lp2299
sg19
g55
sg21
I374
ssg2078
S''
sg2267
Nsg78
(dp2300
g2
(lp2301
((g4
g5
tI-1
tp2302
a((g7
g5
tI-1
tp2303
a((g100
g101
tI-1
tp2304
a((g103
g104
tI-1
tp2305
a((g106
g107
tI-1
tp2306
a((g173
g174
tI-1
tp2307
a((g176
g177
tI-1
tp2308
a((g89
g179
tI-1
tp2309
asg15
g89
sg16
(dp2310
g18
Nsg19
g48
sg21
I21
ssg19
g22
sg21
I375
sg23
g179
sg18
(dp2311
g18
(dp2312
g184
(dp2313
g18
S'H4sIAOT1H04C/2tgSs4rzS2o1EvOL0rVyy3NKclMLCpKrOSKL0pNzs8rLikqTS7hKmSEqOLKS4HI\nFjJ5M7SGMia1BxUya3gzejO3QhWklFQWpHIVsoQypVl4M3gzAhWwangzhzLa+Pn5ef0HAjDhzVCS\n1BkqwYADlCTpAQD67GqfmQAAAA==\n'
p2314
sg19
g146
sg21
I377
ssg187
(dp2315
g18
S'H4sIAOT1H04C/2tgSs4rzS2o1EvOL0rVyy3NKclMLCpKrOSKL0pNzs8rLikqTS7hKmSEqOLKS4HI\nFjJ5M7SGMia1BxUya3gzejO3QhWklFQWpHIVsoQypVl4M3gzAhWwangzhzLa+Pn5ef0HAjDhzVCS\n1BkqwQAGH+zR6ZIkPQDfyO6fmQAAAA==\n'
p2316
sg19
g146
sg21
I379
ssg190
(dp2317
g18
S'H4sIAOT1H04C/2tgSs4rzS2o1EvOL0rVyy3NKclMLCpKrOSKL0pNzs8rLikqTS7hKmSEqOLKS4HI\nFjJ5M7SGMia1BxUya3gzejO3QhWklFQWpHIVsoQypVl4M3gzAhWwangzhzLa+Pn5ef0HAjDhzVCS\n1BkqwYAKGmCMkiQ9ABqDrf+ZAAAA\n'
p2318
sg19
g146
sg21
I378
ssg137
I0
sg193
I1
sg194
I1
sg195
I1
sg196
I1
sg149
I0
sg155
I0
sg197
I1
sg198
(dp2319
g18
S'H4sIAOT1H04C/2tgSs4rzS2o1EvOL0rVyy3NKclMLCpKrOSKL0pNzs8rLikqTS7hKmSEqOLKS4HI\nFjJ5M7SGMia1BxUya3gzejO3QhWklFQWpHIVsoQypVl4M3gzAhWwangzhzLa+Pn5ef0HAjDhzVCS\n1BkqwYADlCTpAQD67GqfmQAAAA==\n'
p2320
sg19
g146
sg21
I380
ssg201
I1
ssg19
g77
sg21
I376
sssg202
I01
sg203
S''
sS'input_info'
p2321
Nsg1863
Nsg206
(dp2322
g2
(lp2323
((g4
g5
tI-1
tp2324
a((g7
g5
tI-1
tp2325
a((g100
g101
tI-1
tp2326
a((g103
g104
tI-1
tp2327
a((g106
g107
tI-1
tp2328
a((g214
g215
tI-1
tp2329
a((g217
g218
tI-1
tp2330
asg15
g217
sg16
(dp2331
g18
Nsg19
g48
sg21
I21
ssg19
g22
sg21
I384
sg23
g218
sg18
(dp2332
g18
(dp2333
g223
(dp2334
g18
Nsg19
g48
sg21
I41
ssg226
I0
sg227
F1
sg228
(dp2335
g18
Nsg19
g48
sg21
I40
ssg231
F0
sg232
I0
sg233
g234
sg235
F1
sg236
I0
sg237
F1
sg238
(dp2336
g18
Nsg19
g48
sg21
I41
ssg240
(dp2337
g18
Nsg19
g48
sg21
I41
ssg242
I0
sg149
I0
sg243
I0
sg244
I0
sg245
F1
sg246
I0
sg155
I0
sg247
F0
sg248
I0
sg249
I65535
sg137
I0
sg250
g251
sg252
I1
sg253
F2
ssg19
g77
sg21
I385
sssg1999
S''
ssg19
g77
sg21
I373
sssg202
I01
sg203
S''
sg2321
(dp2338
g18
Nsg19
g48
sg21
I11
ssg1863
Nsg1999
S' module'
p2339
sg269
(dp2340
g2
(lp2341
((g4
g5
tI-1
tp2342
a((g30
g5
tI-1
tp2343
a((g32
g33
tI-1
tp2344
a((g35
g36
tI0
tp2345
a((g38
g39
tI0
tp2346
a((g86
g87
tI0
tp2347
a((g278
g279
tI0
tp2348
asg15
g278
sg16
(dp2349
g18
Nsg19
g48
sg21
I1
ssg19
g22
sg21
I363
sg23
g279
sg18
(dp2350
g18
(dp2351
g2263
(dp2352
g18
(lp2353
sg19
g55
sg21
I365
ssg2078
S''
sg286
I01
sg2321
Nsg287
(dp2354
g18
(F0.071657225489616394
F7.6595492362976074
tp2355
sg19
g20
sg21
I366
ssg290
I00
sg202
I01
sg203
S''
sg291
(dp2356
g2
(lp2357
((g4
g5
tI-1
tp2358
a((g7
g5
tI-1
tp2359
a((g100
g101
tI-1
tp2360
a((g103
g104
tI-1
tp2361
a((g106
g107
tI-1
tp2362
a((g109
g110
tI-1
tp2363
a((g300
g301
tI-1
tp2364
a((g303
g304
tI-1
tp2365
asg15
g303
sg16
(dp2366
g18
Nsg19
g48
sg21
I21
ssg19
g22
sg21
I367
sg23
g304
sg18
(dp2367
g18
(dp2368
g310
I0
sg149
I0
sg311
I0
sg147
Nsg312
I0
sg153
I0
sg313
I1
sg314
I1
sg315
I1
sg316
I0
sg317
I0
sg140
I0
sg155
I0
sg141
I0
sg318
I1
sg158
I0
sg142
F1
sg319
I10
sg137
I0
ssg19
g77
sg21
I368
sssS'_traits_cache_minimum_contour'
p2369
F0.071657225489616394
sg321
(dp2370
g18
(lp2371
F1
asg19
g55
sg21
I369
ssS'_fill_cont_filt'
p2372
(dp2373
g2
(lp2374
((g4
g5
tI-1
tp2375
a((g7
g5
tI-1
tp2376
a((g100
g101
tI-1
tp2377
a((g103
g104
tI-1
tp2378
a((g106
g107
tI-1
tp2379
a((g109
g110
tI-1
tp2380
a((g300
g301
tI-1
tp2381
a((g334
g335
tI-1
tp2382
asg15
g334
sg16
(dp2383
g18
Nsg19
g48
sg21
I21
ssg19
g22
sg21
I370
sg23
g335
sg18
(dp2384
g18
(dp2385
g155
I0
sg340
I1
sg153
I0
sg341
I1
sg129
g342
sg343
I0
sg147
Nsg137
I0
sg149
I0
sg140
I0
sg150
I1
sg141
I0
sg158
I0
sg142
F1
sg319
I10
sg344
I0
ssg19
g77
sg21
I371
sssg2267
NsS'show_filled_contours'
p2386
I01
sg346
I01
sg1863
Nsg319
I10
sg1999
S''
sS'_traits_cache_maximum_contour'
p2387
F7.6595492362976074
ssg19
g77
sg21
I364
sssg348
S'module.ico'
p2388
ssg19
g77
sg21
I361
ssasg19
g55
sg21
I359
ssg348
S'modulemanager.ico'
p2389
ssg19
g77
sg21
I328
ssa(dp2390
g2
(lp2391
((g4
g5
tI-1
tp2392
a((g30
g5
tI-1
tp2393
a((g32
g33
tI-1
tp2394
a((g35
g36
tI0
tp2395
a((g38
g39
tI0
tp2396
a((g1543
g1544
tI0
tp2397
a((S'Filter'
p2398
S'enthought.mayavi.core.filter'
p2399
tI0
tp2400
a((S'TransformData'
p2401
S'enthought.mayavi.filters.transform_data'
p2402
tI0
tp2403
asg15
g2401
sg16
(dp2404
g18
Nsg19
g48
sg21
I1
ssg19
g22
sg21
I416
sg23
g2402
sg18
(dp2405
g18
(dp2406
S'update_mode'
p2407
S'semi-interactive'
p2408
sS'widget'
p2409
(dp2410
g2
(lp2411
((g4
g5
tI-1
tp2412
a((g7
g5
tI-1
tp2413
a((g100
g101
tI-1
tp2414
a((g103
g104
tI-1
tp2415
a((g106
g107
tI-1
tp2416
a((g580
g581
tI-1
tp2417
a((S'ThreeDWidget'
p2418
S'tvtk_classes.three_d_widget'
p2419
tI-1
tp2420
a((S'BoxWidget'
p2421
S'tvtk_classes.box_widget'
p2422
tI-1
tp2423
asg15
g2421
sg16
(dp2424
g18
Nsg19
g48
sg21
I21
ssg19
g22
sg21
I418
sg23
g2422
sg18
(dp2425
g18
(dp2426
S'translation_enabled'
p2427
I0
sg2042
F0.01
sS'inside_out'
p2428
I0
sS'outline_face_wires_'
p2429
I0
sS'scaling_enabled_'
p2430
I0
sS'outline_face_wires'
p2431
I0
sg595
I0
sS'rotation_enabled'
p2432
I0
sS'outline_cursor_wires'
p2433
I1
sg592
F0.5
sS'scaling_enabled'
p2434
I0
sg589
S'i'
sS'translation_enabled_'
p2435
I0
sg149
I0
sg593
I0
sg594
I0
sg2038
F1.1000000000000001
sS'rotation_enabled_'
p2436
I0
sS'inside_out_'
p2437
I0
sg590
I0
sg155
I0
sg137
I0
sS'outline_cursor_wires_'
p2438
I1
ssg19
g77
sg21
I419
sssS'matrix'
p2439
S"centhought.traits.traits\n__newobj__\np1\n(ctvtk_classes.matrix4x4\nMatrix4x4\np2\ntRp3\n(dp4\nS'global_warning_display_'\np5\nI0\nsS'elements'\np6\n(lp7\nF1\naF0\naF0\naF0\naF0\naF1\naF0\naF0\naF0\naF0\naF0.99999999999999989\naF4.2912721986976265e-16\naF0\naF0\naF0\naF1\nasS'debug'\np8\nI0\nsS'debug_'\np9\nI0\nsb."
p2440
sg57
(dp2441
g2
(lp2442
((g4
g5
tI-1
tp2443
a((g61
g62
tI-1
tp2444
asg15
g61
sg16
(dp2445
g18
Nsg19
g48
sg21
I1
ssg19
g22
sg21
I513
sg23
g62
sg18
(dp2446
g18
(dp2447
g67
(dp2448
g18
(lp2449
g263
asg19
g55
sg21
I515
ssg70
(dp2450
g18
(lp2451
g1860
asg19
g55
sg21
I516
ssg74
(dp2452
g18
(lp2453
g263
asg19
g55
sg21
I517
sssg19
g77
sg21
I514
sssS'_transform'
p2454
(dp2455
g2
(lp2456
((g4
g5
tI-1
tp2457
a((g7
g5
tI-1
tp2458
a((g100
g101
tI-1
tp2459
a((g103
g104
tI-1
tp2460
a((g106
g107
tI-1
tp2461
a((S'AbstractTransform'
p2462
S'tvtk_classes.abstract_transform'
p2463
tI-1
tp2464
a((S'HomogeneousTransform'
p2465
S'tvtk_classes.homogeneous_transform'
p2466
tI-1
tp2467
a((S'LinearTransform'
p2468
S'tvtk_classes.linear_transform'
p2469
tI-1
tp2470
a((S'Transform'
p2471
S'tvtk_classes.transform'
p2472
tI-1
tp2473
asg15
g2471
sg16
(dp2474
g18
Nsg19
g48
sg21
I21
ssg19
g22
sg21
I509
sg23
g2472
sg18
(dp2475
g18
(dp2476
g137
I0
sg149
I0
sg155
I0
ssg19
g77
sg21
I510
sssg203
S''
sg56
S'TransformData'
p2477
sS'filter'
p2478
(dp2479
g2
(lp2480
((g4
g5
tI-1
tp2481
a((g7
g5
tI-1
tp2482
a((g100
g101
tI-1
tp2483
a((g103
g104
tI-1
tp2484
a((g106
g107
tI-1
tp2485
a((g109
g110
tI-1
tp2486
a((S'PointSetAlgorithm'
p2487
S'tvtk_classes.point_set_algorithm'
p2488
tI-1
tp2489
a((S'TransformFilter'
p2490
S'tvtk_classes.transform_filter'
p2491
tI-1
tp2492
asg15
g2490
sg16
(dp2493
g18
Nsg19
g48
sg21
I21
ssg19
g22
sg21
I511
sg23
g2491
sg18
(dp2494
g18
(dp2495
g153
I0
sg147
Nsg158
I0
sg155
I0
sg149
I0
sg140
I0
sg141
I0
sg137
I0
sg142
F1
ssg19
g77
sg21
I512
sssg202
I01
sS'update_mode_'
p2496
S'EndInteractionEvent'
p2497
sg1863
Nsg19
S' filter'
p2498
sg1046
(dp2499
g18
(lp2500
(dp2501
g2
(lp2502
((g4
g5
tI-1
tp2503
a((g30
g5
tI-1
tp2504
a((g32
g33
tI-1
tp2505
a((g35
g36
tI0
tp2506
a((g1873
g1874
tI0
tp2507
asg15
g1873
sg16
(dp2508
g18
Nsg19
g48
sg21
I1
ssg19
g22
sg21
I421
sg23
g1874
sg18
(dp2509
g18
(dp2510
g56
g1879
sg1880
g1881
sg1882
(dp2511
g2
(lp2512
((g4
g5
tI-1
tp2513
a((g30
g5
tI-1
tp2514
a((g32
g33
tI-1
tp2515
a((g35
g36
tI0
tp2516
a((g1889
g1890
tI0
tp2517
asg15
g1889
sg16
(dp2518
g18
Nsg19
g48
sg21
I1
ssg19
g22
sg21
I423
sg23
g1890
sg18
(dp2519
g18
(dp2520
g1895
(dp2521
g2
(lp2522
((g4
g5
tI-1
tp2523
a((g7
g5
tI-1
tp2524
a((g100
g101
tI-1
tp2525
a((g103
g104
tI-1
tp2526
a((g106
g107
tI-1
tp2527
a((g1903
g1904
tI-1
tp2528
asg15
g1903
sg16
(dp2529
g18
Nsg19
g48
sg21
I21
ssg19
g22
sg21
I425
sg23
g1904
sg18
(dp2530
g18
(dp2531
g235
F1
sg1909
g1910
sg1911
I12
sg190
F0
sg1912
F0
sg1913
I1
sg1914
g1915
sg1916
I0
sg155
I0
sg1917
F1.1000000000000001
sg800
(dp2532
g18
Nsg19
g48
sg21
I41
ssg1919
I1
sg1920
(dp2533
g18
S'H4sIAOT1H04C/2tgSs4rzS2o1EvOL0rVyy3NKclMLCpKrOSKL0pNzs8rLikqTS7hKmSEqOLKS4HI\nFjJ5M7SGMia1BxUya3gzejO1QhWklFQWpHIVsoQyZZp4M3gzAhWwangzhzLa+Pn5ef0HAjDhzVCS\n1BnKwcjAwADiliTpAQCk2G9tiQAAAA==\n'
p2534
sg19
g146
sg21
I427
ssg137
I0
sg1923
I1
sg1924
I0
sg1925
g1926
sg149
I0
sg1927
I1
ssg19
g77
sg21
I426
sssg1928
S''
sg1929
g1930
sg1931
I01
sg1932
(dp2535
g18
S'H4sIAOT1H04C/2tgSs4rzS2o1EvOL0rVyy3NKclMLCpKrOSKL0pNzs8rLikqTS7hKmSEqOLKS4HI\nFjJ5M7SGMia1BxUya3gzejO1QhWklFQWpHIVsoQypVl4M3gzAhWwangzhzLa+Pn5ef0HAjDhzVCS\n1BkqwIACPtiXJOkBAIHIRA6RAAAA\n'
p2536
sg19
g146
sg21
I428
ssg1935
(dp2537
g2
(lp2538
((g4
g5
tI-1
tp2539
a((g7
g5
tI-1
tp2540
a((g100
g101
tI-1
tp2541
a((g103
g104
tI-1
tp2542
a((g106
g107
tI-1
tp2543
a((g1943
g1944
tI-1
tp2544
a((g1946
g1947
tI-1
tp2545
asg15
g1946
sg16
(dp2546
g18
Nsg19
g48
sg21
I21
ssg19
g22
sg21
I429
sg23
g1947
sg18
(dp2547
g18
(dp2548
g1952
I2
sg187
g1953
sg1954
(dp2549
g18
S'H4sIAOT1H04C/2tgSs4rzS2o1EvOL0rVyy3NKclMLCpKrOSKL0pNzs8rLikqTS7hKmSEqOLKS4HI\nFjJ5M7SGMia1BxUya3gzejO1QhWklFQWpHIVsoQypVl4M3gzAhWwangzhzLa+Pn5ef0HAjDhzVCS\n1BkqwAAGH+xhdEmSHgBnOGdykQAAAA==\n'
p2550
sg19
g146
sg21
I431
ssg1957
(dp2551
g18
S'H4sIAOT1H04C/2tgSs4rzS2o1EvOL0rVyy3NKclMLCpKrOSKL0pNzs8rLikqTS7hKmSEqOLKS4HI\nFjJ5M7SGMia1BxUya3gzejO1QhWklFQWpHIVsoQypVl4M3gzAhWwangzhzLa+Pn5ef0HAjDhzVCS\n1BkqwIACPtiXJOkBAIHIRA6RAAAA\n'
p2552
sg19
g146
sg21
I433
ssg1960
(dp2553
g18
S'H4sIAOT1H04C/2tgSs4rzS2o1EvOL0rVyy3NKclMLCpKrOSKL0pNzs8rLikqTS7hKmSEqOLKS4HI\nFjJ5M7SGMia1BxUya3gzejO1QhWklFQWpHIVsoQypVl4M3gzAhWwangzhzLa+Pn5ef0HAjDhzVCS\n1Bkq4H2C3XZ26FN7BigoSdIDAObNAnCRAAAA\n'
p2554
sg19
g146
sg21
I432
ssg1963
I256
sg1964
g1965
sg155
I0
sg1966
I256
sg1967
(dp2555
g18
S'H4sIAOT1H04C/2tgSs4rzS2o1EvOL0rVyy3NKclMLCpKrOSKL0pNzs8rLikqTS7hKmSEqOLKS4HI\nFjJ5M7SGMia1BxUya3gzejO1QhWklFQWpHIVsoQypVl4M3gzAhWwangzhzLa+Pn5ef0HAjDhzVCS\n1BkqwAAGH+xhdEmSHgBnOGdykQAAAA==\n'
p2556
sg19
g146
sg21
I434
ssg1970
(dp2557
g18
S'H4sIAOT1H04C/2tgSs4rzS2o1EvOL0rVyy3NKclMLCpKrOSKL0pNzs8rLikqTS7hKmSEqOLKS4HI\nFjJ5M7SGMia1BxUya3gzejO1QhWklFQWpHIVsoQypVl4M3gzAhWwangzhzLa+Pn5ef0HAjDhzVCS\n1BkqwIACPtiXJOkBAIHIRA6RAAAA\n'
p2558
sg19
g146
sg21
I435
ssg1973
I0
sg1974
(dp2559
g18
S'H4sIAOT1H04C/2tgSs4rzS2o1EvOL0rVyy3NKclMLCpKrOSKL0pNzs8rLikqTS7hKmSEqOLKS4HI\nFjJ5M7SGMia1BxUya3gzejO1QhWklFQWpHIVsoQypVl4M3gzAhWwangzhzLa+Pn5ef0HAjDhzVCS\n1BkqwAAGH+xhdEmSHgBnOGdykQAAAA==\n'
p2560
sg19
g146
sg21
I436
ssg137
I0
sg1977
F1
sg1978
g1979
sg149
I0
ssg19
g77
sg21
I430
sssg1980
(dp2561
g2
(lp2562
((g4
g5
tI-1
tp2563
a((g7
g5
tI-1
tp2564
a((g100
g101
tI-1
tp2565
a((g103
g104
tI-1
tp2566
a((g106
g107
tI-1
tp2567
a((g1903
g1904
tI-1
tp2568
asg15
g1903
sg16
(dp2569
g18
Nsg19
g48
sg21
I21
ssg19
g22
sg21
I446
sg23
g1904
sg18
(dp2570
g18
(dp2571
g235
F1
sg1909
g1910
sg1911
I12
sg190
F0
sg1912
F0
sg1913
I1
sg1914
g1915
sg1916
I0
sg155
I0
sg1917
F1.1000000000000001
sg800
(dp2572
g18
Nsg19
g48
sg21
I41
ssg1919
I1
sg1920
(dp2573
g18
S'H4sIAOT1H04C/2tgSs4rzS2o1EvOL0rVyy3NKclMLCpKrOSKL0pNzs8rLikqTS7hKmSEqOLKS4HI\nFjJ5M7SGMia1BxUya3gzejO1QhWklFQWpHIVsoQyZZp4M3gzAhWwangzhzLa+Pn5ef0HAjDhzVCS\n1BnKwcjAwADiliTpAQCk2G9tiQAAAA==\n'
p2574
sg19
g146
sg21
I448
ssg137
I0
sg1923
I1
sg1924
I0
sg1925
g1926
sg149
I0
sg1927
I1
ssg19
g77
sg21
I447
sssg1966
I256
sg1995
(dp2575
g18
S'H4sIAOT1H04C/2tgSs4rzS2o1EvOL0rVyy3NKclMLCpKrOSKL0pNzs8rLikqTS7hKmSEqOLKS4HI\nFjJ5M7SGMia1BxUya3gzejO1QhWklFQWpHIVsoQypVl4M3gzAhWwangzhzLa+Pn5ef0HAjDhzVCS\n1BkqwIACPtiXJOkBAIHIRA6RAAAA\n'
p2576
sg19
g146
sg21
I439
ssg1863
Nsg1998
I00
sg1999
S''
sg2000
(dp2577
g2
(lp2578
((g4
g5
tI-1
tp2579
a((g7
g5
tI-1
tp2580
a((g100
g101
tI-1
tp2581
a((g103
g104
tI-1
tp2582
a((g106
g107
tI-1
tp2583
a((g173
g174
tI-1
tp2584
a((g2009
g2010
tI-1
tp2585
a((g2012
g2013
tI-1
tp2586
a((g2015
g2016
tI-1
tp2587
asg15
g2015
sg16
(dp2588
g18
Nsg19
g48
sg21
I21
ssg19
g22
sg21
I440
sg23
g2016
sg18
(dp2589
g18
(dp2590
g190
I1
sg2021
I0
sg193
I1
sg195
I1
sg2022
g2023
sg197
I1
sg2024
I2
sg2025
I0
sg2026
I0
sg2027
(dp2591
g18
S'H4sIAOT1H04C/2tgSs4rzS2o1EvOL0rVyy3NKclMLCpKrOSKL0pNzs8rLikqTS7hKmSEqOLKS4HI\nFjJ5M7SGMia1BxUya3gzejO1QhWklFQWpHIVsoQypVl4M3gzAhWwangzhzLa+Pn5ef0HAjDhzVCS\n1BkqcPirRkz/oaP2s2aCwEv7kiQ9AC+e0nyRAAAA\n'
p2592
sg19
g146
sg21
I443
ssg2030
I0
sg2031
(dp2593
g18
S'H4sIAOT1H04C/2tgSs4rzS2o1EvOL0rVyy3NKclMLCpKrOSKL0pNzs8rLikqTS7hKmSEqOLKS4HI\nFjJ5M7SGMia1BxUya3gzejO1QhWklFQWpHIVsoQyZZp4M3gzAhWwangzhzLa+Pn5ef0HAjDhzVCS\n1BnKsaCNkQGES5L0ALP9TXGJAAAA\n'
p2594
sg19
g146
sg21
I445
ssg201
I1
sg510
I3
sg2034
(dp2595
g18
S'H4sIAOT1H04C/2tgSs4rzS2o1EvOL0rVyy3NKclMLCpKrOSKL0pNzs8rLikqTS7hKmSEqOLKS4HI\nFjJ5M7SGMia1BxUya3gzejO1QhWklFQWpHIVsoQyZZp4M3gzAhWwangzhzLa+Pn5ef0HAjDhzVCS\n1BnKwcjAwADCJUl6AJHzi6mJAAAA\n'
p2596
sg19
g146
sg21
I442
ssg194
I1
sg196
I1
sg149
I0
sg2037
I0
sg2038
F0.5
sg2039
I0
sg155
I0
sg137
I0
sg198
(dp2597
g18
S'H4sIAOT1H04C/2tgSs4rzS2o1EvOL0rVyy3NKclMLCpKrOSKL0pNzs8rLikqTS7hKmSEqOLKS4HI\nFjJ5M7SGMia1BxUya3gzejO1QhWklFQWpHIVsoQypVl4M3gzAhWwangzhzLa+Pn5ef0HAjDhzVCS\n1BkqYMt1fXGB7Sv7WTNBYKd9SZIeADd4AQGRAAAA\n'
p2598
sg19
g146
sg21
I444
ssg2042
F0.01
ssg19
g77
sg21
I441
sssg2043
(dp2599
g2
(lp2600
((g4
g5
tI-1
tp2601
a((g7
g5
tI-1
tp2602
a((g100
g101
tI-1
tp2603
a((g103
g104
tI-1
tp2604
a((g106
g107
tI-1
tp2605
a((g580
g581
tI-1
tp2606
a((g2052
g2053
tI-1
tp2607
a((g2055
g2056
tI-1
tp2608
a((g2058
g2059
tI-1
tp2609
asg15
g2058
sg16
(dp2610
g18
Nsg19
g48
sg21
I21
ssg19
g22
sg21
I437
sg23
g2059
sg18
(dp2611
g18
(dp2612
g2064
I1
sg589
S'i'
sg2065
I1
sg149
I0
sg137
I0
sg590
I0
sg593
I0
sg155
I0
sg2066
I1
sg592
F0.5
sg2067
I1
sg2068
I1
sg2069
I1
sg594
I0
sg2070
I1
sg2071
I0
sg2072
I0
sg595
I0
sg2073
I1
ssg19
g77
sg21
I438
sssg2074
I00
sg1924
I00
sg2075
S'blue-red'
p2613
sg2077
I01
sg2078
S''
sg2079
I8
sg2080
(dp2614
g18
Nsg19
g48
sg21
I428
ssg2082
g2083
sg203
S''
sg2084
I01
sg2085
(dp2615
g2
(lp2616
((g4
g5
tI-1
tp2617
a((g7
g5
tI-1
tp2618
a((g100
g101
tI-1
tp2619
a((g103
g104
tI-1
tp2620
a((g106
g107
tI-1
tp2621
a((g173
g174
tI-1
tp2622
a((g2094
g2095
tI-1
tp2623
a((g2097
g2098
tI-1
tp2624
asg15
g2097
sg16
(dp2625
g18
Nsg19
g48
sg21
I21
ssg19
g22
sg21
I449
sg23
g2098
sg18
(dp2626
g18
(dp2627
g190
g2103
sg193
I1
sg2104
F0.17000000000000001
sg197
I1
sg2105
I0
sg2106
S'No vectors'
p2628
sg2108
S'%-#6.3g'
p2629
sg2110
F0.80000000000000004
sg2111
F10
sg2112
g2113
sg201
I1
sg2114
I0
sg194
I1
sg196
I1
sg149
I0
sg2115
I256
sg2116
I1
sg195
I1
sg2079
I8
sg155
I0
sg2027
(dp2630
g18
S'H4sIAOT1H04C/2tgSs4rzS2o1EvOL0rVyy3NKclMLCpKrOSKL0pNzs8rLikqTS7hKmSEqOLKS4HI\nFjJ5M7SGMia1BxUya3gzejO1QhWklFQWpHIVsoQypVl4M3gzAhWwangzhzLa+Pn5ef0HAjDhzVCS\n1BkqMGsmCLy0P/xVI6b/0FH7kiQ9AGpIg++RAAAA\n'
p2631
sg19
g146
sg21
I452
ssg2119
I0
sg137
I0
sg198
(dp2632
g18
S'H4sIAOT1H04C/2tgSs4rzS2o1EvOL0rVyy3NKclMLCpKrOSKL0pNzs8rLikqTS7hKmSEqOLKS4HI\nFjJ5M7SGMia1BxUya3gzejO1QhWklFQWpHIVsoQypVl4M3gzAhWwangzhzLa+Pn5ef0HAjDhzVCS\n1BkqMGsmCOy0rxZZ5/6wqsW+JEkPAHMFfKeRAAAA\n'
p2633
sg19
g146
sg21
I451
sssg19
g77
sg21
I450
ssssg19
g77
sg21
I424
sssg203
S''
sg2122
(dp2634
g2
(lp2635
((g4
g5
tI-1
tp2636
a((g30
g5
tI-1
tp2637
a((g32
g33
tI-1
tp2638
a((g35
g36
tI0
tp2639
a((g1889
g1890
tI0
tp2640
asg15
g1889
sg16
(dp2641
g18
Nsg19
g48
sg21
I1
ssg19
g22
sg21
I479
sg23
g1890
sg18
(dp2642
g18
(dp2643
g1895
(dp2644
g2
(lp2645
((g4
g5
tI-1
tp2646
a((g7
g5
tI-1
tp2647
a((g100
g101
tI-1
tp2648
a((g103
g104
tI-1
tp2649
a((g106
g107
tI-1
tp2650
a((g1903
g1904
tI-1
tp2651
asg15
g1903
sg16
(dp2652
g18
Nsg19
g48
sg21
I21
ssg19
g22
sg21
I481
sg23
g1904
sg18
(dp2653
g18
(dp2654
g235
F1
sg1909
g1910
sg1911
I12
sg190
F0
sg1912
F0
sg1913
I1
sg1914
g1915
sg1916
I0
sg155
I0
sg1917
F1.1000000000000001
sg800
(dp2655
g18
Nsg19
g48
sg21
I41
ssg1919
I1
sg1920
(dp2656
g18
S'H4sIAOT1H04C/2tgSs4rzS2o1EvOL0rVyy3NKclMLCpKrOSKL0pNzs8rLikqTS7hKmSEqOLKS4HI\nFjJ5M7SGMia1BxUya3gzejO1QhWklFQWpHIVsoQyZZp4M3gzAhWwangzhzLa+Pn5ef0HAjDhzVCS\n1BnKwcjAwADiliTpAQCk2G9tiQAAAA==\n'
p2657
sg19
g146
sg21
I483
ssg137
I0
sg1923
I1
sg1924
I0
sg1925
g1926
sg149
I0
sg1927
I1
ssg19
g77
sg21
I482
sssg1928
S''
sg1929
S'point_scalars'
p2658
sg1931
I01
sg1932
(dp2659
g18
S'H4sIAOT1H04C/2tgSs4rzS2o1EvOL0rVyy3NKclMLCpKrOSKL0pNzs8rLikqTS7hKmSEqOLKS4HI\nFjJ5M7SGMia1BxUya3gzejO1QhWklFQWpHIVsoQypVl4M3gzAhWwangzhzLa+Pn5ef0HAjDhzVCS\n1BkqwMDAcEAhYpM9kH6QsFjOoSRJDwAML/RykQAAAA==\n'
p2660
sg19
g146
sg21
I484
ssg1935
(dp2661
g2
(lp2662
((g4
g5
tI-1
tp2663
a((g7
g5
tI-1
tp2664
a((g100
g101
tI-1
tp2665
a((g103
g104
tI-1
tp2666
a((g106
g107
tI-1
tp2667
a((g1943
g1944
tI-1
tp2668
a((g1946
g1947
tI-1
tp2669
asg15
g1946
sg16
(dp2670
g18
Nsg19
g48
sg21
I21
ssg19
g22
sg21
I485
sg23
g1947
sg18
(dp2671
g18
(dp2672
g1952
I2
sg187
g1953
sg1954
(dp2673
g18
S'H4sIAOT1H04C/2tgSs4rzS2o1EvOL0rVyy3NKclMLCpKrOSKL0pNzs8rLikqTS7hKmSEqOLKS4HI\nFjJ5M7SGMia1BxUya3gzejO1QhWklFQWpHIVsoQypVl4M3gzAhWwangzhzLa+Pn5ef0HAjDhzVCS\n1BkqwAAGH+xhdEmSHgBnOGdykQAAAA==\n'
p2674
sg19
g146
sg21
I487
ssg1957
(dp2675
g18
S'H4sIAOT1H04C/2tgSs4rzS2o1EvOL0rVyy3NKclMLCpKrOSKL0pNzs8rLikqTS7hKmSEqOLKS4HI\nFjJ5M7SGMia1BxUya3gzejO1QhWklFQWpHIVsoQypVl4M3gzAhWwangzhzLa+Pn5ef0HAjDhzVCS\n1BkqwMDAcEAhYpM9kH6QsFjOoSRJDwAML/RykQAAAA==\n'
p2676
sg19
g146
sg21
I489
ssg1960
(dp2677
g18
S'H4sIAOT1H04C/2tgSs4rzS2o1EvOL0rVyy3NKclMLCpKrOSKL0pNzs8rLikqTS7hKmSEqOLKS4HI\nFjJ5M7SGMia1BxUya3gzejO1QhWklFQWpHIVsoQypVl4M3gzAhWwangzhzLa+Pn5ef0HAjDhzVCS\n1Bkq4H2C3XZ26FN7BigoSdIDAObNAnCRAAAA\n'
p2678
sg19
g146
sg21
I488
ssg1963
I256
sg1964
g1965
sg155
I0
sg1966
I256
sg1967
(dp2679
g18
S'H4sIAOT1H04C/2tgSs4rzS2o1EvOL0rVyy3NKclMLCpKrOSKL0pNzs8rLikqTS7hKmSEqOLKS4HI\nFjJ5M7SGMia1BxUya3gzejO1QhWklFQWpHIVsoQypVl4M3gzAhWwangzhzLa+Pn5ef0HAjDhzVCS\n1BkqwAAGH+xhdEmSHgBnOGdykQAAAA==\n'
p2680
sg19
g146
sg21
I490
ssg1970
(dp2681
g18
S'H4sIAOT1H04C/2tgSs4rzS2o1EvOL0rVyy3NKclMLCpKrOSKL0pNzs8rLikqTS7hKmSEqOLKS4HI\nFjJ5M7SGMia1BxUya3gzejO1QhWklFQWpHIVsoQypVl4M3gzAhWwangzhzLa+Pn5ef0HAjDhzVCS\n1BkqwMDAcEAhYpM9kH6QsFjOoSRJDwAML/RykQAAAA==\n'
p2682
sg19
g146
sg21
I491
ssg1973
I0
sg1974
(dp2683
g18
S'H4sIAOT1H04C/2tgSs4rzS2o1EvOL0rVyy3NKclMLCpKrOSKL0pNzs8rLikqTS7hKmSEqOLKS4HI\nFjJ5M7SGMia1BxUya3gzejO1QhWklFQWpHIVsoQypVl4M3gzAhWwangzhzLa+Pn5ef0HAjDhzVCS\n1BkqwAAGH+xhdEmSHgBnOGdykQAAAA==\n'
p2684
sg19
g146
sg21
I492
ssg137
I0
sg1977
F0.50449999999999995
sg1978
g1979
sg149
I0
ssg19
g77
sg21
I486
sssg1980
(dp2685
g2
(lp2686
((g4
g5
tI-1
tp2687
a((g7
g5
tI-1
tp2688
a((g100
g101
tI-1
tp2689
a((g103
g104
tI-1
tp2690
a((g106
g107
tI-1
tp2691
a((g1903
g1904
tI-1
tp2692
asg15
g1903
sg16
(dp2693
g18
Nsg19
g48
sg21
I21
ssg19
g22
sg21
I502
sg23
g1904
sg18
(dp2694
g18
(dp2695
g235
F1
sg1909
g1910
sg1911
I12
sg190
F0
sg1912
F0
sg1913
I1
sg1914
g1915
sg1916
I0
sg155
I0
sg1917
F1.1000000000000001
sg800
(dp2696
g18
Nsg19
g48
sg21
I41
ssg1919
I1
sg1920
(dp2697
g18
S'H4sIAOT1H04C/2tgSs4rzS2o1EvOL0rVyy3NKclMLCpKrOSKL0pNzs8rLikqTS7hKmSEqOLKS4HI\nFjJ5M7SGMia1BxUya3gzejO1QhWklFQWpHIVsoQyZZp4M3gzAhWwangzhzLa+Pn5ef0HAjDhzVCS\n1BnKwcjAwADiliTpAQCk2G9tiQAAAA==\n'
p2698
sg19
g146
sg21
I504
ssg137
I0
sg1923
I1
sg1924
I0
sg1925
g1926
sg149
I0
sg1927
I1
ssg19
g77
sg21
I503
sssg1966
I256
sg1995
(dp2699
g18
S'H4sIAOT1H04C/2tgSs4rzS2o1EvOL0rVyy3NKclMLCpKrOSKL0pNzs8rLikqTS7hKmSEqOLKS4HI\nFjJ5M7SGMia1BxUya3gzejO1QhWklFQWpHIVsoQypVl4M3gzAhWwangzhzLa+Pn5ef0HAjDhzVCS\n1BkqwIACPtiXJOkBAIHIRA6RAAAA\n'
p2700
sg19
g146
sg21
I495
ssg1863
Nsg1998
I00
sg1999
S''
sg2000
(dp2701
g2
(lp2702
((g4
g5
tI-1
tp2703
a((g7
g5
tI-1
tp2704
a((g100
g101
tI-1
tp2705
a((g103
g104
tI-1
tp2706
a((g106
g107
tI-1
tp2707
a((g173
g174
tI-1
tp2708
a((g2009
g2010
tI-1
tp2709
a((g2012
g2013
tI-1
tp2710
a((g2015
g2016
tI-1
tp2711
asg15
g2015
sg16
(dp2712
g18
Nsg19
g48
sg21
I21
ssg19
g22
sg21
I496
sg23
g2016
sg18
(dp2713
g18
(dp2714
g190
I1
sg2021
I0
sg193
I1
sg195
I1
sg2022
g2023
sg197
I1
sg2024
I2
sg2025
I0
sg2026
I0
sg2027
(dp2715
g18
S'H4sIAOT1H04C/2tgSs4rzS2o1EvOL0rVyy3NKclMLCpKrOSKL0pNzs8rLikqTS7hKmSEqOLKS4HI\nFjJ5M7SGMia1BxUya3gzejO1QhWklFQWpHIVsoQypVl4M3gzAhWwangzhzLa+Pn5ef0HAjDhzVCS\n1BkqcPirRkz/oaP2s2aCwEv7kiQ9AC+e0nyRAAAA\n'
p2716
sg19
g146
sg21
I499
ssg2030
I0
sg2031
(dp2717
g18
S'H4sIAOT1H04C/2tgSs4rzS2o1EvOL0rVyy3NKclMLCpKrOSKL0pNzs8rLikqTS7hKmSEqOLKS4HI\nFjJ5M7SGMia1BxUya3gzejO1QhWklFQWpHIVsoQyZZp4M3gzAhWwangzhzLa+Pn5ef0HAjDhzVCS\n1BnKsaCNkQGES5L0ALP9TXGJAAAA\n'
p2718
sg19
g146
sg21
I501
ssg201
I1
sg510
I3
sg2034
(dp2719
g18
S'H4sIAOT1H04C/2tgSs4rzS2o1EvOL0rVyy3NKclMLCpKrOSKL0pNzs8rLikqTS7hKmSEqOLKS4HI\nFjJ5M7SGMia1BxUya3gzejO1QhWklFQWpHIVsoQyZZp4M3gzAhWwangzhzLa+Pn5ef0HAjDhzVCS\n1BnKwcjAwADCJUl6AJHzi6mJAAAA\n'
p2720
sg19
g146
sg21
I498
ssg194
I1
sg196
I1
sg149
I0
sg2037
I0
sg2038
F0.5
sg2039
I0
sg155
I0
sg137
I0
sg198
(dp2721
g18
S'H4sIAOT1H04C/2tgSs4rzS2o1EvOL0rVyy3NKclMLCpKrOSKL0pNzs8rLikqTS7hKmSEqOLKS4HI\nFjJ5M7SGMia1BxUya3gzejO1QhWklFQWpHIVsoQypVl4M3gzAhWwangzhzLa+Pn5ef0HAjDhzVCS\n1BkqYMt1fXGB7Sv7WTNBYKd9SZIeADd4AQGRAAAA\n'
p2722
sg19
g146
sg21
I500
ssg2042
F0.01
ssg19
g77
sg21
I497
sssg2043
(dp2723
g2
(lp2724
((g4
g5
tI-1
tp2725
a((g7
g5
tI-1
tp2726
a((g100
g101
tI-1
tp2727
a((g103
g104
tI-1
tp2728
a((g106
g107
tI-1
tp2729
a((g580
g581
tI-1
tp2730
a((g2052
g2053
tI-1
tp2731
a((g2055
g2056
tI-1
tp2732
a((g2058
g2059
tI-1
tp2733
asg15
g2058
sg16
(dp2734
g18
Nsg19
g48
sg21
I21
ssg19
g22
sg21
I493
sg23
g2059
sg18
(dp2735
g18
(dp2736
g2064
I1
sg589
S'i'
sg2065
I1
sg149
I0
sg137
I0
sg590
I0
sg593
I0
sg155
I0
sg2066
I1
sg592
F0.5
sg2067
I1
sg2068
I1
sg2069
I1
sg594
I0
sg2070
I1
sg2071
I0
sg2072
I0
sg595
I0
sg2073
I1
ssg19
g77
sg21
I494
sssg2074
I00
sg1924
I00
sg2075
S'Paired'
p2737
sg2077
I01
sg2078
S''
sg2079
I8
sg2080
(dp2738
g18
Nsg19
g48
sg21
I484
ssg2082
S'point_scalars'
p2739
sg203
S''
sg2084
I01
sg2085
(dp2740
g2
(lp2741
((g4
g5
tI-1
tp2742
a((g7
g5
tI-1
tp2743
a((g100
g101
tI-1
tp2744
a((g103
g104
tI-1
tp2745
a((g106
g107
tI-1
tp2746
a((g173
g174
tI-1
tp2747
a((g2094
g2095
tI-1
tp2748
a((g2097
g2098
tI-1
tp2749
asg15
g2097
sg16
(dp2750
g18
Nsg19
g48
sg21
I21
ssg19
g22
sg21
I505
sg23
g2098
sg18
(dp2751
g18
(dp2752
g190
g2103
sg193
I1
sg2104
F0.17000000000000001
sg197
I1
sg2105
I0
sg2106
S'point_scalars'
p2753
sg2108
S'%-#6.3g'
p2754
sg2110
F0.80000000000000004
sg2111
F10
sg2112
g2113
sg201
I1
sg2114
I0
sg194
I1
sg196
I1
sg149
I0
sg2115
I256
sg2116
I1
sg195
I1
sg2079
I8
sg155
I0
sg2027
(dp2755
g18
S'H4sIAOT1H04C/2tgSs4rzS2o1EvOL0rVyy3NKclMLCpKrOSKL0pNzs8rLikqTS7hKmSEqOLKS4HI\nFjJ5M7SGMia1BxUya3gzejO1QhWklFQWpHIVsoQypVl4M3gzAhWwangzhzLa+Pn5ef0HAjDhzVCS\n1BkqMGsmCLy0P/xVI6b/0FH7kiQ9AGpIg++RAAAA\n'
p2756
sg19
g146
sg21
I508
ssg2119
I0
sg137
I0
sg198
(dp2757
g18
S'H4sIAOT1H04C/2tgSs4rzS2o1EvOL0rVyy3NKclMLCpKrOSKL0pNzs8rLikqTS7hKmSEqOLKS4HI\nFjJ5M7SGMia1BxUya3gzejO1QhWklFQWpHIVsoQypVl4M3gzAhWwangzhzLa+Pn5ef0HAjDhzVCS\n1BkqMGsmCOy0rxZZ5/6wqsW+JEkPAHMFfKeRAAAA\n'
p2758
sg19
g146
sg21
I507
sssg19
g77
sg21
I506
ssssg19
g77
sg21
I480
sssg1999
g2248
sg1046
(dp2759
g18
(lp2760
(dp2761
g2
(lp2762
((g4
g5
tI-1
tp2763
a((g30
g5
tI-1
tp2764
a((g32
g33
tI-1
tp2765
a((g35
g36
tI0
tp2766
a((g38
g39
tI0
tp2767
a((g41
g42
tI0
tp2768
a((g44
g45
tI0
tp2769
asg15
g44
sg16
(dp2770
g18
Nsg19
g48
sg21
I1
ssg19
g22
sg21
I454
sg23
g45
sg18
(dp2771
g18
(dp2772
g51
I00
sg2263
(dp2773
g18
(lp2774
sg19
g55
sg21
I456
ssg56
g2266
sg2267
(dp2775
g18
Nsg19
g48
sg21
I5
ssg78
(dp2776
g2
(lp2777
((g4
g5
tI-1
tp2778
a((g30
g5
tI-1
tp2779
a((g32
g33
tI-1
tp2780
a((g35
g36
tI0
tp2781
a((g38
g39
tI0
tp2782
a((g86
g87
tI0
tp2783
a((g89
g90
tI0
tp2784
asg15
g89
sg16
(dp2785
g18
Nsg19
g48
sg21
I1
ssg19
g22
sg21
I465
sg23
g90
sg18
(dp2786
g18
(dp2787
g95
(dp2788
g2
(lp2789
((g4
g5
tI-1
tp2790
a((g7
g5
tI-1
tp2791
a((g100
g101
tI-1
tp2792
a((g103
g104
tI-1
tp2793
a((g106
g107
tI-1
tp2794
a((g109
g110
tI-1
tp2795
a((g112
g113
tI-1
tp2796
a((g115
g116
tI-1
tp2797
a((g118
g119
tI-1
tp2798
a((g121
g122
tI-1
tp2799
asg15
g121
sg16
(dp2800
g18
Nsg19
g48
sg21
I21
ssg19
g22
sg21
I474
sg23
g122
sg18
(dp2801
g18
(dp2802
g127
I0
sg128
I0
sg129
g135
sg131
I0
sg132
I0
sg133
F0.01
sg134
g135
sg136
I0
sg137
I0
sg138
I0
sg139
I1
sg140
I0
sg141
I0
sg142
F1
sg143
(dp2803
g18
S'H4sIAOT1H04C/2tgSs4rzS2o1EvOL0rVyy3NKclMLCpKrOSKL0pNzs8rLikqTS7hKmSEqOLKS4HI\nFjJ5M7SGMia1BxUya3gzejO1QhWklFQWpHIVsoQypVl4M3gzAhWwangzhzLa+Pn5ef0HAjDhzVCS\n1BkqwIACPtiXJOkBAIHIRA6RAAAA\n'
p2804
sg19
g146
sg21
I476
ssg147
Nsg148
I1
sg149
I0
sg150
I0
sg151
I0
sg152
I1
sg153
I0
sg154
I1
sg155
I0
sg156
I0
sg157
g135
sg158
I0
sg159
F0
sg160
I0
sg161
g162
sg163
I1
ssg19
g77
sg21
I475
sssg2263
(dp2805
g18
(lp2806
sg19
g55
sg21
I467
ssg2078
S''
sg2267
Nsg78
(dp2807
g2
(lp2808
((g4
g5
tI-1
tp2809
a((g7
g5
tI-1
tp2810
a((g100
g101
tI-1
tp2811
a((g103
g104
tI-1
tp2812
a((g106
g107
tI-1
tp2813
a((g173
g174
tI-1
tp2814
a((g176
g177
tI-1
tp2815
a((g89
g179
tI-1
tp2816
asg15
g89
sg16
(dp2817
g18
Nsg19
g48
sg21
I21
ssg19
g22
sg21
I468
sg23
g179
sg18
(dp2818
g18
(dp2819
g184
(dp2820
g18
S'H4sIAOT1H04C/2tgSs4rzS2o1EvOL0rVyy3NKclMLCpKrOSKL0pNzs8rLikqTS7hKmSEqOLKS4HI\nFjJ5M7SGMia1BxUya3gzejO3QhWklFQWpHIVsoQypVl4M3gzAhWwangzhzLa+Pn5ef0HAjDhzVCS\n1BkqwYADlCTpAQD67GqfmQAAAA==\n'
p2821
sg19
g146
sg21
I470
ssg187
(dp2822
g18
S'H4sIAOT1H04C/2tgSs4rzS2o1EvOL0rVyy3NKclMLCpKrOSKL0pNzs8rLikqTS7hKmSEqOLKS4HI\nFjJ5M7SGMia1BxUya3gzejO3QhWklFQWpHIVsoQypVl4M3gzAhWwangzhzLa+Pn5ef0HAjDhzVCS\n1BkqwQAGH+zR6ZIkPQDfyO6fmQAAAA==\n'
p2823
sg19
g146
sg21
I472
ssg190
(dp2824
g18
S'H4sIAOT1H04C/2tgSs4rzS2o1EvOL0rVyy3NKclMLCpKrOSKL0pNzs8rLikqTS7hKmSEqOLKS4HI\nFjJ5M7SGMia1BxUya3gzejO3QhWklFQWpHIVsoQypVl4M3gzAhWwangzhzLa+Pn5ef0HAjDhzVCS\n1BkqwYAKGmCMkiQ9ABqDrf+ZAAAA\n'
p2825
sg19
g146
sg21
I471
ssg137
I0
sg193
I1
sg194
I1
sg195
I1
sg196
I1
sg149
I0
sg155
I0
sg197
I1
sg198
(dp2826
g18
S'H4sIAOT1H04C/2tgSs4rzS2o1EvOL0rVyy3NKclMLCpKrOSKL0pNzs8rLikqTS7hKmSEqOLKS4HI\nFjJ5M7SGMia1BxUya3gzejO3QhWklFQWpHIVsoQypVl4M3gzAhWwangzhzLa+Pn5ef0HAjDhzVCS\n1BkqwYADlCTpAQD67GqfmQAAAA==\n'
p2827
sg19
g146
sg21
I473
ssg201
I1
ssg19
g77
sg21
I469
sssg202
I01
sg203
S''
sg2321
Nsg1863
Nsg206
(dp2828
g2
(lp2829
((g4
g5
tI-1
tp2830
a((g7
g5
tI-1
tp2831
a((g100
g101
tI-1
tp2832
a((g103
g104
tI-1
tp2833
a((g106
g107
tI-1
tp2834
a((g214
g215
tI-1
tp2835
a((g217
g218
tI-1
tp2836
asg15
g217
sg16
(dp2837
g18
Nsg19
g48
sg21
I21
ssg19
g22
sg21
I477
sg23
g218
sg18
(dp2838
g18
(dp2839
g223
(dp2840
g18
Nsg19
g48
sg21
I41
ssg226
I0
sg227
F1.8999999999999999
sg238
(dp2841
g18
Nsg19
g48
sg21
I41
ssg231
F0.018499999999999999
sg232
I0
sg228
(dp2842
g18
Nsg19
g48
sg21
I40
ssg233
g234
sg235
F0.50449999999999995
sg236
I0
sg237
F16.766231536865234
sS'interpolation_'
p2843
I1
sg240
(dp2844
g18
Nsg19
g48
sg21
I41
ssg242
I0
sg149
I0
sg243
I0
sg244
I0
sg245
F1
sg246
I0
sg155
I0
sg247
F0
sg248
I0
sS'representation_'
p2845
I2
sg249
I65535
sg137
I0
sg250
g251
sg252
I1
sg253
F2
ssg19
g77
sg21
I478
sssg1999
S''
ssg19
g77
sg21
I466
sssg202
I01
sg203
S''
sg2321
(dp2846
g18
Nsg19
g48
sg21
I11
ssg1863
Nsg1999
g2339
sg269
(dp2847
g2
(lp2848
((g4
g5
tI-1
tp2849
a((g30
g5
tI-1
tp2850
a((g32
g33
tI-1
tp2851
a((g35
g36
tI0
tp2852
a((g38
g39
tI0
tp2853
a((g86
g87
tI0
tp2854
a((g278
g279
tI0
tp2855
asg15
g278
sg16
(dp2856
g18
Nsg19
g48
sg21
I1
ssg19
g22
sg21
I457
sg23
g279
sg18
(dp2857
g18
(dp2858
g2263
(dp2859
g18
(lp2860
sg19
g55
sg21
I459
ssg2078
S''
sg286
I01
sg2321
Nsg287
(dp2861
g18
Nsg19
g48
sg21
I366
ssg290
I01
sg202
I01
sg203
S''
sg291
(dp2862
g2
(lp2863
((g4
g5
tI-1
tp2864
a((g7
g5
tI-1
tp2865
a((g100
g101
tI-1
tp2866
a((g103
g104
tI-1
tp2867
a((g106
g107
tI-1
tp2868
a((g109
g110
tI-1
tp2869
a((g300
g301
tI-1
tp2870
a((g303
g304
tI-1
tp2871
asg15
g303
sg16
(dp2872
g18
Nsg19
g48
sg21
I21
ssg19
g22
sg21
I460
sg23
g304
sg18
(dp2873
g18
(dp2874
g310
I0
sg149
I0
sg311
I0
sg147
Nsg312
I0
sg153
I0
sg313
I1
sg314
I1
sg315
I1
sg316
I0
sg317
I0
sg140
I0
sg155
I0
sg141
I0
sg318
I1
sg158
I0
sg142
F1
sg319
I10
sg137
I0
ssg19
g77
sg21
I461
sssS'_traits_cache_minimum_contour'
p2875
F0.071657225489616394
sg321
(dp2876
g18
(lp2877
F1
asg19
g55
sg21
I462
ssg324
(dp2878
g2
(lp2879
((g4
g5
tI-1
tp2880
a((g7
g5
tI-1
tp2881
a((g100
g101
tI-1
tp2882
a((g103
g104
tI-1
tp2883
a((g106
g107
tI-1
tp2884
a((g109
g110
tI-1
tp2885
a((g300
g301
tI-1
tp2886
a((g334
g335
tI-1
tp2887
asg15
g334
sg16
(dp2888
g18
Nsg19
g48
sg21
I21
ssg19
g22
sg21
I463
sg23
g335
sg18
(dp2889
g18
(dp2890
g155
I0
sg340
I1
sg153
I0
sg341
I1
sg129
g342
sg343
I0
sg147
Nsg137
I0
sg149
I0
sg140
I0
sg150
I1
sg141
I0
sg158
I0
sg142
F1
sg319
I10
sg344
I0
ssg19
g77
sg21
I464
sssg2267
Nsg2386
I01
sg346
I01
sg1863
Nsg319
I10
sg1999
S''
sS'_traits_cache_maximum_contour'
p2891
F7.6595492362976074
ssg19
g77
sg21
I458
sssg348
g2388
ssg19
g77
sg21
I455
ssasg19
g55
sg21
I453
ssg348
g2389
ssg19
g77
sg21
I422
ssasg19
g55
sg21
I420
ssg348
S'filter.ico'
p2892
ssg19
g77
sg21
I417
ssa(dp2893
g2
(lp2894
((g4
g5
tI-1
tp2895
a((g30
g5
tI-1
tp2896
a((g32
g33
tI-1
tp2897
a((g35
g36
tI0
tp2898
a((g38
g39
tI0
tp2899
a((g1543
g1544
tI0
tp2900
a((g2398
g2399
tI0
tp2901
a((S'Collection'
p2902
S'enthought.mayavi.filters.collection'
p2903
tI0
tp2904
a((S'CutPlane'
p2905
S'enthought.mayavi.filters.cut_plane'
p2906
tI0
tp2907
asg15
g2905
sg16
(dp2908
g18
Nsg19
g48
sg21
I1
ssg19
g22
sg21
I518
sg23
g2906
sg18
(dp2909
g18
(dp2910
g56
S'CutPlane'
p2911
sS'_pipeline_ready'
p2912
I01
sg57
(dp2913
g2
(lp2914
((g4
g5
tI-1
tp2915
a((g61
g62
tI-1
tp2916
asg15
g61
sg16
(dp2917
g18
Nsg19
g48
sg21
I1
ssg19
g22
sg21
I632
sg23
g62
sg18
(dp2918
g18
(dp2919
g67
(dp2920
g18
(lp2921
g263
asg19
g55
sg21
I634
ssg70
(dp2922
g18
(lp2923
g1860
asg19
g55
sg21
I635
ssg74
(dp2924
g18
(lp2925
g263
asg19
g55
sg21
I636
sssg19
g77
sg21
I633
sssg202
I01
sg203
S''
sS'filters'
p2926
(dp2927
g18
(lp2928
(dp2929
g2
(lp2930
((g4
g5
tI-1
tp2931
a((g30
g5
tI-1
tp2932
a((g32
g33
tI-1
tp2933
a((g35
g36
tI0
tp2934
a((g38
g39
tI0
tp2935
a((g86
g87
tI0
tp2936
a((S'ImplicitPlane'
p2937
S'enthought.mayavi.components.implicit_plane'
p2938
tI0
tp2939
asg15
g2937
sg16
(dp2940
g18
Nsg19
g48
sg21
I1
ssg19
g22
sg21
I521
sg23
g2938
sg18
(dp2941
g18
(dp2942
g2409
(dp2943
g2
(lp2944
((g4
g5
tI-1
tp2945
a((g7
g5
tI-1
tp2946
a((g100
g101
tI-1
tp2947
a((g103
g104
tI-1
tp2948
a((g106
g107
tI-1
tp2949
a((g580
g581
tI-1
tp2950
a((g2418
g2419
tI-1
tp2951
a((S'PolyDataSourceWidget'
p2952
S'tvtk_classes.poly_data_source_widget'
p2953
tI-1
tp2954
a((S'ImplicitPlaneWidget'
p2955
S'tvtk_classes.implicit_plane_widget'
p2956
tI-1
tp2957
asg15
g2955
sg16
(dp2958
g18
Nsg19
g48
sg21
I21
ssg19
g22
sg21
I523
sg23
g2956
sg18
(dp2959
g18
(dp2960
g184
(dp2961
g18
S'H4sIAOT1H04C/2tgSs4rzS2o1EvOL0rVyy3NKclMLCpKrOSKL0pNzs8rLikqTS7hKmSEqOLKS4HI\nFjJ5M7SGMia1BxUya3gzejO3QhWklFQWpHIVsoQypVl4M3gzAhWwangzhzLa+Pn5ef0HAjDhzVCS\n1BkqwQAFLGBSxQFIJB98w+dQkqQHAEl5CkSZAAAA\n'
p2962
sg19
g146
sg21
I525
ssg2042
F0.01
sS'normal_to_z_axis_'
p2963
I1
sS'draw_plane'
p2964
I0
sS'draw_plane_'
p2965
I0
sg595
I0
sS'diagonal_ratio'
p2966
F0.29999999999999999
sS'origin_translation'
p2967
I1
sS'scale_enabled'
p2968
I1
sS'outline_translation'
p2969
I0
sg592
F0.5
sS'normal_to_y_axis'
p2970
I0
sS'scale_enabled_'
p2971
I1
sg589
S'i'
sS'normal'
p2972
(dp2973
g18
S'H4sIAOT1H04C/2tgSs4rzS2o1EvOL0rVyy3NKclMLCpKrOSKL0pNzs8rLikqTS7hKmSEqOLKS4HI\nFjJ5M7SGMia1BxUya3gzejO3QhWklFQWpHIVsoQypVl4M3gzAhWwangzhzLa+Pn5ef0HAjDhzVCS\n1BkqwYAVfLAvSdIDAFBUFn+ZAAAA\n'
p2974
sg19
g146
sg21
I526
ssS'normal_to_x_axis'
p2975
I0
sS'normal_to_z_axis'
p2976
I1
sg149
I0
sg593
I0
sS'normal_to_x_axis_'
p2977
I0
sg594
I0
sg2038
F1.2
sS'tubing_'
p2978
I0
sS'origin_translation_'
p2979
I1
sS'outside_bounds'
p2980
I1
sS'outside_bounds_'
p2981
I1
sg590
I0
sg155
I0
sS'outline_translation_'
p2982
I0
sS'normal_to_y_axis_'
p2983
I0
sg137
I0
sS'tubing'
p2984
I0
ssg19
g77
sg21
I524
sssg56
S'ImplicitPlane'
p2985
sg202
I01
sg203
S''
sS'plane'
p2986
(dp2987
g2
(lp2988
((g4
g5
tI-1
tp2989
a((g7
g5
tI-1
tp2990
a((g100
g101
tI-1
tp2991
a((g103
g104
tI-1
tp2992
a((g106
g107
tI-1
tp2993
a((S'ImplicitFunction'
p2994
S'tvtk_classes.implicit_function'
p2995
tI-1
tp2996
a((S'Plane'
p2997
S'tvtk_classes.plane'
p2998
tI-1
tp2999
asg15
g2997
sg16
(dp3000
g18
Nsg19
g48
sg21
I21
ssg19
g22
sg21
I527
sg23
g2998
sg18
(dp3001
g18
(dp3002
g184
(dp3003
g18
S'H4sIAOT1H04C/2tgSs4rzS2o1EvOL0rVyy3NKclMLCpKrOSKL0pNzs8rLikqTS7hKmSEqOLKS4HI\nFjJ5M7SGMia1BxUya3gzejO3QhWklFQWpHIVsoQypVl4M3gzAhWwangzhzLa+Pn5ef0HAjDhzVCS\n1BkqwQAFLGBSxQFIJB98w+dQkqQHAEl5CkSZAAAA\n'
p3004
sg19
g146
sg21
I529
ssg149
I0
sg137
I0
sg155
I0
sg2972
(dp3005
g18
S'H4sIAOT1H04C/2tgSs4rzS2o1EvOL0rVyy3NKclMLCpKrOSKL0pNzs8rLikqTS7hKmSEqOLKS4HI\nFjJ5M7SGMia1BxUya3gzejO3QhWklFQWpHIVsoQypVl4M3gzAhWwangzhzLa+Pn5ef0HAjDhzVCS\n1BkqwYAVfLAvSdIDAFBUFn+ZAAAA\n'
p3006
sg19
g146
sg21
I530
sssg19
g77
sg21
I528
sssS'_busy'
p3007
I00
sS'_first'
p3008
I00
ssg19
g77
sg21
I522
ssa(dp3009
g2
(lp3010
((g4
g5
tI-1
tp3011
a((g30
g5
tI-1
tp3012
a((g32
g33
tI-1
tp3013
a((g35
g36
tI0
tp3014
a((g38
g39
tI0
tp3015
a((g86
g87
tI0
tp3016
a((S'Cutter'
p3017
S'enthought.mayavi.components.cutter'
p3018
tI0
tp3019
asg15
g3017
sg16
(dp3020
g18
Nsg19
g48
sg21
I1
ssg19
g22
sg21
I531
sg23
g3018
sg18
(dp3021
g18
(dp3022
g202
I01
sg203
S''
sg56
S'Cutter'
p3023
sS'cutter'
p3024
(dp3025
g2
(lp3026
((g4
g5
tI-1
tp3027
a((g7
g5
tI-1
tp3028
a((g100
g101
tI-1
tp3029
a((g103
g104
tI-1
tp3030
a((g106
g107
tI-1
tp3031
a((g109
g110
tI-1
tp3032
a((g300
g301
tI-1
tp3033
a((g3017
S'tvtk_classes.cutter'
p3034
tI-1
tp3035
asg15
g3017
sg16
(dp3036
g18
Nsg19
g48
sg21
I21
ssg19
g22
sg21
I533
sg23
g3034
sg18
(dp3037
g18
(dp3038
S'generate_cut_scalars_'
p3039
I0
sg137
I0
sg153
I0
sg147
Nsg155
I0
sS'sort_by_'
p3040
I0
sg149
I0
sS'generate_cut_scalars'
p3041
I0
sS'sort_by'
p3042
S'sort_by_value'
p3043
sg141
I0
sg158
I0
sg142
F1
sg319
I3
sg140
I0
ssg19
g77
sg21
I534
ssssg19
g77
sg21
I532
ssasg19
g55
sg21
I520
ssg1863
Nsg19
g2498
sg1046
(dp3044
g18
(lp3045
(dp3046
g2
(lp3047
((g4
g5
tI-1
tp3048
a((g30
g5
tI-1
tp3049
a((g32
g33
tI-1
tp3050
a((g35
g36
tI0
tp3051
a((g1873
g1874
tI0
tp3052
asg15
g1873
sg16
(dp3053
g18
Nsg19
g48
sg21
I1
ssg19
g22
sg21
I536
sg23
g1874
sg18
(dp3054
g18
(dp3055
g56
g1879
sg1880
g1881
sg1882
(dp3056
g2
(lp3057
((g4
g5
tI-1
tp3058
a((g30
g5
tI-1
tp3059
a((g32
g33
tI-1
tp3060
a((g35
g36
tI0
tp3061
a((g1889
g1890
tI0
tp3062
asg15
g1889
sg16
(dp3063
g18
Nsg19
g48
sg21
I1
ssg19
g22
sg21
I538
sg23
g1890
sg18
(dp3064
g18
(dp3065
g1895
(dp3066
g2
(lp3067
((g4
g5
tI-1
tp3068
a((g7
g5
tI-1
tp3069
a((g100
g101
tI-1
tp3070
a((g103
g104
tI-1
tp3071
a((g106
g107
tI-1
tp3072
a((g1903
g1904
tI-1
tp3073
asg15
g1903
sg16
(dp3074
g18
Nsg19
g48
sg21
I21
ssg19
g22
sg21
I540
sg23
g1904
sg18
(dp3075
g18
(dp3076
g235
F1
sg1909
g1910
sg1911
I12
sg190
F0
sg1912
F0
sg1913
I1
sg1914
g1915
sg1916
I0
sg155
I0
sg1917
F1.1000000000000001
sg800
(dp3077
g18
Nsg19
g48
sg21
I41
ssg1919
I1
sg1920
(dp3078
g18
S'H4sIAOT1H04C/2tgSs4rzS2o1EvOL0rVyy3NKclMLCpKrOSKL0pNzs8rLikqTS7hKmSEqOLKS4HI\nFjJ5M7SGMia1BxUya3gzejO1QhWklFQWpHIVsoQyZZp4M3gzAhWwangzhzLa+Pn5ef0HAjDhzVCS\n1BnKwcjAwADiliTpAQCk2G9tiQAAAA==\n'
p3079
sg19
g146
sg21
I542
ssg137
I0
sg1923
I1
sg1924
I0
sg1925
g1926
sg149
I0
sg1927
I1
ssg19
g77
sg21
I541
sssS'file_name'
p3080
S''
sg1929
g1930
sg202
I01
sg1932
(dp3081
g18
S'H4sIAOT1H04C/2tgSs4rzS2o1EvOL0rVyy3NKclMLCpKrOSKL0pNzs8rLikqTS7hKmSEqOLKS4HI\nFjJ5M7SGMia1BxUya3gzejO1QhWklFQWpHIVsoQypVl4M3gzAhWwangzhzLa+Pn5ef0HAjDhzVCS\n1BkqwIACPtiXJOkBAIHIRA6RAAAA\n'
p3082
sg19
g146
sg21
I543
ssg1935
(dp3083
g2
(lp3084
((g4
g5
tI-1
tp3085
a((g7
g5
tI-1
tp3086
a((g100
g101
tI-1
tp3087
a((g103
g104
tI-1
tp3088
a((g106
g107
tI-1
tp3089
a((g1943
g1944
tI-1
tp3090
a((g1946
g1947
tI-1
tp3091
asg15
g1946
sg16
(dp3092
g18
Nsg19
g48
sg21
I21
ssg19
g22
sg21
I544
sg23
g1947
sg18
(dp3093
g18
(dp3094
g1952
I2
sg187
g1953
sg1954
(dp3095
g18
S'H4sIAOT1H04C/2tgSs4rzS2o1EvOL0rVyy3NKclMLCpKrOSKL0pNzs8rLikqTS7hKmSEqOLKS4HI\nFjJ5M7SGMia1BxUya3gzejO1QhWklFQWpHIVsoQypVl4M3gzAhWwangzhzLa+Pn5ef0HAjDhzVCS\n1BkqwAAGH+xhdEmSHgBnOGdykQAAAA==\n'
p3096
sg19
g146
sg21
I546
ssg1957
(dp3097
g18
S'H4sIAOT1H04C/2tgSs4rzS2o1EvOL0rVyy3NKclMLCpKrOSKL0pNzs8rLikqTS7hKmSEqOLKS4HI\nFjJ5M7SGMia1BxUya3gzejO1QhWklFQWpHIVsoQypVl4M3gzAhWwangzhzLa+Pn5ef0HAjDhzVCS\n1BkqwIACPtiXJOkBAIHIRA6RAAAA\n'
p3098
sg19
g146
sg21
I548
ssg1960
(dp3099
g18
S'H4sIAOT1H04C/2tgSs4rzS2o1EvOL0rVyy3NKclMLCpKrOSKL0pNzs8rLikqTS7hKmSEqOLKS4HI\nFjJ5M7SGMia1BxUya3gzejO1QhWklFQWpHIVsoQypVl4M3gzAhWwangzhzLa+Pn5ef0HAjDhzVCS\n1Bkq4H2C3XZ26FN7BigoSdIDAObNAnCRAAAA\n'
p3100
sg19
g146
sg21
I547
ssg1963
I256
sg1964
g1965
sg155
I0
sg1966
I256
sg1967
(dp3101
g18
S'H4sIAOT1H04C/2tgSs4rzS2o1EvOL0rVyy3NKclMLCpKrOSKL0pNzs8rLikqTS7hKmSEqOLKS4HI\nFjJ5M7SGMia1BxUya3gzejO1QhWklFQWpHIVsoQypVl4M3gzAhWwangzhzLa+Pn5ef0HAjDhzVCS\n1BkqwAAGH+xhdEmSHgBnOGdykQAAAA==\n'
p3102
sg19
g146
sg21
I549
ssg1970
(dp3103
g18
S'H4sIAOT1H04C/2tgSs4rzS2o1EvOL0rVyy3NKclMLCpKrOSKL0pNzs8rLikqTS7hKmSEqOLKS4HI\nFjJ5M7SGMia1BxUya3gzejO1QhWklFQWpHIVsoQypVl4M3gzAhWwangzhzLa+Pn5ef0HAjDhzVCS\n1BkqwIACPtiXJOkBAIHIRA6RAAAA\n'
p3104
sg19
g146
sg21
I550
ssg1973
I0
sg1974
(dp3105
g18
S'H4sIAOT1H04C/2tgSs4rzS2o1EvOL0rVyy3NKclMLCpKrOSKL0pNzs8rLikqTS7hKmSEqOLKS4HI\nFjJ5M7SGMia1BxUya3gzejO1QhWklFQWpHIVsoQypVl4M3gzAhWwangzhzLa+Pn5ef0HAjDhzVCS\n1BkqwAAGH+xhdEmSHgBnOGdykQAAAA==\n'
p3106
sg19
g146
sg21
I551
ssg137
I0
sg1977
F1
sg1978
g1979
sg149
I0
ssg19
g77
sg21
I545
sssg1980
(dp3107
g2
(lp3108
((g4
g5
tI-1
tp3109
a((g7
g5
tI-1
tp3110
a((g100
g101
tI-1
tp3111
a((g103
g104
tI-1
tp3112
a((g106
g107
tI-1
tp3113
a((g1903
g1904
tI-1
tp3114
asg15
g1903
sg16
(dp3115
g18
Nsg19
g48
sg21
I21
ssg19
g22
sg21
I561
sg23
g1904
sg18
(dp3116
g18
(dp3117
g235
F1
sg1909
g1910
sg1911
I12
sg190
F0
sg1912
F0
sg1913
I1
sg1914
g1915
sg1916
I0
sg155
I0
sg1917
F1.1000000000000001
sg800
(dp3118
g18
Nsg19
g48
sg21
I41
ssg1919
I1
sg1920
(dp3119
g18
S'H4sIAOT1H04C/2tgSs4rzS2o1EvOL0rVyy3NKclMLCpKrOSKL0pNzs8rLikqTS7hKmSEqOLKS4HI\nFjJ5M7SGMia1BxUya3gzejO1QhWklFQWpHIVsoQyZZp4M3gzAhWwangzhzLa+Pn5ef0HAjDhzVCS\n1BnKwcjAwADiliTpAQCk2G9tiQAAAA==\n'
p3120
sg19
g146
sg21
I563
ssg137
I0
sg1923
I1
sg1924
I0
sg1925
g1926
sg149
I0
sg1927
I1
ssg19
g77
sg21
I562
sssg1966
I256
sS'_orig_data_range'
p3121
(dp3122
g18
S'H4sIAOT1H04C/2tgSs4rzS2o1EvOL0rVyy3NKclMLCpKrOSKL0pNzs8rLikqTS7hKmSEqOLKS4HI\nFjJ5M7SGMia1BxUya3gzejO1QhWklFQWpHIVsoQypVl4M3gzAhWwangzhzLa+Pn5ef0HAjDhzVCS\n1BkqwIACPtiXJOkBAIHIRA6RAAAA\n'
p3123
sg19
g146
sg21
I554
ssg205
Nsg1998
I00
sg19
S''
sS'scalar_bar_representation'
p3124
(dp3125
g2
(lp3126
((g4
g5
tI-1
tp3127
a((g7
g5
tI-1
tp3128
a((g100
g101
tI-1
tp3129
a((g103
g104
tI-1
tp3130
a((g106
g107
tI-1
tp3131
a((g173
g174
tI-1
tp3132
a((g2009
g2010
tI-1
tp3133
a((g2012
g2013
tI-1
tp3134
a((g2015
g2016
tI-1
tp3135
asg15
g2015
sg16
(dp3136
g18
Nsg19
g48
sg21
I21
ssg19
g22
sg21
I555
sg23
g2016
sg18
(dp3137
g18
(dp3138
g190
I1
sg2021
I0
sg193
I1
sg195
I1
sg2022
g2023
sg197
I1
sg2024
I2
sg2025
I0
sg2026
I0
sg2027
(dp3139
g18
S'H4sIAOT1H04C/2tgSs4rzS2o1EvOL0rVyy3NKclMLCpKrOSKL0pNzs8rLikqTS7hKmSEqOLKS4HI\nFjJ5M7SGMia1BxUya3gzejO1QhWklFQWpHIVsoQypVl4M3gzAhWwangzhzLa+Pn5ef0HAjDhzVCS\n1BkqcPirRkz/oaP2s2aCwEv7kiQ9AC+e0nyRAAAA\n'
p3140
sg19
g146
sg21
I558
ssg2030
I0
sg2031
(dp3141
g18
S'H4sIAOT1H04C/2tgSs4rzS2o1EvOL0rVyy3NKclMLCpKrOSKL0pNzs8rLikqTS7hKmSEqOLKS4HI\nFjJ5M7SGMia1BxUya3gzejO1QhWklFQWpHIVsoQyZZp4M3gzAhWwangzhzLa+Pn5ef0HAjDhzVCS\n1BnKsaCNkQGES5L0ALP9TXGJAAAA\n'
p3142
sg19
g146
sg21
I560
ssg201
I1
sg510
I3
sg2034
(dp3143
g18
S'H4sIAOT1H04C/2tgSs4rzS2o1EvOL0rVyy3NKclMLCpKrOSKL0pNzs8rLikqTS7hKmSEqOLKS4HI\nFjJ5M7SGMia1BxUya3gzejO1QhWklFQWpHIVsoQyZZp4M3gzAhWwangzhzLa+Pn5ef0HAjDhzVCS\n1BnKwcjAwADCJUl6AJHzi6mJAAAA\n'
p3144
sg19
g146
sg21
I557
ssg194
I1
sg196
I1
sg149
I0
sg2037
I0
sg2038
F0.5
sg2039
I0
sg155
I0
sg137
I0
sg198
(dp3145
g18
S'H4sIAOT1H04C/2tgSs4rzS2o1EvOL0rVyy3NKclMLCpKrOSKL0pNzs8rLikqTS7hKmSEqOLKS4HI\nFjJ5M7SGMia1BxUya3gzejO1QhWklFQWpHIVsoQypVl4M3gzAhWwangzhzLa+Pn5ef0HAjDhzVCS\n1BkqYMt1fXGB7Sv7WTNBYKd9SZIeADd4AQGRAAAA\n'
p3146
sg19
g146
sg21
I559
ssg2042
F0.01
ssg19
g77
sg21
I556
sssg2043
(dp3147
g2
(lp3148
((g4
g5
tI-1
tp3149
a((g7
g5
tI-1
tp3150
a((g100
g101
tI-1
tp3151
a((g103
g104
tI-1
tp3152
a((g106
g107
tI-1
tp3153
a((g580
g581
tI-1
tp3154
a((g2052
g2053
tI-1
tp3155
a((g2055
g2056
tI-1
tp3156
a((g2058
g2059
tI-1
tp3157
asg15
g2058
sg16
(dp3158
g18
Nsg19
g48
sg21
I21
ssg19
g22
sg21
I552
sg23
g2059
sg18
(dp3159
g18
(dp3160
g2064
I1
sg589
S'i'
sg2065
I1
sg149
I0
sg137
I0
sg590
I0
sg593
I0
sg155
I0
sg2066
I1
sg592
F0.5
sg2067
I1
sg2068
I1
sg2069
I1
sg594
I0
sg2070
I1
sg2071
I0
sg2072
I0
sg595
I0
sg2073
I1
ssg19
g77
sg21
I553
sssg2074
I00
sg1924
I00
sg2075
g2613
sg2077
I01
sg56
S''
sg2079
I8
sg2080
(dp3161
g18
Nsg19
g48
sg21
I543
ssg2082
g2083
sg203
S''
sg2084
I01
sg2085
(dp3162
g2
(lp3163
((g4
g5
tI-1
tp3164
a((g7
g5
tI-1
tp3165
a((g100
g101
tI-1
tp3166
a((g103
g104
tI-1
tp3167
a((g106
g107
tI-1
tp3168
a((g173
g174
tI-1
tp3169
a((g2094
g2095
tI-1
tp3170
a((g2097
g2098
tI-1
tp3171
asg15
g2097
sg16
(dp3172
g18
Nsg19
g48
sg21
I21
ssg19
g22
sg21
I564
sg23
g2098
sg18
(dp3173
g18
(dp3174
g190
g2103
sg193
I1
sg2104
F0.17000000000000001
sg197
I1
sg2105
I0
sg2106
S'No vectors'
p3175
sg2108
S'%-#6.3g'
p3176
sg2110
F0.80000000000000004
sg2111
F10
sg2112
g2113
sg201
I1
sg2114
I0
sg194
I1
sg196
I1
sg149
I0
sg2115
I256
sg2116
I1
sg195
I1
sg2079
I8
sg155
I0
sg2027
(dp3177
g18
S'H4sIAOT1H04C/2tgSs4rzS2o1EvOL0rVyy3NKclMLCpKrOSKL0pNzs8rLikqTS7hKmSEqOLKS4HI\nFjJ5M7SGMia1BxUya3gzejO1QhWklFQWpHIVsoQypVl4M3gzAhWwangzhzLa+Pn5ef0HAjDhzVCS\n1BkqMGsmCLy0P/xVI6b/0FH7kiQ9AGpIg++RAAAA\n'
p3178
sg19
g146
sg21
I567
ssg2119
I0
sg137
I0
sg198
(dp3179
g18
S'H4sIAOT1H04C/2tgSs4rzS2o1EvOL0rVyy3NKclMLCpKrOSKL0pNzs8rLikqTS7hKmSEqOLKS4HI\nFjJ5M7SGMia1BxUya3gzejO1QhWklFQWpHIVsoQypVl4M3gzAhWwangzhzLa+Pn5ef0HAjDhzVCS\n1BkqMGsmCOy0rxZZ5/6wqsW+JEkPAHMFfKeRAAAA\n'
p3180
sg19
g146
sg21
I566
sssg19
g77
sg21
I565
ssssg19
g77
sg21
I539
sssg203
S''
sg2122
(dp3181
g2
(lp3182
((g4
g5
tI-1
tp3183
a((g30
g5
tI-1
tp3184
a((g32
g33
tI-1
tp3185
a((g35
g36
tI0
tp3186
a((g1889
g1890
tI0
tp3187
asg15
g1889
sg16
(dp3188
g18
Nsg19
g48
sg21
I1
ssg19
g22
sg21
I602
sg23
g1890
sg18
(dp3189
g18
(dp3190
g1895
(dp3191
g2
(lp3192
((g4
g5
tI-1
tp3193
a((g7
g5
tI-1
tp3194
a((g100
g101
tI-1
tp3195
a((g103
g104
tI-1
tp3196
a((g106
g107
tI-1
tp3197
a((g1903
g1904
tI-1
tp3198
asg15
g1903
sg16
(dp3199
g18
Nsg19
g48
sg21
I21
ssg19
g22
sg21
I604
sg23
g1904
sg18
(dp3200
g18
(dp3201
g235
F1
sg1909
g1910
sg1911
I12
sg190
F0
sg1912
F0
sg1913
I1
sg1914
g1915
sg1916
I0
sg155
I0
sg1917
F1.1000000000000001
sg800
(dp3202
g18
Nsg19
g48
sg21
I41
ssg1919
I1
sg1920
(dp3203
g18
S'H4sIAOT1H04C/2tgSs4rzS2o1EvOL0rVyy3NKclMLCpKrOSKL0pNzs8rLikqTS7hKmSEqOLKS4HI\nFjJ5M7SGMia1BxUya3gzejO1QhWklFQWpHIVsoQyZZp4M3gzAhWwangzhzLa+Pn5ef0HAjDhzVCS\n1BnKwcjAwADiliTpAQCk2G9tiQAAAA==\n'
p3204
sg19
g146
sg21
I606
ssg137
I0
sg1923
I1
sg1924
I0
sg1925
g1926
sg149
I0
sg1927
I1
ssg19
g77
sg21
I605
sssg3080
S''
sg1929
S'point_scalars'
p3205
sg202
I01
sg1932
(dp3206
g18
S'H4sIAOT1H04C/2tgSs4rzS2o1EvOL0rVyy3NKclMLCpKrOSKL0pNzs8rLikqTS7hKmSEqOLKS4HI\nFjJ5M7SGMia1BxUya3gzejO1QhWklFQWpHIVsoQypVl4M3gzAhWwangzhzLa+Pn5ef0HAjDhzVCS\n1BkqwMDAkHDwDZ8DjC5J0gMABe4D+pEAAAA=\n'
p3207
sg19
g146
sg21
I607
ssg1935
(dp3208
g2
(lp3209
((g4
g5
tI-1
tp3210
a((g7
g5
tI-1
tp3211
a((g100
g101
tI-1
tp3212
a((g103
g104
tI-1
tp3213
a((g106
g107
tI-1
tp3214
a((g1943
g1944
tI-1
tp3215
a((g1946
g1947
tI-1
tp3216
asg15
g1946
sg16
(dp3217
g18
Nsg19
g48
sg21
I21
ssg19
g22
sg21
I608
sg23
g1947
sg18
(dp3218
g18
(dp3219
g1952
I2
sg187
g1953
sg1954
(dp3220
g18
S'H4sIAOT1H04C/2tgSs4rzS2o1EvOL0rVyy3NKclMLCpKrOSKL0pNzs8rLikqTS7hKmSEqOLKS4HI\nFjJ5M7SGMia1BxUya3gzejO1QhWklFQWpHIVsoQypVl4M3gzAhWwangzhzLa+Pn5ef0HAjDhzVCS\n1BkqwAAGH+xhdEmSHgBnOGdykQAAAA==\n'
p3221
sg19
g146
sg21
I610
ssg1957
(dp3222
g18
S'H4sIAOT1H04C/2tgSs4rzS2o1EvOL0rVyy3NKclMLCpKrOSKL0pNzs8rLikqTS7hKmSEqOLKS4HI\nFjJ5M7SGMia1BxUya3gzejO1QhWklFQWpHIVsoQypVl4M3gzAhWwangzhzLa+Pn5ef0HAjDhzVCS\n1BkqwMDAkHDwDZ8DjC5J0gMABe4D+pEAAAA=\n'
p3223
sg19
g146
sg21
I612
ssg1960
(dp3224
g18
S'H4sIAOT1H04C/2tgSs4rzS2o1EvOL0rVyy3NKclMLCpKrOSKL0pNzs8rLikqTS7hKmSEqOLKS4HI\nFjJ5M7SGMia1BxUya3gzejO1QhWklFQWpHIVsoQypVl4M3gzAhWwangzhzLa+Pn5ef0HAjDhzVCS\n1Bkq4H2C3XZ26FN7BigoSdIDAObNAnCRAAAA\n'
p3225
sg19
g146
sg21
I611
ssg1963
I256
sg1964
g1965
sg155
I0
sg1966
I256
sg1967
(dp3226
g18
S'H4sIAOT1H04C/2tgSs4rzS2o1EvOL0rVyy3NKclMLCpKrOSKL0pNzs8rLikqTS7hKmSEqOLKS4HI\nFjJ5M7SGMia1BxUya3gzejO1QhWklFQWpHIVsoQypVl4M3gzAhWwangzhzLa+Pn5ef0HAjDhzVCS\n1BkqwAAGH+xhdEmSHgBnOGdykQAAAA==\n'
p3227
sg19
g146
sg21
I613
ssg1970
(dp3228
g18
S'H4sIAOT1H04C/2tgSs4rzS2o1EvOL0rVyy3NKclMLCpKrOSKL0pNzs8rLikqTS7hKmSEqOLKS4HI\nFjJ5M7SGMia1BxUya3gzejO1QhWklFQWpHIVsoQypVl4M3gzAhWwangzhzLa+Pn5ef0HAjDhzVCS\n1BkqwMDAkHDwDZ8DjC5J0gMABe4D+pEAAAA=\n'
p3229
sg19
g146
sg21
I614
ssg1973
I0
sg1974
(dp3230
g18
S'H4sIAOT1H04C/2tgSs4rzS2o1EvOL0rVyy3NKclMLCpKrOSKL0pNzs8rLikqTS7hKmSEqOLKS4HI\nFjJ5M7SGMia1BxUya3gzejO1QhWklFQWpHIVsoQypVl4M3gzAhWwangzhzLa+Pn5ef0HAjDhzVCS\n1BkqwAAGH+xhdEmSHgBnOGdykQAAAA==\n'
p3231
sg19
g146
sg21
I615
ssg137
I0
sg1977
F1
sg1978
g1979
sg149
I0
ssg19
g77
sg21
I609
sssg1980
(dp3232
g2
(lp3233
((g4
g5
tI-1
tp3234
a((g7
g5
tI-1
tp3235
a((g100
g101
tI-1
tp3236
a((g103
g104
tI-1
tp3237
a((g106
g107
tI-1
tp3238
a((g1903
g1904
tI-1
tp3239
asg15
g1903
sg16
(dp3240
g18
Nsg19
g48
sg21
I21
ssg19
g22
sg21
I625
sg23
g1904
sg18
(dp3241
g18
(dp3242
g235
F1
sg1909
g1910
sg1911
I12
sg190
F0
sg1912
F0
sg1913
I1
sg1914
g1915
sg1916
I0
sg155
I0
sg1917
F1.1000000000000001
sg800
(dp3243
g18
Nsg19
g48
sg21
I41
ssg1919
I1
sg1920
(dp3244
g18
S'H4sIAOT1H04C/2tgSs4rzS2o1EvOL0rVyy3NKclMLCpKrOSKL0pNzs8rLikqTS7hKmSEqOLKS4HI\nFjJ5M7SGMia1BxUya3gzejO1QhWklFQWpHIVsoQyZZp4M3gzAhWwangzhzLa+Pn5ef0HAjDhzVCS\n1BnKwcjAwADiliTpAQCk2G9tiQAAAA==\n'
p3245
sg19
g146
sg21
I627
ssg137
I0
sg1923
I1
sg1924
I0
sg1925
g1926
sg149
I0
sg1927
I1
ssg19
g77
sg21
I626
sssg1966
I256
sg3121
(dp3246
g18
S'H4sIAOT1H04C/2tgSs4rzS2o1EvOL0rVyy3NKclMLCpKrOSKL0pNzs8rLikqTS7hKmSEqOLKS4HI\nFjJ5M7SGMia1BxUya3gzejO1QhWklFQWpHIVsoQypVl4M3gzAhWwangzhzLa+Pn5ef0HAjDhzVCS\n1BkqwIACPtiXJOkBAIHIRA6RAAAA\n'
p3247
sg19
g146
sg21
I618
ssg205
Nsg1998
I00
sg19
S''
sg3124
(dp3248
g2
(lp3249
((g4
g5
tI-1
tp3250
a((g7
g5
tI-1
tp3251
a((g100
g101
tI-1
tp3252
a((g103
g104
tI-1
tp3253
a((g106
g107
tI-1
tp3254
a((g173
g174
tI-1
tp3255
a((g2009
g2010
tI-1
tp3256
a((g2012
g2013
tI-1
tp3257
a((g2015
g2016
tI-1
tp3258
asg15
g2015
sg16
(dp3259
g18
Nsg19
g48
sg21
I21
ssg19
g22
sg21
I619
sg23
g2016
sg18
(dp3260
g18
(dp3261
g190
I1
sg2021
I0
sg193
I1
sg195
I1
sg2022
g2023
sg197
I1
sg2024
I2
sg2025
I0
sg2026
I0
sg2027
(dp3262
g18
S'H4sIAOT1H04C/2tgSs4rzS2o1EvOL0rVyy3NKclMLCpKrOSKL0pNzs8rLikqTS7hKmSEqOLKS4HI\nFjJ5M7SGMia1BxUya3gzejO1QhWklFQWpHIVsoQypVl4M3gzAhWwangzhzLa+Pn5ef0HAjDhzVCS\n1BkqcPirRkz/oaP2s2aCwEv7kiQ9AC+e0nyRAAAA\n'
p3263
sg19
g146
sg21
I622
ssg2030
I0
sg2031
(dp3264
g18
S'H4sIAOT1H04C/2tgSs4rzS2o1EvOL0rVyy3NKclMLCpKrOSKL0pNzs8rLikqTS7hKmSEqOLKS4HI\nFjJ5M7SGMia1BxUya3gzejO1QhWklFQWpHIVsoQyZZp4M3gzAhWwangzhzLa+Pn5ef0HAjDhzVCS\n1BnKsaCNkQGES5L0ALP9TXGJAAAA\n'
p3265
sg19
g146
sg21
I624
ssg201
I1
sg510
I3
sg2034
(dp3266
g18
S'H4sIAOT1H04C/2tgSs4rzS2o1EvOL0rVyy3NKclMLCpKrOSKL0pNzs8rLikqTS7hKmSEqOLKS4HI\nFjJ5M7SGMia1BxUya3gzejO1QhWklFQWpHIVsoQyZZp4M3gzAhWwangzhzLa+Pn5ef0HAjDhzVCS\n1BnKwcjAwADCJUl6AJHzi6mJAAAA\n'
p3267
sg19
g146
sg21
I621
ssg194
I1
sg196
I1
sg149
I0
sg2037
I0
sg2038
F0.5
sg2039
I0
sg155
I0
sg137
I0
sg198
(dp3268
g18
S'H4sIAOT1H04C/2tgSs4rzS2o1EvOL0rVyy3NKclMLCpKrOSKL0pNzs8rLikqTS7hKmSEqOLKS4HI\nFjJ5M7SGMia1BxUya3gzejO1QhWklFQWpHIVsoQypVl4M3gzAhWwangzhzLa+Pn5ef0HAjDhzVCS\n1BkqYMt1fXGB7Sv7WTNBYKd9SZIeADd4AQGRAAAA\n'
p3269
sg19
g146
sg21
I623
ssg2042
F0.01
ssg19
g77
sg21
I620
sssg2043
(dp3270
g2
(lp3271
((g4
g5
tI-1
tp3272
a((g7
g5
tI-1
tp3273
a((g100
g101
tI-1
tp3274
a((g103
g104
tI-1
tp3275
a((g106
g107
tI-1
tp3276
a((g580
g581
tI-1
tp3277
a((g2052
g2053
tI-1
tp3278
a((g2055
g2056
tI-1
tp3279
a((g2058
g2059
tI-1
tp3280
asg15
g2058
sg16
(dp3281
g18
Nsg19
g48
sg21
I21
ssg19
g22
sg21
I616
sg23
g2059
sg18
(dp3282
g18
(dp3283
g2064
I1
sg589
S'i'
sg2065
I1
sg149
I0
sg137
I0
sg590
I0
sg593
I0
sg155
I0
sg2066
I1
sg592
F0.5
sg2067
I1
sg2068
I1
sg2069
I1
sg594
I0
sg2070
I1
sg2071
I0
sg2072
I0
sg595
I0
sg2073
I1
ssg19
g77
sg21
I617
sssg2074
I00
sg1924
I00
sg2075
g2613
sg2077
I01
sg56
S''
sg2079
I8
sg2080
(dp3284
g18
Nsg19
g48
sg21
I607
ssg2082
S'point_scalars'
p3285
sg203
S''
sg2084
I01
sg2085
(dp3286
g2
(lp3287
((g4
g5
tI-1
tp3288
a((g7
g5
tI-1
tp3289
a((g100
g101
tI-1
tp3290
a((g103
g104
tI-1
tp3291
a((g106
g107
tI-1
tp3292
a((g173
g174
tI-1
tp3293
a((g2094
g2095
tI-1
tp3294
a((g2097
g2098
tI-1
tp3295
asg15
g2097
sg16
(dp3296
g18
Nsg19
g48
sg21
I21
ssg19
g22
sg21
I628
sg23
g2098
sg18
(dp3297
g18
(dp3298
g190
g2103
sg193
I1
sg2104
F0.17000000000000001
sg197
I1
sg2105
I0
sg2106
S'point_scalars'
p3299
sg2108
S'%-#6.3g'
p3300
sg2110
F0.80000000000000004
sg2111
F10
sg2112
g2113
sg201
I1
sg2114
I0
sg194
I1
sg196
I1
sg149
I0
sg2115
I256
sg2116
I1
sg195
I1
sg2079
I8
sg155
I0
sg2027
(dp3301
g18
S'H4sIAOT1H04C/2tgSs4rzS2o1EvOL0rVyy3NKclMLCpKrOSKL0pNzs8rLikqTS7hKmSEqOLKS4HI\nFjJ5M7SGMia1BxUya3gzejO1QhWklFQWpHIVsoQypVl4M3gzAhWwangzhzLa+Pn5ef0HAjDhzVCS\n1BkqMGsmCLy0P/xVI6b/0FH7kiQ9AGpIg++RAAAA\n'
p3302
sg19
g146
sg21
I631
ssg2119
I0
sg137
I0
sg198
(dp3303
g18
S'H4sIAOT1H04C/2tgSs4rzS2o1EvOL0rVyy3NKclMLCpKrOSKL0pNzs8rLikqTS7hKmSEqOLKS4HI\nFjJ5M7SGMia1BxUya3gzejO1QhWklFQWpHIVsoQypVl4M3gzAhWwangzhzLa+Pn5ef0HAjDhzVCS\n1BkqMGsmCOy0rxZZ5/6wqsW+JEkPAHMFfKeRAAAA\n'
p3304
sg19
g146
sg21
I630
sssg19
g77
sg21
I629
ssssg19
g77
sg21
I603
sssg19
S' colors and legends'
p3305
sg1046
(dp3306
g18
(lp3307
(dp3308
g2
(lp3309
((g4
g5
tI-1
tp3310
a((g30
g5
tI-1
tp3311
a((g32
g33
tI-1
tp3312
a((g35
g36
tI0
tp3313
a((g38
g39
tI0
tp3314
a((g41
g42
tI0
tp3315
a((S'Outline'
p3316
S'enthought.mayavi.modules.outline'
p3317
tI0
tp3318
asg15
g3316
sg16
(dp3319
g18
Nsg19
g48
sg21
I1
ssg19
g22
sg21
I569
sg23
g3317
sg18
(dp3320
g18
(dp3321
g2267
(dp3322
g18
Nsg19
g48
sg21
I5
ssg2263
(dp3323
g18
(lp3324
sg19
g55
sg21
I571
ssg56
S'Outline'
p3325
sS'_full_outline'
p3326
(dp3327
g2
(lp3328
((g4
g5
tI-1
tp3329
a((g7
g5
tI-1
tp3330
a((g100
g101
tI-1
tp3331
a((g103
g104
tI-1
tp3332
a((g106
g107
tI-1
tp3333
a((g109
g110
tI-1
tp3334
a((g300
g301
tI-1
tp3335
a((S'OutlineFilter'
p3336
S'tvtk_classes.outline_filter'
p3337
tI-1
tp3338
asg15
g3336
sg16
(dp3339
g18
Nsg19
g48
sg21
I21
ssg19
g22
sg21
I600
sg23
g3337
sg18
(dp3340
g18
(dp3341
g153
I0
sg147
Nsg158
I0
sg155
I0
sg149
I0
sg140
I0
sg141
I0
sg137
I0
sg142
F1
ssg19
g77
sg21
I601
sssS'manual_bounds'
p3342
I00
sg2321
(dp3343
g2
(lp3344
((g4
g5
tI-1
tp3345
a((g61
g62
tI-1
tp3346
asg15
g61
sg16
(dp3347
g18
Nsg19
g48
sg21
I1
ssg19
g22
sg21
I593
sg23
g62
sg18
(dp3348
g18
(dp3349
g67
(dp3350
g18
(lp3351
g263
asg19
g55
sg21
I595
ssg70
(dp3352
g18
(lp3353
g263
asg19
g55
sg21
I596
ssg74
(dp3354
g18
(lp3355
g263
asg19
g55
sg21
I597
sssg19
g77
sg21
I594
sssg78
(dp3356
g2
(lp3357
((g4
g5
tI-1
tp3358
a((g30
g5
tI-1
tp3359
a((g32
g33
tI-1
tp3360
a((g35
g36
tI0
tp3361
a((g38
g39
tI0
tp3362
a((g86
g87
tI0
tp3363
a((g89
g90
tI0
tp3364
asg15
g89
sg16
(dp3365
g18
Nsg19
g48
sg21
I1
ssg19
g22
sg21
I572
sg23
g90
sg18
(dp3366
g18
(dp3367
g95
(dp3368
g2
(lp3369
((g4
g5
tI-1
tp3370
a((g7
g5
tI-1
tp3371
a((g100
g101
tI-1
tp3372
a((g103
g104
tI-1
tp3373
a((g106
g107
tI-1
tp3374
a((g109
g110
tI-1
tp3375
a((g112
g113
tI-1
tp3376
a((g115
g116
tI-1
tp3377
a((g118
g119
tI-1
tp3378
a((g419
g420
tI-1
tp3379
asg15
g419
sg16
(dp3380
g18
Nsg19
g48
sg21
I21
ssg19
g22
sg21
I581
sg23
g420
sg18
(dp3381
g18
(dp3382
g127
I0
sg128
I0
sg129
g135
sg131
I0
sg155
I0
sg133
F0.01
sg425
I0
sg134
g135
sg136
I0
sg137
I0
sg138
I0
sg139
I1
sg140
I0
sg141
I0
sg142
F1
sg143
(dp3383
g18
S'H4sIAOT1H04C/2tgSs4rzS2o1EvOL0rVyy3NKclMLCpKrOSKL0pNzs8rLikqTS7hKmSEqOLKS4HI\nFjJ5M7SGMia1BxUya3gzejO1QhWklFQWpHIVsoQypVl4M3gzAhWwangzhzLa+Pn5ef0HAjDhzVCS\n1BkqwIACPtiXJOkBAIHIRA6RAAAA\n'
p3384
sg19
g146
sg21
I583
ssg147
Nsg148
I1
sg149
I0
sg151
I0
sg152
I1
sg153
I0
sg154
I1
sg132
I0
sg160
I0
sg156
I0
sg159
F0
sg428
I1
sg157
g135
sg158
I0
sg429
I0
sg430
I1
sg161
g162
sg163
I1
ssg19
g77
sg21
I582
sssg2263
(dp3385
g18
(lp3386
sg19
g55
sg21
I574
ssg2078
S''
sg2267
Nsg78
(dp3387
g2
(lp3388
((g4
g5
tI-1
tp3389
a((g7
g5
tI-1
tp3390
a((g100
g101
tI-1
tp3391
a((g103
g104
tI-1
tp3392
a((g106
g107
tI-1
tp3393
a((g173
g174
tI-1
tp3394
a((g176
g177
tI-1
tp3395
a((g89
g179
tI-1
tp3396
asg15
g89
sg16
(dp3397
g18
Nsg19
g48
sg21
I21
ssg19
g22
sg21
I575
sg23
g179
sg18
(dp3398
g18
(dp3399
g184
(dp3400
g18
S'H4sIAOT1H04C/2tgSs4rzS2o1EvOL0rVyy3NKclMLCpKrOSKL0pNzs8rLikqTS7hKmSEqOLKS4HI\nFjJ5M7SGMia1BxUya3gzejO3QhWklFQWpHIVsoQypVl4M3gzAhWwangzhzLa+Pn5ef0HAjDhzVCS\n1BkqwYADlCTpAQD67GqfmQAAAA==\n'
p3401
sg19
g146
sg21
I577
ssg187
(dp3402
g18
S'H4sIAOT1H04C/2tgSs4rzS2o1EvOL0rVyy3NKclMLCpKrOSKL0pNzs8rLikqTS7hKmSEqOLKS4HI\nFjJ5M7SGMia1BxUya3gzejO3QhWklFQWpHIVsoQypVl4M3gzAhWwangzhzLa+Pn5ef0HAjDhzVCS\n1BkqwQAGH+zR6ZIkPQDfyO6fmQAAAA==\n'
p3403
sg19
g146
sg21
I579
ssg190
(dp3404
g18
S'H4sIAOT1H04C/2tgSs4rzS2o1EvOL0rVyy3NKclMLCpKrOSKL0pNzs8rLikqTS7hKmSEqOLKS4HI\nFjJ5M7SGMia1BxUya3gzejO3QhWklFQWpHIVsoQypVl4M3gzAhWwangzhzLa+Pn5ef0HAjDhzVCS\n1BkqwYAKGmCMkiQ9ABqDrf+ZAAAA\n'
p3405
sg19
g146
sg21
I578
ssg137
I0
sg193
I1
sg194
I1
sg195
I1
sg196
I1
sg149
I0
sg155
I0
sg197
I1
sg198
(dp3406
g18
S'H4sIAOT1H04C/2tgSs4rzS2o1EvOL0rVyy3NKclMLCpKrOSKL0pNzs8rLikqTS7hKmSEqOLKS4HI\nFjJ5M7SGMia1BxUya3gzejO3QhWklFQWpHIVsoQypVl4M3gzAhWwangzhzLa+Pn5ef0HAjDhzVCS\n1BkqwYADlCTpAQD67GqfmQAAAA==\n'
p3407
sg19
g146
sg21
I580
ssg201
I1
ssg19
g77
sg21
I576
sssg202
I01
sg203
S''
sg2321
Nsg1863
Nsg206
(dp3408
g2
(lp3409
((g4
g5
tI-1
tp3410
a((g7
g5
tI-1
tp3411
a((g100
g101
tI-1
tp3412
a((g103
g104
tI-1
tp3413
a((g106
g107
tI-1
tp3414
a((g214
g215
tI-1
tp3415
a((g217
g218
tI-1
tp3416
asg15
g217
sg16
(dp3417
g18
Nsg19
g48
sg21
I21
ssg19
g22
sg21
I584
sg23
g218
sg18
(dp3418
g18
(dp3419
g223
(dp3420
g18
Nsg19
g48
sg21
I41
ssg226
I0
sg227
F1
sg228
(dp3421
g18
Nsg19
g48
sg21
I40
ssg231
F0
sg232
I0
sg233
g234
sg235
F1
sg236
I0
sg237
F1
sg238
(dp3422
g18
Nsg19
g48
sg21
I41
ssg240
(dp3423
g18
Nsg19
g48
sg21
I41
ssg242
I0
sg149
I0
sg243
I0
sg244
I0
sg245
F1
sg246
I0
sg155
I0
sg247
F0
sg248
I0
sg249
I65535
sg137
I0
sg250
g251
sg252
I1
sg253
F1
ssg19
g77
sg21
I585
sssg1999
S''
ssg19
g77
sg21
I573
sssS'outline_mode'
p3424
S'cornered'
p3425
sg202
I01
sg203
S''
sS'outline_source'
p3426
(dp3427
g2
(lp3428
((g4
g5
tI-1
tp3429
a((g7
g5
tI-1
tp3430
a((g100
g101
tI-1
tp3431
a((g103
g104
tI-1
tp3432
a((g106
g107
tI-1
tp3433
a((g109
g110
tI-1
tp3434
a((g300
g301
tI-1
tp3435
a((S'OutlineSource'
p3436
S'tvtk_classes.outline_source'
p3437
tI-1
tp3438
asg15
g3436
sg16
(dp3439
g18
Nsg19
g48
sg21
I21
ssg19
g22
sg21
I586
sg23
g3437
sg18
(dp3440
g18
(dp3441
g137
I0
sg153
I0
sg147
NsS'bounds'
p3442
(dp3443
g18
S'H4sIAOT1H04C/2tgSs4rzS2o1EvOL0rVyy3NKclMLCpKrOSKL0pNzs8rLikqTS7hKmSEqOLKS4HI\nFjJ5M7SGMia1BxUya3gzerO1QhWklFQWpHIVsoQypVl4M3gzAhWwangzhzLa+Pn5ef0HAjDhzVCS\n1BlqwAAGH/ZDaXtC/JIkPQAkJDhIsQAAAA==\n'
p3444
sg19
g146
sg21
I589
ssg155
I0
sg149
I0
sg140
I0
sS'box_type'
p3445
S'axis_aligned'
p3446
sg141
I0
sS'corners'
p3447
(dp3448
g18
S'H4sIAOT1H04C/2tgSs4rzS2o1EvOL0rVyy3NKclMLCpKrOSKL0pNzs8rLikqTS7hKmSEqOLKS4HI\nFjJ5M7SGMia1BxUya3gzeku0QhWklFQWpHIVsoQypVl4M3gzAhWwangzhzLa+Pn5ef0HAjDhzVCS\n1Bl6gAEv+GBPmjyMT6w+XPpxqcOkS5L0ACNCKiRBAQAA\n'
p3449
sg19
g146
sg21
I588
ssg158
I0
sg142
F0
ssg19
g77
sg21
I587
sssS'_cornered_outline'
p3450
(dp3451
g2
(lp3452
((g4
g5
tI-1
tp3453
a((g7
g5
tI-1
tp3454
a((g100
g101
tI-1
tp3455
a((g103
g104
tI-1
tp3456
a((g106
g107
tI-1
tp3457
a((g109
g110
tI-1
tp3458
a((g300
g301
tI-1
tp3459
a((S'OutlineCornerFilter'
p3460
S'tvtk_classes.outline_corner_filter'
p3461
tI-1
tp3462
asg15
g3460
sg16
(dp3463
g18
Nsg19
g48
sg21
I21
ssg19
g22
sg21
I598
sg23
g3461
sg18
(dp3464
g18
(dp3465
S'corner_factor'
p3466
F0.20000000000000001
sg153
I0
sg147
Nsg158
I0
sg155
I0
sg149
I0
sg140
I0
sg141
I0
sg137
I0
sg142
F1
ssg19
g77
sg21
I599
sssg1863
NsS'__listener_traits__'
p3467
(dp3468
g18
(dp3469
g3442
(dp3470
g2
(lp3471
sg15
S'function'
p3472
sg16
(dp3473
g18
Nsg19
g48
sg21
I1
ssg19
g22
sg21
I591
sg23
S'__builtin__'
p3474
sg18
(dp3475
g18
(dp3476
sg19
g77
sg21
I592
ssssg19
g77
sg21
I590
ssg1999
g2339
sg348
g2388
ssg19
g77
sg21
I570
ssasg19
g55
sg21
I568
ssg348
g2389
ssg19
g77
sg21
I537
ssasg19
g55
sg21
I535
ssg348
g2892
ssg19
g77
sg21
I519
ssa(dp3477
g2
(lp3478
((g4
g5
tI-1
tp3479
a((g30
g5
tI-1
tp3480
a((g32
g33
tI-1
tp3481
a((g35
g36
tI0
tp3482
a((g38
g39
tI0
tp3483
a((g1543
g1544
tI0
tp3484
a((g2398
g2399
tI0
tp3485
a((S'FilterBase'
p3486
S'enthought.mayavi.filters.filter_base'
p3487
tI0
tp3488
a((S'GaussianSplatter'
p3489
S'enthought.mayavi.filters.gaussian_splatter'
p3490
tI0
tp3491
asg15
g3489
sg16
(dp3492
g18
Nsg19
g48
sg21
I1
ssg19
g22
sg21
I637
sg23
g3490
sg18
(dp3493
g18
(dp3494
g56
g3489
sg57
(dp3495
g2
(lp3496
((g4
g5
tI-1
tp3497
a((g61
g62
tI-1
tp3498
asg15
g61
sg16
(dp3499
g18
Nsg19
g48
sg21
I1
ssg19
g22
sg21
I707
sg23
g62
sg18
(dp3500
g18
(dp3501
g67
(dp3502
g18
(lp3503
S'any'
p3504
asg19
g55
sg21
I709
ssg70
(dp3505
g18
(lp3506
S'image_data'
p3507
asg19
g55
sg21
I710
ssg74
(dp3508
g18
(lp3509
g3504
asg19
g55
sg21
I711
sssg19
g77
sg21
I708
sssg2478
(dp3510
g2
(lp3511
((g4
g5
tI-1
tp3512
a((g7
g5
tI-1
tp3513
a((g100
g101
tI-1
tp3514
a((g103
g104
tI-1
tp3515
a((g106
g107
tI-1
tp3516
a((g109
g110
tI-1
tp3517
a((S'ImageAlgorithm'
p3518
S'tvtk_classes.image_algorithm'
p3519
tI-1
tp3520
a((g3489
S'tvtk_classes.gaussian_splatter'
p3521
tI-1
tp3522
asg15
g3489
sg16
(dp3523
g18
Nsg19
g48
sg21
I21
ssg19
g22
sg21
I703
sg23
g3521
sg18
(dp3524
g18
(dp3525
S'scalar_warping_'
p3526
I1
sg1727
F0.10000000000000001
sS'capping'
p3527
I1
sS'accumulation_mode'
p3528
S'min'
p3529
sS'normal_warping_'
p3530
I1
sg137
I0
sS'accumulation_mode_'
p3531
I0
sg147
Nsg140
I0
sg141
I0
sS'null_value'
p3532
F0
sg142
F1
sg551
F1
sS'scalar_warping'
p3533
I1
sS'eccentricity'
p3534
F3.1919947000000004
sS'normal_warping'
p3535
I1
sS'model_bounds'
p3536
(dp3537
g18
S'H4sIAOX1H04C/2tgSs4rzS2o1EvOL0rVyy3NKclMLCpKrOSKL0pNzs8rLikqTS7hKmSEqOLKS4HI\nFjJ5M7SGMia1BxUya3gzerO1QhWklFQWpHIVsoQypVl4M3gzAhWwangzhzLa+Pn5ef0HAjDhzVCS\n1BlqwAAGGgegtMOJ/2CwH8I3cwASX2pv/QPxCzYEKjuUJOkBADJydJGxAAAA\n'
p3538
sg19
g146
sg21
I706
ssg149
I0
sg153
I0
sg155
I0
sS'sample_dimensions'
p3539
(dp3540
g18
S'H4sIAOX1H04C/2tgSs4rzS2o1EvOL0rVyy3NKclMLCpKrOSKL0pNzs8rLikqTS7hKmSEqOLKS4HI\nFjJ5M7SGMia1BxUya3gzejO3QhWklFQWpHIVsoQyZZp4M3gzAhWwangzhzLa+Pn5ef0HAjDhzVCS\n1BnKY8TAwADDJUl6ANDnscGNAAAA\n'
p3541
sg19
g146
sg21
I705
ssS'exponent_factor'
p3542
F-5
sS'cap_value'
p3543
F0
sg158
I0
sS'capping_'
p3544
I1
ssg19
g77
sg21
I704
sssg202
I01
sg203
S''
sg205
Nsg19
S' filter'
p3545
sg1046
(dp3546
g18
(lp3547
(dp3548
g2
(lp3549
((g4
g5
tI-1
tp3550
a((g30
g5
tI-1
tp3551
a((g32
g33
tI-1
tp3552
a((g35
g36
tI0
tp3553
a((g1873
g1874
tI0
tp3554
asg15
g1873
sg16
(dp3555
g18
Nsg19
g48
sg21
I1
ssg19
g22
sg21
I640
sg23
g1874
sg18
(dp3556
g18
(dp3557
g56
S'Colors and legends'
p3558
sg1880
g1881
sg1046
(dp3559
g18
(lp3560
(dp3561
g18
Nsg19
g48
sg21
I3
sasg19
g55
sg21
I642
ssg203
S''
sg2122
(dp3562
g2
(lp3563
((g4
g5
tI-1
tp3564
a((g30
g5
tI-1
tp3565
a((g32
g33
tI-1
tp3566
a((g35
g36
tI0
tp3567
a((g1889
g1890
tI0
tp3568
asg15
g1889
sg16
(dp3569
g18
Nsg19
g48
sg21
I1
ssg19
g22
sg21
I673
sg23
g1890
sg18
(dp3570
g18
(dp3571
g1895
(dp3572
g2
(lp3573
((g4
g5
tI-1
tp3574
a((g7
g5
tI-1
tp3575
a((g100
g101
tI-1
tp3576
a((g103
g104
tI-1
tp3577
a((g106
g107
tI-1
tp3578
a((g1903
g1904
tI-1
tp3579
asg15
g1903
sg16
(dp3580
g18
Nsg19
g48
sg21
I21
ssg19
g22
sg21
I675
sg23
g1904
sg18
(dp3581
g18
(dp3582
g235
F1
sg1909
g1910
sg1911
I12
sg190
F0
sg1912
F0
sg1913
I1
sg1914
g1915
sg1916
I0
sg155
I0
sg1917
F1.1000000000000001
sg800
(dp3583
g18
Nsg19
g48
sg21
I41
ssg1919
I1
sg1920
(dp3584
g18
S'H4sIAOT1H04C/2tgSs4rzS2o1EvOL0rVyy3NKclMLCpKrOSKL0pNzs8rLikqTS7hKmSEqOLKS4HI\nFjJ5M7SGMia1BxUya3gzejO1QhWklFQWpHIVsoQyZZp4M3gzAhWwangzhzLa+Pn5ef0HAjDhzVCS\n1BnKwcjAwADiliTpAQCk2G9tiQAAAA==\n'
p3585
sg19
g146
sg21
I677
ssg137
I0
sg1923
I1
sg1924
I0
sg1925
g1926
sg149
I0
sg1927
I1
ssg19
g77
sg21
I676
sssg3080
S''
sg1929
S'SplatterValues'
p3586
sg202
I01
sg1932
(dp3587
g18
S'H4sIAOT1H04C/2tgSs4rzS2o1EvOL0rVyy3NKclMLCpKrOSKL0pNzs8rLikqTS7hKmSEqOLKS4HI\nFjJ5M7SGMia1BxUya3gzejO1QhWklFQWpHIVsoQypVl4M3gzAhWwangzhzLa+Pn5ef0HAjDhzVCS\n1BkqwAAF+Xn3nhw4w+BQkqQHAF+ORgiRAAAA\n'
p3588
sg19
g146
sg21
I678
ssg1935
(dp3589
g2
(lp3590
((g4
g5
tI-1
tp3591
a((g7
g5
tI-1
tp3592
a((g100
g101
tI-1
tp3593
a((g103
g104
tI-1
tp3594
a((g106
g107
tI-1
tp3595
a((g1943
g1944
tI-1
tp3596
a((g1946
g1947
tI-1
tp3597
asg15
g1946
sg16
(dp3598
g18
Nsg19
g48
sg21
I21
ssg19
g22
sg21
I679
sg23
g1947
sg18
(dp3599
g18
(dp3600
g1952
I2
sg187
g1953
sg1954
(dp3601
g18
S'H4sIAOT1H04C/2tgSs4rzS2o1EvOL0rVyy3NKclMLCpKrOSKL0pNzs8rLikqTS7hKmSEqOLKS4HI\nFjJ5M7SGMia1BxUya3gzejO1QhWklFQWpHIVsoQypVl4M3gzAhWwangzhzLa+Pn5ef0HAjDhzVCS\n1BkqwIAGSpL0ACtwOO6RAAAA\n'
p3602
sg19
g146
sg21
I681
ssg1957
(dp3603
g18
S'H4sIAOT1H04C/2tgSs4rzS2o1EvOL0rVyy3NKclMLCpKrOSKL0pNzs8rLikqTS7hKmSEqOLKS4HI\nFjJ5M7SGMia1BxUya3gzejO1QhWklFQWpHIVsoQypVl4M3gzAhWwangzhzLa+Pn5ef0HAjDhzVCS\n1BkqwAAF+Xn3nhw4w+BQkqQHAF+ORgiRAAAA\n'
p3604
sg19
g146
sg21
I683
ssg1960
(dp3605
g18
S'H4sIAOT1H04C/2tgSs4rzS2o1EvOL0rVyy3NKclMLCpKrOSKL0pNzs8rLikqTS7hKmSEqOLKS4HI\nFjJ5M7SGMia1BxUya3gzejO1QhWklFQWpHIVsoQypVl4M3gzAhWwangzhzLa+Pn5ef0HAjDhzVCS\n1BkqwIAGSpL0ACtwOO6RAAAA\n'
p3606
sg19
g146
sg21
I682
ssg1963
I256
sg1964
g1965
sg155
I0
sg1966
I256
sg1967
(dp3607
g18
S'H4sIAOT1H04C/2tgSs4rzS2o1EvOL0rVyy3NKclMLCpKrOSKL0pNzs8rLikqTS7hKmSEqOLKS4HI\nFjJ5M7SGMia1BxUya3gzejO1QhWklFQWpHIVsoQypVl4M3gzAhWwangzhzLa+Pn5ef0HAjDhzVCS\n1BkqwAAGH+xhdEmSHgBnOGdykQAAAA==\n'
p3608
sg19
g146
sg21
I684
ssg1970
(dp3609
g18
S'H4sIAOT1H04C/2tgSs4rzS2o1EvOL0rVyy3NKclMLCpKrOSKL0pNzs8rLikqTS7hKmSEqOLKS4HI\nFjJ5M7SGMia1BxUya3gzejO1QhWklFQWpHIVsoQypVl4M3gzAhWwangzhzLa+Pn5ef0HAjDhzVCS\n1BkqwAAF+Xn3nhw4w+BQkqQHAF+ORgiRAAAA\n'
p3610
sg19
g146
sg21
I685
ssg1973
I0
sg1974
(dp3611
g18
S'H4sIAOT1H04C/2tgSs4rzS2o1EvOL0rVyy3NKclMLCpKrOSKL0pNzs8rLikqTS7hKmSEqOLKS4HI\nFjJ5M7SGMia1BxUya3gzejO1QhWklFQWpHIVsoQypVl4M3gzAhWwangzhzLa+Pn5ef0HAjDhzVCS\n1BkqwIACPtiXJOkBAIHIRA6RAAAA\n'
p3612
sg19
g146
sg21
I686
ssg137
I0
sg1977
F0.63600000000000001
sg1978
g1979
sg149
I0
ssg19
g77
sg21
I680
sssg1980
(dp3613
g2
(lp3614
((g4
g5
tI-1
tp3615
a((g7
g5
tI-1
tp3616
a((g100
g101
tI-1
tp3617
a((g103
g104
tI-1
tp3618
a((g106
g107
tI-1
tp3619
a((g1903
g1904
tI-1
tp3620
asg15
g1903
sg16
(dp3621
g18
Nsg19
g48
sg21
I21
ssg19
g22
sg21
I696
sg23
g1904
sg18
(dp3622
g18
(dp3623
g235
F1
sg1909
g1910
sg1911
I12
sg190
F0
sg1912
F0
sg1913
I1
sg1914
g1915
sg1916
I0
sg155
I0
sg1917
F1.1000000000000001
sg800
(dp3624
g18
Nsg19
g48
sg21
I41
ssg1919
I1
sg1920
(dp3625
g18
S'H4sIAOX1H04C/2tgSs4rzS2o1EvOL0rVyy3NKclMLCpKrOSKL0pNzs8rLikqTS7hKmSEqOLKS4HI\nFjJ5M7SGMia1BxUya3gzejO1QhWklFQWpHIVsoQyZZp4M3gzAhWwangzhzLa+Pn5ef0HAjDhzVCS\n1BnKwcjAwADiliTpAQCk2G9tiQAAAA==\n'
p3626
sg19
g146
sg21
I698
ssg137
I0
sg1923
I1
sg1924
I0
sg1925
g1926
sg149
I0
sg1927
I1
ssg19
g77
sg21
I697
sssg1966
I256
sg3121
(dp3627
g18
S'H4sIAOT1H04C/2tgSs4rzS2o1EvOL0rVyy3NKclMLCpKrOSKL0pNzs8rLikqTS7hKmSEqOLKS4HI\nFjJ5M7SGMia1BxUya3gzejO1QhWklFQWpHIVsoQypVl4M3gzAhWwangzhzLa+Pn5ef0HAjDhzVCS\n1BkqwIACPtiXJOkBAIHIRA6RAAAA\n'
p3628
sg19
g146
sg21
I689
ssg205
Nsg1998
I00
sg19
S''
sg3124
(dp3629
g2
(lp3630
((g4
g5
tI-1
tp3631
a((g7
g5
tI-1
tp3632
a((g100
g101
tI-1
tp3633
a((g103
g104
tI-1
tp3634
a((g106
g107
tI-1
tp3635
a((g173
g174
tI-1
tp3636
a((g2009
g2010
tI-1
tp3637
a((g2012
g2013
tI-1
tp3638
a((g2015
g2016
tI-1
tp3639
asg15
g2015
sg16
(dp3640
g18
Nsg19
g48
sg21
I21
ssg19
g22
sg21
I690
sg23
g2016
sg18
(dp3641
g18
(dp3642
g190
I1
sg2021
I0
sg193
I1
sg195
I1
sg2022
g2023
sg197
I1
sg2024
I2
sg2025
I0
sg2026
I0
sg2027
(dp3643
g18
S'H4sIAOX1H04C/2tgSs4rzS2o1EvOL0rVyy3NKclMLCpKrOSKL0pNzs8rLikqTS7hKmSEqOLKS4HI\nFjJ5M7SGMia1BxUya3gzejO1QhWklFQWpHIVsoQypVl4M3gzAhWwangzhzLa+Pn5ef0HAjDhzVCS\n1BkqcPirRkz/oaP2s2aCwEv7kiQ9AC+e0nyRAAAA\n'
p3644
sg19
g146
sg21
I693
ssg2030
I0
sg2031
(dp3645
g18
S'H4sIAOX1H04C/2tgSs4rzS2o1EvOL0rVyy3NKclMLCpKrOSKL0pNzs8rLikqTS7hKmSEqOLKS4HI\nFjJ5M7SGMia1BxUya3gzejO1QhWklFQWpHIVsoQyZZp4M3gzAhWwangzhzLa+Pn5ef0HAjDhzVCS\n1BnKsaCNkQGES5L0ALP9TXGJAAAA\n'
p3646
sg19
g146
sg21
I695
ssg201
I1
sg510
I3
sg2034
(dp3647
g18
S'H4sIAOX1H04C/2tgSs4rzS2o1EvOL0rVyy3NKclMLCpKrOSKL0pNzs8rLikqTS7hKmSEqOLKS4HI\nFjJ5M7SGMia1BxUya3gzejO1QhWklFQWpHIVsoQyZZp4M3gzAhWwangzhzLa+Pn5ef0HAjDhzVCS\n1BnKwcjAwADCJUl6AJHzi6mJAAAA\n'
p3648
sg19
g146
sg21
I692
ssg194
I1
sg196
I1
sg149
I0
sg2037
I0
sg2038
F0.5
sg2039
I0
sg155
I0
sg137
I0
sg198
(dp3649
g18
S'H4sIAOX1H04C/2tgSs4rzS2o1EvOL0rVyy3NKclMLCpKrOSKL0pNzs8rLikqTS7hKmSEqOLKS4HI\nFjJ5M7SGMia1BxUya3gzejO1QhWklFQWpHIVsoQypVl4M3gzAhWwangzhzLa+Pn5ef0HAjDhzVCS\n1BkqYMt1fXGB7Sv7WTNBYKd9SZIeADd4AQGRAAAA\n'
p3650
sg19
g146
sg21
I694
ssg2042
F0.01
ssg19
g77
sg21
I691
sssg2043
(dp3651
g2
(lp3652
((g4
g5
tI-1
tp3653
a((g7
g5
tI-1
tp3654
a((g100
g101
tI-1
tp3655
a((g103
g104
tI-1
tp3656
a((g106
g107
tI-1
tp3657
a((g580
g581
tI-1
tp3658
a((g2052
g2053
tI-1
tp3659
a((g2055
g2056
tI-1
tp3660
a((g2058
g2059
tI-1
tp3661
asg15
g2058
sg16
(dp3662
g18
Nsg19
g48
sg21
I21
ssg19
g22
sg21
I687
sg23
g2059
sg18
(dp3663
g18
(dp3664
g2064
I1
sg589
S'i'
sg2065
I1
sg149
I0
sg137
I0
sg590
I0
sg593
I0
sg155
I0
sg2066
I1
sg592
F0.5
sg2067
I1
sg2068
I1
sg2069
I1
sg594
I0
sg2070
I1
sg2071
I0
sg2072
I0
sg595
I0
sg2073
I1
ssg19
g77
sg21
I688
sssg2074
I00
sg1924
I00
sg2075
S'Greys'
p3665
sg2077
I01
sg56
S''
sg2079
I8
sg2080
(dp3666
g18
Nsg19
g48
sg21
I678
ssg2082
S'SplatterValues'
p3667
sg203
S''
sg2084
I01
sg2085
(dp3668
g2
(lp3669
((g4
g5
tI-1
tp3670
a((g7
g5
tI-1
tp3671
a((g100
g101
tI-1
tp3672
a((g103
g104
tI-1
tp3673
a((g106
g107
tI-1
tp3674
a((g173
g174
tI-1
tp3675
a((g2094
g2095
tI-1
tp3676
a((g2097
g2098
tI-1
tp3677
asg15
g2097
sg16
(dp3678
g18
Nsg19
g48
sg21
I21
ssg19
g22
sg21
I699
sg23
g2098
sg18
(dp3679
g18
(dp3680
g190
g2103
sg193
I1
sg2104
F0.80000000000000004
sg197
I1
sg2105
I0
sg2106
S'SplatterValues'
p3681
sg2108
S'%-#6.3g'
p3682
sg2110
F0.17000000000000001
sg2111
F10
sg2112
g2113
sg201
I1
sg2114
I0
sg194
I1
sg196
I1
sg149
I0
sg2115
I256
sg2116
I1
sg195
I1
sg2079
I8
sg155
I0
sg2027
(dp3683
g18
S'H4sIAOX1H04C/2tgSs4rzS2o1EvOL0rVyy3NKclMLCpKrOSKL0pNzs8rLikqTS7hKmSEqOLKS4HI\nFjJ5M7SGMia1BxUya3gzejO1QhWklFQWpHIVsoQypVl4M3gzAhWwangzhzLa+Pn5ef0HAjDhzVCS\n1BkqcPirRkz/oaP2s2aCwEv7kiQ9AC+e0nyRAAAA\n'
p3684
sg19
g146
sg21
I702
ssg2119
I0
sg137
I0
sg198
(dp3685
g18
S'H4sIAOX1H04C/2tgSs4rzS2o1EvOL0rVyy3NKclMLCpKrOSKL0pNzs8rLikqTS7hKmSEqOLKS4HI\nFjJ5M7SGMia1BxUya3gzejO1QhWklFQWpHIVsoQypVl4M3gzAhWwangzhzLa+Pn5ef0HAjDhzVCS\n1BkqYMt1fXGB7Sv7WTNBYKd9SZIeADd4AQGRAAAA\n'
p3686
sg19
g146
sg21
I701
sssg19
g77
sg21
I700
ssssg19
g77
sg21
I674
sssg19
g3305
sg1882
(dp3687
g2
(lp3688
((g4
g5
tI-1
tp3689
a((g30
g5
tI-1
tp3690
a((g32
g33
tI-1
tp3691
a((g35
g36
tI0
tp3692
a((g1889
g1890
tI0
tp3693
asg15
g1889
sg16
(dp3694
g18
Nsg19
g48
sg21
I1
ssg19
g22
sg21
I643
sg23
g1890
sg18
(dp3695
g18
(dp3696
g1895
(dp3697
g2
(lp3698
((g4
g5
tI-1
tp3699
a((g7
g5
tI-1
tp3700
a((g100
g101
tI-1
tp3701
a((g103
g104
tI-1
tp3702
a((g106
g107
tI-1
tp3703
a((g1903
g1904
tI-1
tp3704
asg15
g1903
sg16
(dp3705
g18
Nsg19
g48
sg21
I21
ssg19
g22
sg21
I645
sg23
g1904
sg18
(dp3706
g18
(dp3707
g235
F1
sg1909
g1910
sg1911
I12
sg190
F0
sg1912
F0
sg1913
I1
sg1914
g1915
sg1916
I0
sg155
I0
sg1917
F1.1000000000000001
sg800
(dp3708
g18
Nsg19
g48
sg21
I41
ssg1919
I1
sg1920
(dp3709
g18
S'H4sIAOT1H04C/2tgSs4rzS2o1EvOL0rVyy3NKclMLCpKrOSKL0pNzs8rLikqTS7hKmSEqOLKS4HI\nFjJ5M7SGMia1BxUya3gzejO1QhWklFQWpHIVsoQyZZp4M3gzAhWwangzhzLa+Pn5ef0HAjDhzVCS\n1BnKwcjAwADiliTpAQCk2G9tiQAAAA==\n'
p3710
sg19
g146
sg21
I647
ssg137
I0
sg1923
I1
sg1924
I0
sg1925
g1926
sg149
I0
sg1927
I1
ssg19
g77
sg21
I646
sssg3080
S''
sg1929
g2083
sg202
I01
sg1932
(dp3711
g18
S'H4sIAOT1H04C/2tgSs4rzS2o1EvOL0rVyy3NKclMLCpKrOSKL0pNzs8rLikqTS7hKmSEqOLKS4HI\nFjJ5M7SGMia1BxUya3gzejO1QhWklFQWpHIVsoQypVl4M3gzAhWwangzhzLa+Pn5ef0HAjDhzVCS\n1BkqwIACPtiXJOkBAIHIRA6RAAAA\n'
p3712
sg19
g146
sg21
I648
ssg1935
(dp3713
g2
(lp3714
((g4
g5
tI-1
tp3715
a((g7
g5
tI-1
tp3716
a((g100
g101
tI-1
tp3717
a((g103
g104
tI-1
tp3718
a((g106
g107
tI-1
tp3719
a((g1943
g1944
tI-1
tp3720
a((g1946
g1947
tI-1
tp3721
asg15
g1946
sg16
(dp3722
g18
Nsg19
g48
sg21
I21
ssg19
g22
sg21
I649
sg23
g1947
sg18
(dp3723
g18
(dp3724
g1952
I2
sg187
g1953
sg1954
(dp3725
g18
S'H4sIAOT1H04C/2tgSs4rzS2o1EvOL0rVyy3NKclMLCpKrOSKL0pNzs8rLikqTS7hKmSEqOLKS4HI\nFjJ5M7SGMia1BxUya3gzejO1QhWklFQWpHIVsoQypVl4M3gzAhWwangzhzLa+Pn5ef0HAjDhzVCS\n1BkqwAAGH+xhdEmSHgBnOGdykQAAAA==\n'
p3726
sg19
g146
sg21
I651
ssg1957
(dp3727
g18
S'H4sIAOT1H04C/2tgSs4rzS2o1EvOL0rVyy3NKclMLCpKrOSKL0pNzs8rLikqTS7hKmSEqOLKS4HI\nFjJ5M7SGMia1BxUya3gzejO1QhWklFQWpHIVsoQypVl4M3gzAhWwangzhzLa+Pn5ef0HAjDhzVCS\n1BkqwIACPtiXJOkBAIHIRA6RAAAA\n'
p3728
sg19
g146
sg21
I653
ssg1960
(dp3729
g18
S'H4sIAOT1H04C/2tgSs4rzS2o1EvOL0rVyy3NKclMLCpKrOSKL0pNzs8rLikqTS7hKmSEqOLKS4HI\nFjJ5M7SGMia1BxUya3gzejO1QhWklFQWpHIVsoQypVl4M3gzAhWwangzhzLa+Pn5ef0HAjDhzVCS\n1Bkq4H2C3XZ26FN7BigoSdIDAObNAnCRAAAA\n'
p3730
sg19
g146
sg21
I652
ssg1963
I256
sg1964
g1965
sg155
I0
sg1966
I256
sg1967
(dp3731
g18
S'H4sIAOT1H04C/2tgSs4rzS2o1EvOL0rVyy3NKclMLCpKrOSKL0pNzs8rLikqTS7hKmSEqOLKS4HI\nFjJ5M7SGMia1BxUya3gzejO1QhWklFQWpHIVsoQypVl4M3gzAhWwangzhzLa+Pn5ef0HAjDhzVCS\n1BkqwAAGH+xhdEmSHgBnOGdykQAAAA==\n'
p3732
sg19
g146
sg21
I654
ssg1970
(dp3733
g18
S'H4sIAOT1H04C/2tgSs4rzS2o1EvOL0rVyy3NKclMLCpKrOSKL0pNzs8rLikqTS7hKmSEqOLKS4HI\nFjJ5M7SGMia1BxUya3gzejO1QhWklFQWpHIVsoQypVl4M3gzAhWwangzhzLa+Pn5ef0HAjDhzVCS\n1BkqwIACPtiXJOkBAIHIRA6RAAAA\n'
p3734
sg19
g146
sg21
I655
ssg1973
I0
sg1974
(dp3735
g18
S'H4sIAOT1H04C/2tgSs4rzS2o1EvOL0rVyy3NKclMLCpKrOSKL0pNzs8rLikqTS7hKmSEqOLKS4HI\nFjJ5M7SGMia1BxUya3gzejO1QhWklFQWpHIVsoQypVl4M3gzAhWwangzhzLa+Pn5ef0HAjDhzVCS\n1BkqwAAGH+xhdEmSHgBnOGdykQAAAA==\n'
p3736
sg19
g146
sg21
I656
ssg137
I0
sg1977
F1
sg1978
g1979
sg149
I0
ssg19
g77
sg21
I650
sssg1980
(dp3737
g2
(lp3738
((g4
g5
tI-1
tp3739
a((g7
g5
tI-1
tp3740
a((g100
g101
tI-1
tp3741
a((g103
g104
tI-1
tp3742
a((g106
g107
tI-1
tp3743
a((g1903
g1904
tI-1
tp3744
asg15
g1903
sg16
(dp3745
g18
Nsg19
g48
sg21
I21
ssg19
g22
sg21
I666
sg23
g1904
sg18
(dp3746
g18
(dp3747
g235
F1
sg1909
g1910
sg1911
I12
sg190
F0
sg1912
F0
sg1913
I1
sg1914
g1915
sg1916
I0
sg155
I0
sg1917
F1.1000000000000001
sg800
(dp3748
g18
Nsg19
g48
sg21
I41
ssg1919
I1
sg1920
(dp3749
g18
S'H4sIAOT1H04C/2tgSs4rzS2o1EvOL0rVyy3NKclMLCpKrOSKL0pNzs8rLikqTS7hKmSEqOLKS4HI\nFjJ5M7SGMia1BxUya3gzejO1QhWklFQWpHIVsoQyZZp4M3gzAhWwangzhzLa+Pn5ef0HAjDhzVCS\n1BnKwcjAwADiliTpAQCk2G9tiQAAAA==\n'
p3750
sg19
g146
sg21
I668
ssg137
I0
sg1923
I1
sg1924
I0
sg1925
g1926
sg149
I0
sg1927
I1
ssg19
g77
sg21
I667
sssg1966
I256
sg3121
(dp3751
g18
S'H4sIAOT1H04C/2tgSs4rzS2o1EvOL0rVyy3NKclMLCpKrOSKL0pNzs8rLikqTS7hKmSEqOLKS4HI\nFjJ5M7SGMia1BxUya3gzejO1QhWklFQWpHIVsoQypVl4M3gzAhWwangzhzLa+Pn5ef0HAjDhzVCS\n1BkqwIACPtiXJOkBAIHIRA6RAAAA\n'
p3752
sg19
g146
sg21
I659
ssg205
Nsg1998
I00
sg19
S''
sg3124
(dp3753
g2
(lp3754
((g4
g5
tI-1
tp3755
a((g7
g5
tI-1
tp3756
a((g100
g101
tI-1
tp3757
a((g103
g104
tI-1
tp3758
a((g106
g107
tI-1
tp3759
a((g173
g174
tI-1
tp3760
a((g2009
g2010
tI-1
tp3761
a((g2012
g2013
tI-1
tp3762
a((g2015
g2016
tI-1
tp3763
asg15
g2015
sg16
(dp3764
g18
Nsg19
g48
sg21
I21
ssg19
g22
sg21
I660
sg23
g2016
sg18
(dp3765
g18
(dp3766
g190
I1
sg2021
I0
sg193
I1
sg195
I1
sg2022
g2023
sg197
I1
sg2024
I2
sg2025
I0
sg2026
I0
sg2027
(dp3767
g18
S'H4sIAOT1H04C/2tgSs4rzS2o1EvOL0rVyy3NKclMLCpKrOSKL0pNzs8rLikqTS7hKmSEqOLKS4HI\nFjJ5M7SGMia1BxUya3gzejO1QhWklFQWpHIVsoQypVl4M3gzAhWwangzhzLa+Pn5ef0HAjDhzVCS\n1BkqcPirRkz/oaP2s2aCwEv7kiQ9AC+e0nyRAAAA\n'
p3768
sg19
g146
sg21
I663
ssg2030
I0
sg2031
(dp3769
g18
S'H4sIAOT1H04C/2tgSs4rzS2o1EvOL0rVyy3NKclMLCpKrOSKL0pNzs8rLikqTS7hKmSEqOLKS4HI\nFjJ5M7SGMia1BxUya3gzejO1QhWklFQWpHIVsoQyZZp4M3gzAhWwangzhzLa+Pn5ef0HAjDhzVCS\n1BnKsaCNkQGES5L0ALP9TXGJAAAA\n'
p3770
sg19
g146
sg21
I665
ssg201
I1
sg510
I3
sg2034
(dp3771
g18
S'H4sIAOT1H04C/2tgSs4rzS2o1EvOL0rVyy3NKclMLCpKrOSKL0pNzs8rLikqTS7hKmSEqOLKS4HI\nFjJ5M7SGMia1BxUya3gzejO1QhWklFQWpHIVsoQyZZp4M3gzAhWwangzhzLa+Pn5ef0HAjDhzVCS\n1BnKwcjAwADCJUl6AJHzi6mJAAAA\n'
p3772
sg19
g146
sg21
I662
ssg194
I1
sg196
I1
sg149
I0
sg2037
I0
sg2038
F0.5
sg2039
I0
sg155
I0
sg137
I0
sg198
(dp3773
g18
S'H4sIAOT1H04C/2tgSs4rzS2o1EvOL0rVyy3NKclMLCpKrOSKL0pNzs8rLikqTS7hKmSEqOLKS4HI\nFjJ5M7SGMia1BxUya3gzejO1QhWklFQWpHIVsoQypVl4M3gzAhWwangzhzLa+Pn5ef0HAjDhzVCS\n1BkqYMt1fXGB7Sv7WTNBYKd9SZIeADd4AQGRAAAA\n'
p3774
sg19
g146
sg21
I664
ssg2042
F0.01
ssg19
g77
sg21
I661
sssg2043
(dp3775
g2
(lp3776
((g4
g5
tI-1
tp3777
a((g7
g5
tI-1
tp3778
a((g100
g101
tI-1
tp3779
a((g103
g104
tI-1
tp3780
a((g106
g107
tI-1
tp3781
a((g580
g581
tI-1
tp3782
a((g2052
g2053
tI-1
tp3783
a((g2055
g2056
tI-1
tp3784
a((g2058
g2059
tI-1
tp3785
asg15
g2058
sg16
(dp3786
g18
Nsg19
g48
sg21
I21
ssg19
g22
sg21
I657
sg23
g2059
sg18
(dp3787
g18
(dp3788
g2064
I1
sg589
S'i'
sg2065
I1
sg149
I0
sg137
I0
sg590
I0
sg593
I0
sg155
I0
sg2066
I1
sg592
F0.5
sg2067
I1
sg2068
I1
sg2069
I1
sg594
I0
sg2070
I1
sg2071
I0
sg2072
I0
sg595
I0
sg2073
I1
ssg19
g77
sg21
I658
sssg2074
I00
sg1924
I00
sg2075
S'blue-red'
p3789
sg2077
I01
sg56
S''
sg2079
I8
sg2080
(dp3790
g18
Nsg19
g48
sg21
I648
ssg2082
g2083
sg203
S''
sg2084
I01
sg2085
(dp3791
g2
(lp3792
((g4
g5
tI-1
tp3793
a((g7
g5
tI-1
tp3794
a((g100
g101
tI-1
tp3795
a((g103
g104
tI-1
tp3796
a((g106
g107
tI-1
tp3797
a((g173
g174
tI-1
tp3798
a((g2094
g2095
tI-1
tp3799
a((g2097
g2098
tI-1
tp3800
asg15
g2097
sg16
(dp3801
g18
Nsg19
g48
sg21
I21
ssg19
g22
sg21
I669
sg23
g2098
sg18
(dp3802
g18
(dp3803
g190
g2103
sg193
I1
sg2104
F0.17000000000000001
sg197
I1
sg2105
I0
sg2106
S'No vectors'
p3804
sg2108
S'%-#6.3g'
p3805
sg2110
F0.80000000000000004
sg2111
F10
sg2112
g2113
sg201
I1
sg2114
I0
sg194
I1
sg196
I1
sg149
I0
sg2115
I256
sg2116
I1
sg195
I1
sg2079
I8
sg155
I0
sg2027
(dp3806
g18
S'H4sIAOT1H04C/2tgSs4rzS2o1EvOL0rVyy3NKclMLCpKrOSKL0pNzs8rLikqTS7hKmSEqOLKS4HI\nFjJ5M7SGMia1BxUya3gzejO1QhWklFQWpHIVsoQypVl4M3gzAhWwangzhzLa+Pn5ef0HAjDhzVCS\n1BkqMGsmCLy0P/xVI6b/0FH7kiQ9AGpIg++RAAAA\n'
p3807
sg19
g146
sg21
I672
ssg2119
I0
sg137
I0
sg198
(dp3808
g18
S'H4sIAOT1H04C/2tgSs4rzS2o1EvOL0rVyy3NKclMLCpKrOSKL0pNzs8rLikqTS7hKmSEqOLKS4HI\nFjJ5M7SGMia1BxUya3gzejO1QhWklFQWpHIVsoQypVl4M3gzAhWwangzhzLa+Pn5ef0HAjDhzVCS\n1BkqMGsmCOy0rxZZ5/6wqsW+JEkPAHMFfKeRAAAA\n'
p3809
sg19
g146
sg21
I671
sssg19
g77
sg21
I670
ssssg19
g77
sg21
I644
sssg348
S'modulemanager.ico'
p3810
ssg19
g77
sg21
I641
ssasg19
g55
sg21
I639
ssg348
S'filter.ico'
p3811
ssg19
g77
sg21
I638
ssasg19
g55
sg21
I326
ssS'parametric_function'
p3812
(dp3813
g18
Nsg19
g48
sg21
I302
sssg19
g77
sg21
I294
ssasg19
g55
sg21
I292
ssg348
S'scene.ico'
p3814
ssg19
g77
sg21
I171
ssasg19
g55
sg21
I44
ssS'running'
p3815
I01
sg205
Nssg19
g77
sg21
I2
ss.