(dp1
S'version'
p2
(lp3
((S'HasTraits'
p4
S'enthought.traits.has_traits'
p5
tI-1
tp6
a((S'HasStrictTraits'
p7
g5
tI-1
tp8
a((S'Engine'
p9
S'enthought.mayavi.core.engine'
p10
tI0
tp11
a((S'EnvisageEngine'
p12
S'enthought.mayavi.plugins.envisage_engine'
p13
tI0
tp14
asS'class_name'
p15
g12
sS'initargs'
p16
(dp17
S'data'
p18
(tsS'type'
p19
S'tuple'
p20
sS'id'
p21
I1
ssg19
S'instance'
p22
sg21
I0
sS'module'
p23
g13
sg18
(dp24
g18
(dp25
S'_current_selection'
p26
(dp27
g2
(lp28
((g4
g5
tI-1
tp29
a((S'HasPrivateTraits'
p30
g5
tI-1
tp31
a((S'TreeNodeObject'
p32
S'enthought.traits.ui.tree_node'
p33
tI-1
tp34
a((S'Base'
p35
S'enthought.mayavi.core.base'
p36
tI0
tp37
a((S'ModuleManager'
p38
S'enthought.mayavi.core.module_manager'
p39
tI0
tp40
asg15
g38
sg16
(dp41
g18
Nsg19
S'reference'
p42
sg21
I1
ssg19
g22
sg21
I3
sg23
g39
sg18
(dp43
g18
(dp44
S'name'
p45
S'Colors and legends'
p46
sS'lut_data_mode'
p47
S'auto'
p48
sS'vector_lut_manager'
p49
(dp50
g2
(lp51
((g4
g5
tI-1
tp52
a((g30
g5
tI-1
tp53
a((g32
g33
tI-1
tp54
a((g35
g36
tI0
tp55
a((S'LUTManager'
p56
S'enthought.mayavi.core.lut_manager'
p57
tI0
tp58
asg15
g56
sg16
(dp59
g18
Nsg19
g42
sg21
I1
ssg19
g22
sg21
I5
sg23
g57
sg18
(dp60
g18
(dp61
S'_label_text_property'
p62
(dp63
g2
(lp64
((g4
g5
tI-1
tp65
a((g7
g5
tI-1
tp66
a((S'TVTKBase'
p67
S'enthought.tvtk.tvtk_base'
p68
tI-1
tp69
a((S'ObjectBase'
p70
S'tvtk_classes.object_base'
p71
tI-1
tp72
a((S'Object'
p73
S'tvtk_classes.object'
p74
tI-1
tp75
a((S'TextProperty'
p76
S'tvtk_classes.text_property'
p77
tI-1
tp78
asg15
g76
sg16
(dp79
g18
(NI0
tp80
sg19
g20
sg21
I8
ssg19
g22
sg21
I7
sg23
g77
sg18
(dp81
g18
(dp82
S'opacity'
p83
F1
sS'justification'
p84
S'left'
p85
sS'font_size'
p86
I12
sS'orientation'
p87
F0
sS'line_offset'
p88
F0
sS'italic_'
p89
I1
sS'vertical_justification'
p90
S'bottom'
p91
sS'shadow_'
p92
I0
sS'debug_'
p93
I0
sS'line_spacing'
p94
F1.1000000000000001
sS'color'
p95
(dp96
g18
(F1
F1
F1
tp97
sg19
g20
sg21
I11
ssS'italic'
p98
I1
sS'shadow_offset'
p99
(dp100
g18
S'H4sIANf3H04C/2tgSs4rzS2o1EvOL0rVyy3NKclMLCpKrOSKL0pNzs8rLikqTS7hKmSEqOLKS4HI\nFjJ5M7SGMia1BxUya3gzejO1QhWklFQWpHIVsoQyZZp4M3gzAhWwangzhzLa+Pn5ef0HAjDhzVCS\n1BnKwcjAwADiliTpAQCk2G9tiQAAAA==\n'
p101
sg19
S'numeric'
p102
sg21
I10
ssS'debug'
p103
I0
sS'bold_'
p104
I1
sS'shadow'
p105
I0
sS'font_family'
p106
S'arial'
p107
sS'global_warning_display_'
p108
I0
sS'bold'
p109
I1
ssg19
S'dict'
p110
sg21
I9
sssS'file_name'
p111
S''
sS'data_name'
p112
S'No vectors'
p113
sS'visible'
p114
I01
sS'default_data_range'
p115
(dp116
g18
S'H4sIANf3H04C/2tgSs4rzS2o1EvOL0rVyy3NKclMLCpKrOSKL0pNzs8rLikqTS7hKmSEqOLKS4HI\nFjJ5M7SGMia1BxUya3gzejO1QhWklFQWpHIVsoQypVl4M3gzAhWwangzhzLa+Pn5ef0HAjDhzVCS\n1BkqwIACPtiXJOkBAIHIRA6RAAAA\n'
p117
sg19
g102
sg21
I12
ssS'lut'
p118
(dp119
g2
(lp120
((g4
g5
tI-1
tp121
a((g7
g5
tI-1
tp122
a((g67
g68
tI-1
tp123
a((g70
g71
tI-1
tp124
a((g73
g74
tI-1
tp125
a((S'ScalarsToColors'
p126
S'tvtk_classes.scalars_to_colors'
p127
tI-1
tp128
a((S'LookupTable'
p129
S'tvtk_classes.lookup_table'
p130
tI-1
tp131
asg15
g129
sg16
(dp132
g18
Nsg19
g42
sg21
I8
ssg19
g22
sg21
I13
sg23
g130
sg18
(dp133
g18
(dp134
S'ramp_'
p135
I2
sS'scale'
p136
S'linear'
p137
sS'saturation_range'
p138
(dp139
g18
S'H4sIANf3H04C/2tgSs4rzS2o1EvOL0rVyy3NKclMLCpKrOSKL0pNzs8rLikqTS7hKmSEqOLKS4HI\nFjJ5M7SGMia1BxUya3gzejO1QhWklFQWpHIVsoQypVl4M3gzAhWwangzhzLa+Pn5ef0HAjDhzVCS\n1BkqwAAGH+xhdEmSHgBnOGdykQAAAA==\n'
p140
sg19
g102
sg21
I15
ssS'table_range'
p141
(dp142
g18
S'H4sIANf3H04C/2tgSs4rzS2o1EvOL0rVyy3NKclMLCpKrOSKL0pNzs8rLikqTS7hKmSEqOLKS4HI\nFjJ5M7SGMia1BxUya3gzejO1QhWklFQWpHIVsoQypVl4M3gzAhWwangzhzLa+Pn5ef0HAjDhzVCS\n1BkqwIACPtiXJOkBAIHIRA6RAAAA\n'
p143
sg19
g102
sg21
I17
ssS'hue_range'
p144
(dp145
g18
S'H4sIANf3H04C/2tgSs4rzS2o1EvOL0rVyy3NKclMLCpKrOSKL0pNzs8rLikqTS7hKmSEqOLKS4HI\nFjJ5M7SGMia1BxUya3gzejO1QhWklFQWpHIVsoQypVl4M3gzAhWwangzhzLa+Pn5ef0HAjDhzVCS\n1Bkq4H2C3XZ26FN7BigoSdIDAObNAnCRAAAA\n'
p146
sg19
g102
sg21
I16
ssS'number_of_table_values'
p147
I256
sS'ramp'
p148
S'sqrt'
p149
sg93
I0
sS'number_of_colors'
p150
I256
sS'alpha_range'
p151
(dp152
g18
S'H4sIANf3H04C/2tgSs4rzS2o1EvOL0rVyy3NKclMLCpKrOSKL0pNzs8rLikqTS7hKmSEqOLKS4HI\nFjJ5M7SGMia1BxUya3gzejO1QhWklFQWpHIVsoQypVl4M3gzAhWwangzhzLa+Pn5ef0HAjDhzVCS\n1BkqwAAGH+xhdEmSHgBnOGdykQAAAA==\n'
p153
sg19
g102
sg21
I18
ssS'range'
p154
(dp155
g18
S'H4sIANf3H04C/2tgSs4rzS2o1EvOL0rVyy3NKclMLCpKrOSKL0pNzs8rLikqTS7hKmSEqOLKS4HI\nFjJ5M7SGMia1BxUya3gzejO1QhWklFQWpHIVsoQypVl4M3gzAhWwangzhzLa+Pn5ef0HAjDhzVCS\n1BkqwIACPtiXJOkBAIHIRA6RAAAA\n'
p156
sg19
g102
sg21
I19
ssS'vector_component'
p157
I0
sS'value_range'
p158
(dp159
g18
S'H4sIANf3H04C/2tgSs4rzS2o1EvOL0rVyy3NKclMLCpKrOSKL0pNzs8rLikqTS7hKmSEqOLKS4HI\nFjJ5M7SGMia1BxUya3gzejO1QhWklFQWpHIVsoQypVl4M3gzAhWwangzhzLa+Pn5ef0HAjDhzVCS\n1BkqwAAGH+xhdEmSHgBnOGdykQAAAA==\n'
p160
sg19
g102
sg21
I20
ssg103
I0
sS'alpha'
p161
F1
sS'vector_mode'
p162
S'component'
p163
sg108
I0
ssg19
g110
sg21
I14
sssS'_title_text_property'
p164
(dp165
g2
(lp166
((g4
g5
tI-1
tp167
a((g7
g5
tI-1
tp168
a((g67
g68
tI-1
tp169
a((g70
g71
tI-1
tp170
a((g73
g74
tI-1
tp171
a((g76
g77
tI-1
tp172
asg15
g76
sg16
(dp173
g18
Nsg19
g42
sg21
I8
ssg19
g22
sg21
I30
sg23
g77
sg18
(dp174
g18
(dp175
g83
F1
sg84
g85
sg86
I12
sg87
F0
sg88
F0
sg89
I1
sg90
g91
sg92
I0
sg93
I0
sg94
F1.1000000000000001
sg95
(dp176
g18
Nsg19
g42
sg21
I11
ssg98
I1
sg99
(dp177
g18
S'H4sIANj3H04C/2tgSs4rzS2o1EvOL0rVyy3NKclMLCpKrOSKL0pNzs8rLikqTS7hKmSEqOLKS4HI\nFjJ5M7SGMia1BxUya3gzejO1QhWklFQWpHIVsoQyZZp4M3gzAhWwangzhzLa+Pn5ef0HAjDhzVCS\n1BnKwcjAwADiliTpAQCk2G9tiQAAAA==\n'
p178
sg19
g102
sg21
I32
ssg103
I0
sg104
I1
sg105
I0
sg106
g107
sg108
I0
sg109
I1
ssg19
g110
sg21
I31
sssg150
I256
sS'_orig_data_range'
p179
(dp180
g18
S'H4sIANf3H04C/2tgSs4rzS2o1EvOL0rVyy3NKclMLCpKrOSKL0pNzs8rLikqTS7hKmSEqOLKS4HI\nFjJ5M7SGMia1BxUya3gzejO1QhWklFQWpHIVsoQypVl4M3gzAhWwangzhzLa+Pn5ef0HAjDhzVCS\n1BkqwIACPtiXJOkBAIHIRA6RAAAA\n'
p181
sg19
g102
sg21
I23
ssS'recorder'
p182
NsS'reverse_lut'
p183
I00
sS'type'
p184
S''
sS'scalar_bar_representation'
p185
(dp186
g2
(lp187
((g4
g5
tI-1
tp188
a((g7
g5
tI-1
tp189
a((g67
g68
tI-1
tp190
a((g70
g71
tI-1
tp191
a((g73
g74
tI-1
tp192
a((S'Prop'
p193
S'tvtk_classes.prop'
p194
tI-1
tp195
a((S'WidgetRepresentation'
p196
S'tvtk_classes.widget_representation'
p197
tI-1
tp198
a((S'BorderRepresentation'
p199
S'tvtk_classes.border_representation'
p200
tI-1
tp201
a((S'ScalarBarRepresentation'
p202
S'tvtk_classes.scalar_bar_representation'
p203
tI-1
tp204
asg15
g202
sg16
(dp205
g18
Nsg19
g42
sg21
I8
ssg19
g22
sg21
I24
sg23
g203
sg18
(dp206
g18
(dp207
g87
I1
sS'need_to_render'
p208
I0
sS'dragable'
p209
I1
sS'pickable_'
p210
I1
sS'show_border'
p211
S'active'
p212
sS'visibility_'
p213
I1
sS'show_border_'
p214
I2
sS'need_to_render_'
p215
I0
sS'proportional_resize_'
p216
I0
sS'position2'
p217
(dp218
g18
S'H4sIANj3H04C/2tgSs4rzS2o1EvOL0rVyy3NKclMLCpKrOSKL0pNzs8rLikqTS7hKmSEqOLKS4HI\nFjJ5M7SGMia1BxUya3gzejO1QhWklFQWpHIVsoQypVl4M3gzAhWwangzhzLa+Pn5ef0HAjDhzVCS\n1BkqcPirRkz/oaP2s2aCwEv7kiQ9AC+e0nyRAAAA\n'
p219
sg19
g102
sg21
I27
ssS'moving_'
p220
I0
sS'maximum_size'
p221
(dp222
g18
S'H4sIANj3H04C/2tgSs4rzS2o1EvOL0rVyy3NKclMLCpKrOSKL0pNzs8rLikqTS7hKmSEqOLKS4HI\nFjJ5M7SGMia1BxUya3gzejO1QhWklFQWpHIVsoQyZZp4M3gzAhWwangzhzLa+Pn5ef0HAjDhzVCS\n1BnKsaCNkQGES5L0ALP9TXGJAAAA\n'
p223
sg19
g102
sg21
I29
ssS'pickable'
p224
I1
sS'tolerance'
p225
I3
sS'minimum_size'
p226
(dp227
g18
S'H4sIANj3H04C/2tgSs4rzS2o1EvOL0rVyy3NKclMLCpKrOSKL0pNzs8rLikqTS7hKmSEqOLKS4HI\nFjJ5M7SGMia1BxUya3gzejO1QhWklFQWpHIVsoQyZZp4M3gzAhWwangzhzLa+Pn5ef0HAjDhzVCS\n1BnKwcjAwADCJUl6AJHzi6mJAAAA\n'
p228
sg19
g102
sg21
I26
ssS'visibility'
p229
I1
sS'dragable_'
p230
I1
sg108
I0
sS'moving'
p231
I0
sS'place_factor'
p232
F0.5
sS'proportional_resize'
p233
I0
sg93
I0
sg103
I0
sS'position'
p234
(dp235
g18
S'H4sIANj3H04C/2tgSs4rzS2o1EvOL0rVyy3NKclMLCpKrOSKL0pNzs8rLikqTS7hKmSEqOLKS4HI\nFjJ5M7SGMia1BxUya3gzejO1QhWklFQWpHIVsoQypVl4M3gzAhWwangzhzLa+Pn5ef0HAjDhzVCS\n1BkqYMt1fXGB7Sv7WTNBYKd9SZIeADd4AQGRAAAA\n'
p236
sg19
g102
sg21
I28
ssS'handle_size'
p237
F0.01
ssg19
g110
sg21
I25
sssS'scalar_bar_widget'
p238
(dp239
g2
(lp240
((g4
g5
tI-1
tp241
a((g7
g5
tI-1
tp242
a((g67
g68
tI-1
tp243
a((g70
g71
tI-1
tp244
a((g73
g74
tI-1
tp245
a((S'InteractorObserver'
p246
S'tvtk_classes.interactor_observer'
p247
tI-1
tp248
a((S'AbstractWidget'
p249
S'tvtk_classes.abstract_widget'
p250
tI-1
tp251
a((S'BorderWidget'
p252
S'tvtk_classes.border_widget'
p253
tI-1
tp254
a((S'ScalarBarWidget'
p255
S'tvtk_classes.scalar_bar_widget'
p256
tI-1
tp257
asg15
g255
sg16
(dp258
g18
Nsg19
g42
sg21
I8
ssg19
g22
sg21
I21
sg23
g256
sg18
(dp259
g18
(dp260
S'process_events_'
p261
I1
sS'key_press_activation_value'
p262
S'i'
sS'resizable'
p263
I1
sg108
I0
sg103
I0
sS'enabled'
p264
I0
sS'key_press_activation_'
p265
I0
sg93
I0
sS'manages_cursor'
p266
I1
sS'priority'
p267
F0.5
sS'repositionable'
p268
I1
sS'repositionable_'
p269
I1
sS'manages_cursor_'
p270
I1
sS'enabled_'
p271
I0
sS'resizable_'
p272
I1
sS'selectable_'
p273
I0
sS'selectable'
p274
I0
sS'key_press_activation'
p275
I0
sS'process_events'
p276
I1
ssg19
g110
sg21
I22
sssS'show_scalar_bar'
p277
I00
sg105
I00
sS'lut_mode'
p278
S'blue-red'
p279
sS'use_default_name'
p280
I01
sS'name'
p281
S''
sS'number_of_labels'
p282
I8
sS'data_range'
p283
(dp284
g18
Nsg19
g42
sg21
I12
ssS'default_data_name'
p285
S'No vectors'
p286
sS'_saved_state'
p287
S''
sS'use_default_range'
p288
I01
sS'scalar_bar'
p289
(dp290
g2
(lp291
((g4
g5
tI-1
tp292
a((g7
g5
tI-1
tp293
a((g67
g68
tI-1
tp294
a((g70
g71
tI-1
tp295
a((g73
g74
tI-1
tp296
a((g193
g194
tI-1
tp297
a((S'Actor2D'
p298
S'tvtk_classes.actor2d'
p299
tI-1
tp300
a((S'ScalarBarActor'
p301
S'tvtk_classes.scalar_bar_actor'
p302
tI-1
tp303
asg15
g301
sg16
(dp304
g18
Nsg19
g42
sg21
I8
ssg19
g22
sg21
I33
sg23
g302
sg18
(dp305
g18
(dp306
g87
S'vertical'
p307
sg209
I1
sS'height'
p308
F0.17000000000000001
sg213
I1
sS'layer_number'
p309
I0
sS'title'
p310
S'No vectors'
p311
sS'label_format'
p312
S'%-#6.3g'
p313
sS'width'
p314
F0.80000000000000004
sS'texture_grid_width'
p315
F10
sS'text_position'
p316
S'succeed_scalar_bar'
p317
sg224
I1
sS'use_opacity'
p318
I0
sg229
I1
sg230
I1
sg108
I0
sS'maximum_number_of_colors'
p319
I256
sS'orientation_'
p320
I1
sg210
I1
sg282
I8
sg93
I0
sg217
(dp321
g18
S'H4sIANj3H04C/2tgSs4rzS2o1EvOL0rVyy3NKclMLCpKrOSKL0pNzs8rLikqTS7hKmSEqOLKS4HI\nFjJ5M7SGMia1BxUya3gzejO1QhWklFQWpHIVsoQypVl4M3gzAhWwangzhzLa+Pn5ef0HAjDhzVCS\n1BkqMGsmCLy0P/xVI6b/0FH7kiQ9AGpIg++RAAAA\n'
p322
sg19
g102
sg21
I36
ssS'use_opacity_'
p323
I0
sg103
I0
sg234
(dp324
g18
S'H4sIANj3H04C/2tgSs4rzS2o1EvOL0rVyy3NKclMLCpKrOSKL0pNzs8rLikqTS7hKmSEqOLKS4HI\nFjJ5M7SGMia1BxUya3gzejO1QhWklFQWpHIVsoQypVl4M3gzAhWwangzhzLa+Pn5ef0HAjDhzVCS\n1BkqMGsmCOy0rxZZ5/6wqsW+JEkPAHMFfKeRAAAA\n'
p325
sg19
g102
sg21
I35
sssg19
g110
sg21
I34
ssssg19
g110
sg21
I6
sssg287
S''
sS'scalar_lut_manager'
p326
(dp327
g2
(lp328
((g4
g5
tI-1
tp329
a((g30
g5
tI-1
tp330
a((g32
g33
tI-1
tp331
a((g35
g36
tI0
tp332
a((g56
g57
tI0
tp333
asg15
g56
sg16
(dp334
g18
Nsg19
g42
sg21
I1
ssg19
g22
sg21
I75
sg23
g57
sg18
(dp335
g18
(dp336
g62
(dp337
g2
(lp338
((g4
g5
tI-1
tp339
a((g7
g5
tI-1
tp340
a((g67
g68
tI-1
tp341
a((g70
g71
tI-1
tp342
a((g73
g74
tI-1
tp343
a((g76
g77
tI-1
tp344
asg15
g76
sg16
(dp345
g18
Nsg19
g42
sg21
I8
ssg19
g22
sg21
I77
sg23
g77
sg18
(dp346
g18
(dp347
g83
F1
sg84
g85
sg86
I12
sg87
F0
sg88
F0
sg89
I1
sg90
g91
sg92
I0
sg93
I0
sg94
F1.1000000000000001
sg95
(dp348
g18
Nsg19
g42
sg21
I11
ssg98
I1
sg99
(dp349
g18
S'H4sIANj3H04C/2tgSs4rzS2o1EvOL0rVyy3NKclMLCpKrOSKL0pNzs8rLikqTS7hKmSEqOLKS4HI\nFjJ5M7SGMia1BxUya3gzejO1QhWklFQWpHIVsoQyZZp4M3gzAhWwangzhzLa+Pn5ef0HAjDhzVCS\n1BnKwcjAwADiliTpAQCk2G9tiQAAAA==\n'
p350
sg19
g102
sg21
I79
ssg103
I0
sg104
I1
sg105
I0
sg106
g107
sg108
I0
sg109
I1
ssg19
g110
sg21
I78
sssg111
S''
sg112
S'point_scalars'
p351
sg114
I01
sg115
(dp352
g18
S'H4sIANj3H04C/2tgSs4rzS2o1EvOL0rVyy3NKclMLCpKrOSKL0pNzs8rLikqTS7hKmSEqOLKS4HI\nFjJ5M7SGMia1BxUya3gzejO1QhWklFQWpHIVsoQypVl4M3gzAhWwangzhzLa+Pn5ef0HAjDhzVCS\n1BkqwMDAcEAhYpM9kH6QsFjOoSRJDwAML/RykQAAAA==\n'
p353
sg19
g102
sg21
I80
ssg118
(dp354
g2
(lp355
((g4
g5
tI-1
tp356
a((g7
g5
tI-1
tp357
a((g67
g68
tI-1
tp358
a((g70
g71
tI-1
tp359
a((g73
g74
tI-1
tp360
a((g126
g127
tI-1
tp361
a((g129
g130
tI-1
tp362
asg15
g129
sg16
(dp363
g18
Nsg19
g42
sg21
I8
ssg19
g22
sg21
I81
sg23
g130
sg18
(dp364
g18
(dp365
g135
I2
sg136
g137
sg138
(dp366
g18
S'H4sIANj3H04C/2tgSs4rzS2o1EvOL0rVyy3NKclMLCpKrOSKL0pNzs8rLikqTS7hKmSEqOLKS4HI\nFjJ5M7SGMia1BxUya3gzejO1QhWklFQWpHIVsoQypVl4M3gzAhWwangzhzLa+Pn5ef0HAjDhzVCS\n1BkqwAAGH+xhdEmSHgBnOGdykQAAAA==\n'
p367
sg19
g102
sg21
I83
ssg141
(dp368
g18
S'H4sIANj3H04C/2tgSs4rzS2o1EvOL0rVyy3NKclMLCpKrOSKL0pNzs8rLikqTS7hKmSEqOLKS4HI\nFjJ5M7SGMia1BxUya3gzejO1QhWklFQWpHIVsoQypVl4M3gzAhWwangzhzLa+Pn5ef0HAjDhzVCS\n1BkqwMDAcEAhYpM9kH6QsFjOoSRJDwAML/RykQAAAA==\n'
p369
sg19
g102
sg21
I85
ssg144
(dp370
g18
S'H4sIANj3H04C/2tgSs4rzS2o1EvOL0rVyy3NKclMLCpKrOSKL0pNzs8rLikqTS7hKmSEqOLKS4HI\nFjJ5M7SGMia1BxUya3gzejO1QhWklFQWpHIVsoQypVl4M3gzAhWwangzhzLa+Pn5ef0HAjDhzVCS\n1Bkq4H2C3XZ26FN7BigoSdIDAObNAnCRAAAA\n'
p371
sg19
g102
sg21
I84
ssg147
I256
sg148
g149
sg93
I0
sg150
I256
sg151
(dp372
g18
S'H4sIANj3H04C/2tgSs4rzS2o1EvOL0rVyy3NKclMLCpKrOSKL0pNzs8rLikqTS7hKmSEqOLKS4HI\nFjJ5M7SGMia1BxUya3gzejO1QhWklFQWpHIVsoQypVl4M3gzAhWwangzhzLa+Pn5ef0HAjDhzVCS\n1BkqwAAGH+xhdEmSHgBnOGdykQAAAA==\n'
p373
sg19
g102
sg21
I86
ssg154
(dp374
g18
S'H4sIANj3H04C/2tgSs4rzS2o1EvOL0rVyy3NKclMLCpKrOSKL0pNzs8rLikqTS7hKmSEqOLKS4HI\nFjJ5M7SGMia1BxUya3gzejO1QhWklFQWpHIVsoQypVl4M3gzAhWwangzhzLa+Pn5ef0HAjDhzVCS\n1BkqwMDAcEAhYpM9kH6QsFjOoSRJDwAML/RykQAAAA==\n'
p375
sg19
g102
sg21
I87
ssg157
I0
sg158
(dp376
g18
S'H4sIANj3H04C/2tgSs4rzS2o1EvOL0rVyy3NKclMLCpKrOSKL0pNzs8rLikqTS7hKmSEqOLKS4HI\nFjJ5M7SGMia1BxUya3gzejO1QhWklFQWpHIVsoQypVl4M3gzAhWwangzhzLa+Pn5ef0HAjDhzVCS\n1BkqwAAGH+xhdEmSHgBnOGdykQAAAA==\n'
p377
sg19
g102
sg21
I88
ssg103
I0
sg161
F0.50449999999999995
sg162
g163
sg108
I0
ssg19
g110
sg21
I82
sssg164
(dp378
g2
(lp379
((g4
g5
tI-1
tp380
a((g7
g5
tI-1
tp381
a((g67
g68
tI-1
tp382
a((g70
g71
tI-1
tp383
a((g73
g74
tI-1
tp384
a((g76
g77
tI-1
tp385
asg15
g76
sg16
(dp386
g18
Nsg19
g42
sg21
I8
ssg19
g22
sg21
I98
sg23
g77
sg18
(dp387
g18
(dp388
g83
F1
sg84
g85
sg86
I12
sg87
F0
sg88
F0
sg89
I1
sg90
g91
sg92
I0
sg93
I0
sg94
F1.1000000000000001
sg95
(dp389
g18
Nsg19
g42
sg21
I11
ssg98
I1
sg99
(dp390
g18
S'H4sIANj3H04C/2tgSs4rzS2o1EvOL0rVyy3NKclMLCpKrOSKL0pNzs8rLikqTS7hKmSEqOLKS4HI\nFjJ5M7SGMia1BxUya3gzejO1QhWklFQWpHIVsoQyZZp4M3gzAhWwangzhzLa+Pn5ef0HAjDhzVCS\n1BnKwcjAwADiliTpAQCk2G9tiQAAAA==\n'
p391
sg19
g102
sg21
I100
ssg103
I0
sg104
I1
sg105
I0
sg106
g107
sg108
I0
sg109
I1
ssg19
g110
sg21
I99
sssg150
I256
sg179
(dp392
g18
S'H4sIANj3H04C/2tgSs4rzS2o1EvOL0rVyy3NKclMLCpKrOSKL0pNzs8rLikqTS7hKmSEqOLKS4HI\nFjJ5M7SGMia1BxUya3gzejO1QhWklFQWpHIVsoQypVl4M3gzAhWwangzhzLa+Pn5ef0HAjDhzVCS\n1BkqwIACPtiXJOkBAIHIRA6RAAAA\n'
p393
sg19
g102
sg21
I91
ssg182
Nsg183
I00
sg184
S''
sg185
(dp394
g2
(lp395
((g4
g5
tI-1
tp396
a((g7
g5
tI-1
tp397
a((g67
g68
tI-1
tp398
a((g70
g71
tI-1
tp399
a((g73
g74
tI-1
tp400
a((g193
g194
tI-1
tp401
a((g196
g197
tI-1
tp402
a((g199
g200
tI-1
tp403
a((g202
g203
tI-1
tp404
asg15
g202
sg16
(dp405
g18
Nsg19
g42
sg21
I8
ssg19
g22
sg21
I92
sg23
g203
sg18
(dp406
g18
(dp407
g87
I1
sg208
I0
sg209
I1
sg210
I1
sg211
g212
sg213
I1
sg214
I2
sg215
I0
sg216
I0
sg217
(dp408
g18
S'H4sIANj3H04C/2tgSs4rzS2o1EvOL0rVyy3NKclMLCpKrOSKL0pNzs8rLikqTS7hKmSEqOLKS4HI\nFjJ5M7SGMia1BxUya3gzejO1QhWklFQWpHIVsoQypVl4M3gzAhWwangzhzLa+Pn5ef0HAjDhzVCS\n1BkqcPirRkz/oaP2s2aCwEv7kiQ9AC+e0nyRAAAA\n'
p409
sg19
g102
sg21
I95
ssg220
I0
sg221
(dp410
g18
S'H4sIANj3H04C/2tgSs4rzS2o1EvOL0rVyy3NKclMLCpKrOSKL0pNzs8rLikqTS7hKmSEqOLKS4HI\nFjJ5M7SGMia1BxUya3gzejO1QhWklFQWpHIVsoQyZZp4M3gzAhWwangzhzLa+Pn5ef0HAjDhzVCS\n1BnKsaCNkQGES5L0ALP9TXGJAAAA\n'
p411
sg19
g102
sg21
I97
ssg224
I1
sg225
I3
sg226
(dp412
g18
S'H4sIANj3H04C/2tgSs4rzS2o1EvOL0rVyy3NKclMLCpKrOSKL0pNzs8rLikqTS7hKmSEqOLKS4HI\nFjJ5M7SGMia1BxUya3gzejO1QhWklFQWpHIVsoQyZZp4M3gzAhWwangzhzLa+Pn5ef0HAjDhzVCS\n1BnKwcjAwADCJUl6AJHzi6mJAAAA\n'
p413
sg19
g102
sg21
I94
ssg229
I1
sg230
I1
sg108
I0
sg231
I0
sg232
F0.5
sg233
I0
sg93
I0
sg103
I0
sg234
(dp414
g18
S'H4sIANj3H04C/2tgSs4rzS2o1EvOL0rVyy3NKclMLCpKrOSKL0pNzs8rLikqTS7hKmSEqOLKS4HI\nFjJ5M7SGMia1BxUya3gzejO1QhWklFQWpHIVsoQypVl4M3gzAhWwangzhzLa+Pn5ef0HAjDhzVCS\n1BkqYMt1fXGB7Sv7WTNBYKd9SZIeADd4AQGRAAAA\n'
p415
sg19
g102
sg21
I96
ssg237
F0.01
ssg19
g110
sg21
I93
sssg238
(dp416
g2
(lp417
((g4
g5
tI-1
tp418
a((g7
g5
tI-1
tp419
a((g67
g68
tI-1
tp420
a((g70
g71
tI-1
tp421
a((g73
g74
tI-1
tp422
a((g246
g247
tI-1
tp423
a((g249
g250
tI-1
tp424
a((g252
g253
tI-1
tp425
a((g255
g256
tI-1
tp426
asg15
g255
sg16
(dp427
g18
Nsg19
g42
sg21
I8
ssg19
g22
sg21
I89
sg23
g256
sg18
(dp428
g18
(dp429
g261
I1
sg262
S'i'
sg263
I1
sg108
I0
sg103
I0
sg264
I0
sg265
I0
sg93
I0
sg266
I1
sg267
F0.5
sg268
I1
sg269
I1
sg270
I1
sg271
I0
sg272
I1
sg273
I0
sg274
I0
sg275
I0
sg276
I1
ssg19
g110
sg21
I90
sssg277
I00
sg105
I00
sg278
S'RdGy'
p430
sg280
I01
sg281
S''
sg282
I8
sg283
(dp431
g18
Nsg19
g42
sg21
I80
ssg285
S'point_scalars'
p432
sg287
S''
sg288
I01
sg289
(dp433
g2
(lp434
((g4
g5
tI-1
tp435
a((g7
g5
tI-1
tp436
a((g67
g68
tI-1
tp437
a((g70
g71
tI-1
tp438
a((g73
g74
tI-1
tp439
a((g193
g194
tI-1
tp440
a((g298
g299
tI-1
tp441
a((g301
g302
tI-1
tp442
asg15
g301
sg16
(dp443
g18
Nsg19
g42
sg21
I8
ssg19
g22
sg21
I101
sg23
g302
sg18
(dp444
g18
(dp445
g87
g307
sg209
I1
sg308
F0.17000000000000001
sg213
I1
sg309
I0
sg310
S'point_scalars'
p446
sg312
S'%-#6.3g'
p447
sg314
F0.80000000000000004
sg315
F10
sg316
g317
sg224
I1
sg318
I0
sg229
I1
sg230
I1
sg108
I0
sg319
I256
sg320
I1
sg210
I1
sg282
I8
sg93
I0
sg217
(dp448
g18
S'H4sIANj3H04C/2tgSs4rzS2o1EvOL0rVyy3NKclMLCpKrOSKL0pNzs8rLikqTS7hKmSEqOLKS4HI\nFjJ5M7SGMia1BxUya3gzejO1QhWklFQWpHIVsoQypVl4M3gzAhWwangzhzLa+Pn5ef0HAjDhzVCS\n1BkqMGsmCLy0P/xVI6b/0FH7kiQ9AGpIg++RAAAA\n'
p449
sg19
g102
sg21
I104
ssg323
I0
sg103
I0
sg234
(dp450
g18
S'H4sIANj3H04C/2tgSs4rzS2o1EvOL0rVyy3NKclMLCpKrOSKL0pNzs8rLikqTS7hKmSEqOLKS4HI\nFjJ5M7SGMia1BxUya3gzejO1QhWklFQWpHIVsoQypVl4M3gzAhWwangzhzLa+Pn5ef0HAjDhzVCS\n1BkqMGsmCOy0rxZZ5/6wqsW+JEkPAHMFfKeRAAAA\n'
p451
sg19
g102
sg21
I103
sssg19
g110
sg21
I102
ssssg19
g110
sg21
I76
sssg184
S' colors and legends'
p452
sS'children'
p453
(dp454
g18
(lp455
(dp456
g2
(lp457
((g4
g5
tI-1
tp458
a((g30
g5
tI-1
tp459
a((g32
g33
tI-1
tp460
a((g35
g36
tI0
tp461
a((S'PipelineBase'
p462
S'enthought.mayavi.core.pipeline_base'
p463
tI0
tp464
a((S'Module'
p465
S'enthought.mayavi.core.module'
p466
tI0
tp467
a((S'Surface'
p468
S'enthought.mayavi.modules.surface'
p469
tI0
tp470
asg15
g468
sg16
(dp471
g18
Nsg19
g42
sg21
I1
ssg19
g22
sg21
I38
sg23
g469
sg18
(dp472
g18
(dp473
S'enable_contours'
p474
I00
sS'_widget_state'
p475
(dp476
g18
(lp477
sg19
S'list'
p478
sg21
I45
ssg45
S'Surface'
p479
sS'output_info'
p480
(dp481
g2
(lp482
((g4
g5
tI-1
tp483
a((S'PipelineInfo'
p484
S'enthought.mayavi.core.pipeline_info'
p485
tI-1
tp486
asg15
g484
sg16
(dp487
g18
Nsg19
g42
sg21
I1
ssg19
g22
sg21
I40
sg23
g485
sg18
(dp488
g18
(dp489
S'attribute_types'
p490
(dp491
g18
(lp492
sg19
g478
sg21
I42
ssS'datasets'
p493
(dp494
g18
(lp495
S'none'
p496
asg19
g478
sg21
I43
ssS'attributes'
p497
(dp498
g18
(lp499
sg19
g478
sg21
I44
sssg19
g110
sg21
I41
sssS'actor'
p500
(dp501
g2
(lp502
((g4
g5
tI-1
tp503
a((g30
g5
tI-1
tp504
a((g32
g33
tI-1
tp505
a((g35
g36
tI0
tp506
a((g462
g463
tI0
tp507
a((S'Component'
p508
S'enthought.mayavi.core.component'
p509
tI0
tp510
a((S'Actor'
p511
S'enthought.mayavi.components.actor'
p512
tI0
tp513
asg15
g511
sg16
(dp514
g18
Nsg19
g42
sg21
I1
ssg19
g22
sg21
I55
sg23
g512
sg18
(dp515
g18
(dp516
S'mapper'
p517
(dp518
g2
(lp519
((g4
g5
tI-1
tp520
a((g7
g5
tI-1
tp521
a((g67
g68
tI-1
tp522
a((g70
g71
tI-1
tp523
a((g73
g74
tI-1
tp524
a((S'Algorithm'
p525
S'tvtk_classes.algorithm'
p526
tI-1
tp527
a((S'AbstractMapper'
p528
S'tvtk_classes.abstract_mapper'
p529
tI-1
tp530
a((S'AbstractMapper3D'
p531
S'tvtk_classes.abstract_mapper3d'
p532
tI-1
tp533
a((S'Mapper'
p534
S'tvtk_classes.mapper'
p535
tI-1
tp536
a((S'DataSetMapper'
p537
S'tvtk_classes.data_set_mapper'
p538
tI-1
tp539
asg15
g537
sg16
(dp540
g18
Nsg19
g42
sg21
I8
ssg19
g22
sg21
I64
sg23
g538
sg18
(dp541
g18
(dp542
S'immediate_mode_rendering'
p543
I0
sS'immediate_mode_rendering_'
p544
I0
sS'scalar_mode'
p545
S'default'
p546
sS'static'
p547
I0
sS'static_'
p548
I0
sS'resolve_coincident_topology_z_shift'
p549
F0.01
sS'color_mode'
p550
g546
sS'interpolate_scalars_before_mapping'
p551
I0
sg103
I0
sS'resolve_coincident_topology_'
p552
I0
sS'use_lookup_table_scalar_range'
p553
I1
sS'abort_execute'
p554
I0
sS'release_data_flag'
p555
I0
sS'progress'
p556
F1
sS'scalar_range'
p557
(dp558
g18
S'H4sIANj3H04C/2tgSs4rzS2o1EvOL0rVyy3NKclMLCpKrOSKL0pNzs8rLikqTS7hKmSEqOLKS4HI\nFjJ5M7SGMia1BxUya3gzejO1QhWklFQWpHIVsoQypVl4M3gzAhWwangzhzLa+Pn5ef0HAjDhzVCS\n1BkqwIACPtiXJOkBAIHIRA6RAAAA\n'
p559
sg19
g102
sg21
I66
ssS'progress_text'
p560
NsS'use_lookup_table_scalar_range_'
p561
I1
sg108
I0
sS'scalar_mode_'
p562
I0
sS'global_immediate_mode_rendering_'
p563
I0
sS'scalar_visibility'
p564
I1
sS'abort_execute_'
p565
I0
sS'scalar_visibility_'
p566
I1
sg93
I0
sS'interpolate_scalars_before_mapping_'
p567
I0
sS'scalar_material_mode'
p568
g546
sS'release_data_flag_'
p569
I0
sS'render_time'
p570
F0
sS'global_immediate_mode_rendering'
p571
I0
sS'resolve_coincident_topology'
p572
S'off'
p573
sS'resolve_coincident_topology_polygon_offset_faces'
p574
I1
ssg19
g110
sg21
I65
sssg475
(dp575
g18
(lp576
sg19
g478
sg21
I57
ssg281
S''
sg480
Nsg500
(dp577
g2
(lp578
((g4
g5
tI-1
tp579
a((g7
g5
tI-1
tp580
a((g67
g68
tI-1
tp581
a((g70
g71
tI-1
tp582
a((g73
g74
tI-1
tp583
a((g193
g194
tI-1
tp584
a((S'Prop3D'
p585
S'tvtk_classes.prop3d'
p586
tI-1
tp587
a((g511
S'tvtk_classes.actor'
p588
tI-1
tp589
asg15
g511
sg16
(dp590
g18
Nsg19
g42
sg21
I8
ssg19
g22
sg21
I58
sg23
g588
sg18
(dp591
g18
(dp592
S'origin'
p593
(dp594
g18
S'H4sIANj3H04C/2tgSs4rzS2o1EvOL0rVyy3NKclMLCpKrOSKL0pNzs8rLikqTS7hKmSEqOLKS4HI\nFjJ5M7SGMia1BxUya3gzejO3QhWklFQWpHIVsoQypVl4M3gzAhWwangzhzLa+Pn5ef0HAjDhzVCS\n1BkqwYADlCTpAQD67GqfmQAAAA==\n'
p595
sg19
g102
sg21
I60
ssg136
(dp596
g18
S'H4sIANj3H04C/2tgSs4rzS2o1EvOL0rVyy3NKclMLCpKrOSKL0pNzs8rLikqTS7hKmSEqOLKS4HI\nFjJ5M7SGMia1BxUya3gzejO3QhWklFQWpHIVsoQypVl4M3gzAhWwangzhzLa+Pn5ef0HAjDhzVCS\n1BkqwQAGH+zR6ZIkPQDfyO6fmQAAAA==\n'
p597
sg19
g102
sg21
I62
ssg87
(dp598
g18
S'H4sIANj3H04C/2tgSs4rzS2o1EvOL0rVyy3NKclMLCpKrOSKL0pNzs8rLikqTS7hKmSEqOLKS4HI\nFjJ5M7SGMia1BxUya3gzejO3QhWklFQWpHIVsoQypVl4M3gzAhWwangzhzLa+Pn5ef0HAjDhzVCS\n1BkqwYAKGmCMkiQ9ABqDrf+ZAAAA\n'
p599
sg19
g102
sg21
I61
ssg103
I0
sg209
I1
sg229
I1
sg210
I1
sg230
I1
sg108
I0
sg93
I0
sg213
I1
sg234
(dp600
g18
S'H4sIANj3H04C/2tgSs4rzS2o1EvOL0rVyy3NKclMLCpKrOSKL0pNzs8rLikqTS7hKmSEqOLKS4HI\nFjJ5M7SGMia1BxUya3gzejO3QhWklFQWpHIVsoQypVl4M3gzAhWwangzhzLa+Pn5ef0HAjDhzVCS\n1BkqwYADlCTpAQD67GqfmQAAAA==\n'
p601
sg19
g102
sg21
I63
ssg224
I1
ssg19
g110
sg21
I59
sssS'visible'
p602
I01
sg287
S''
sS'input_info'
p603
Nsg182
NsS'property'
p604
(dp605
g2
(lp606
((g4
g5
tI-1
tp607
a((g7
g5
tI-1
tp608
a((g67
g68
tI-1
tp609
a((g70
g71
tI-1
tp610
a((g73
g74
tI-1
tp611
a((S'Property'
p612
S'tvtk_classes.property'
p613
tI-1
tp614
a((S'OpenGLProperty'
p615
S'tvtk_classes.open_gl_property'
p616
tI-1
tp617
asg15
g615
sg16
(dp618
g18
Nsg19
g42
sg21
I8
ssg19
g22
sg21
I67
sg23
g616
sg18
(dp619
g18
(dp620
S'diffuse_color'
p621
(dp622
g18
Nsg19
g42
sg21
I11
ssS'backface_culling'
p623
I0
sS'specular_power'
p624
F1.8999999999999999
sS'specular_color'
p625
(dp626
g18
Nsg19
g42
sg21
I11
ssS'ambient'
p627
F0.018499999999999999
sS'edge_visibility'
p628
I0
sS'edge_color'
p629
(dp630
g18
(F0
F0
F0
tp631
sg19
g20
sg21
I69
ssS'interpolation'
p632
S'gouraud'
p633
sg83
F0.50449999999999995
sS'frontface_culling'
p634
I0
sS'point_size'
p635
F16.766231536865234
sS'interpolation_'
p636
I1
sS'ambient_color'
p637
(dp638
g18
Nsg19
g42
sg21
I11
ssS'shading_'
p639
I0
sg108
I0
sS'backface_culling_'
p640
I0
sS'shading'
p641
I0
sS'diffuse'
p642
F1
sS'edge_visibility_'
p643
I0
sg93
I0
sS'specular'
p644
F0
sS'frontface_culling_'
p645
I0
sS'representation_'
p646
I2
sS'line_stipple_pattern'
p647
I65535
sg103
I0
sS'representation'
p648
S'surface'
p649
sS'line_stipple_repeat_factor'
p650
I1
sS'line_width'
p651
F2
ssg19
g110
sg21
I68
sssg184
S''
ssg19
g110
sg21
I56
sssg602
I01
sg287
S''
sg603
(dp652
g2
(lp653
((g4
g5
tI-1
tp654
a((g484
g485
tI-1
tp655
asg15
g484
sg16
(dp656
g18
Nsg19
g42
sg21
I1
ssg19
g22
sg21
I70
sg23
g485
sg18
(dp657
g18
(dp658
g490
(dp659
g18
(lp660
S'any'
p661
asg19
g478
sg21
I72
ssg493
(dp662
g18
(lp663
g661
asg19
g478
sg21
I73
ssg497
(dp664
g18
(lp665
g661
asg19
g478
sg21
I74
sssg19
g110
sg21
I71
sssg182
Nsg184
S' module'
p666
sS'contour'
p667
(dp668
g2
(lp669
((g4
g5
tI-1
tp670
a((g30
g5
tI-1
tp671
a((g32
g33
tI-1
tp672
a((g35
g36
tI0
tp673
a((g462
g463
tI0
tp674
a((g508
g509
tI0
tp675
a((S'Contour'
p676
S'enthought.mayavi.components.contour'
p677
tI0
tp678
asg15
g676
sg16
(dp679
g18
Nsg19
g42
sg21
I1
ssg19
g22
sg21
I46
sg23
g677
sg18
(dp680
g18
(dp681
g475
(dp682
g18
(lp683
sg19
g478
sg21
I48
ssg281
S''
sS'auto_contours'
p684
I01
sg603
NsS'_current_range'
p685
(dp686
g18
(F0.071657225489616394
F7.6595492362976074
tp687
sg19
g20
sg21
I49
ssS'filled_contours'
p688
I01
sg602
I01
sg287
S''
sS'_cont_filt'
p689
(dp690
g2
(lp691
((g4
g5
tI-1
tp692
a((g7
g5
tI-1
tp693
a((g67
g68
tI-1
tp694
a((g70
g71
tI-1
tp695
a((g73
g74
tI-1
tp696
a((g525
g526
tI-1
tp697
a((S'PolyDataAlgorithm'
p698
S'tvtk_classes.poly_data_algorithm'
p699
tI-1
tp700
a((S'ContourFilter'
p701
S'tvtk_classes.contour_filter'
p702
tI-1
tp703
asg15
g701
sg16
(dp704
g18
Nsg19
g42
sg21
I8
ssg19
g22
sg21
I50
sg23
g702
sg18
(dp705
g18
(dp706
S'compute_gradients'
p707
I0
sg108
I0
sS'array_component'
p708
I0
sg560
NsS'use_scalar_tree_'
p709
I0
sg565
I0
sS'compute_scalars_'
p710
I1
sS'compute_normals'
p711
I1
sS'compute_scalars'
p712
I1
sS'use_scalar_tree'
p713
I0
sS'compute_gradients_'
p714
I0
sg554
I0
sg93
I0
sg555
I0
sS'compute_normals_'
p715
I1
sg569
I0
sg556
F1
sS'number_of_contours'
p716
I10
sg103
I0
ssg19
g110
sg21
I51
sssS'_traits_cache_minimum_contour'
p717
F0.071657225489616394
sS'contours'
p718
(dp719
g18
(lp720
F1
asg19
g478
sg21
I52
ssS'_fill_cont_filt'
p721
(dp722
g2
(lp723
((g4
g5
tI-1
tp724
a((g7
g5
tI-1
tp725
a((g67
g68
tI-1
tp726
a((g70
g71
tI-1
tp727
a((g73
g74
tI-1
tp728
a((g525
g526
tI-1
tp729
a((g698
g699
tI-1
tp730
a((S'BandedPolyDataContourFilter'
p731
S'tvtk_classes.banded_poly_data_contour_filter'
p732
tI-1
tp733
asg15
g731
sg16
(dp734
g18
Nsg19
g42
sg21
I8
ssg19
g22
sg21
I53
sg23
g732
sg18
(dp735
g18
(dp736
g93
I0
sS'clipping'
p737
I1
sg565
I0
sS'clipping_'
p738
I1
sg545
S'value'
p739
sS'generate_contour_edges'
p740
I0
sg560
Nsg103
I0
sg108
I0
sg554
I0
sg562
I1
sg555
I0
sg569
I0
sg556
F1
sg716
I10
sS'generate_contour_edges_'
p741
I0
ssg19
g110
sg21
I54
sssg480
NsS'show_filled_contours'
p742
I01
sS'auto_update_range'
p743
I01
sg182
Nsg716
I10
sg184
S''
sS'_traits_cache_maximum_contour'
p744
F7.6595492362976074
ssg19
g110
sg21
I47
sssS'icon'
p745
S'module.ico'
p746
ssg19
g110
sg21
I39
ssasg19
g478
sg21
I37
ssg745
S'modulemanager.ico'
p747
ssg19
g110
sg21
I4
sssg45
S'Mayavi Envisage Engine'
p748
sS'scene_factory'
p749
(dp750
g2
(lp751
sg15
S'function'
p752
sg16
(dp753
g18
Nsg19
g42
sg21
I1
ssg19
g22
sg21
I105
sg23
S'__builtin__'
p754
sg18
(dp755
g18
(dp756
sg19
g110
sg21
I106
sssS'scenes'
p757
(dp758
g18
(lp759
(dp760
g2
(lp761
((g4
g5
tI-1
tp762
a((g30
g5
tI-1
tp763
a((g32
g33
tI-1
tp764
a((g35
g36
tI0
tp765
a((S'Scene'
p766
S'enthought.mayavi.core.scene'
p767
tI0
tp768
asg15
g766
sg16
(dp769
g18
Nsg19
g42
sg21
I1
ssg19
g22
sg21
I108
sg23
g767
sg18
(dp770
g18
(dp771
g45
VMayavi Scene 1
p772
sS'scene'
p773
(dp774
g2
(lp775
((g4
g5
tI-1
tp776
a((S'MWidget'
p777
S'enthought.pyface.i_widget'
p778
tI-1
tp779
a((S'Widget'
p780
S'enthought.pyface.ui.wx.widget'
p781
tI-1
tp782
a((g30
g5
tI-1
tp783
a((S'TVTKScene'
p784
S'enthought.tvtk.pyface.tvtk_scene'
p785
tI0
tp786
a((g766
S'enthought.tvtk.pyface.ui.wx.scene'
p787
tI0
tp788
a((S'DecoratedScene'
p789
S'enthought.tvtk.pyface.ui.wx.decorated_scene'
p790
tI0
tp791
asg15
g789
sg16
(dp792
g18
Nsg19
g42
sg21
I1
ssg19
g22
sg21
I110
sg23
g790
sg18
(dp793
g18
(dp794
S'picker'
p795
(dp796
g2
(lp797
((g4
g5
tI-1
tp798
a((S'Picker'
p799
S'enthought.tvtk.pyface.picker'
p800
tI0
tp801
asg15
g799
sg16
(dp802
g18
Nsg19
g42
sg21
I1
ssg19
g22
sg21
I112
sg23
g800
sg18
(dp803
g18
(dp804
S'p_mapper'
p805
(dp806
g2
(lp807
((g4
g5
tI-1
tp808
a((g7
g5
tI-1
tp809
a((g67
g68
tI-1
tp810
a((g70
g71
tI-1
tp811
a((g73
g74
tI-1
tp812
a((g525
g526
tI-1
tp813
a((g528
g529
tI-1
tp814
a((g531
g532
tI-1
tp815
a((g534
g535
tI-1
tp816
a((S'PolyDataMapper'
p817
S'tvtk_classes.poly_data_mapper'
p818
tI-1
tp819
asg15
g817
sg16
(dp820
g18
Nsg19
g42
sg21
I8
ssg19
g22
sg21
I114
sg23
g818
sg18
(dp821
g18
(dp822
g543
I0
sg544
I0
sg545
g546
sg547
I0
sg93
I0
sg549
F0.01
sS'ghost_level'
p823
I0
sg550
g546
sg551
I0
sg103
I0
sg552
I0
sg553
I0
sg554
I0
sg555
I0
sg556
F0
sg557
(dp824
g18
S'H4sIANj3H04C/2tgSs4rzS2o1EvOL0rVyy3NKclMLCpKrOSKL0pNzs8rLikqTS7hKmSEqOLKS4HI\nFjJ5M7SGMia1BxUya3gzejO1QhWklFQWpHIVsoQypVl4M3gzAhWwangzhzLa+Pn5ef0HAjDhzVCS\n1BkqwIACPtiXJOkBAIHIRA6RAAAA\n'
p825
sg19
g102
sg21
I116
ssg560
Nsg561
I0
sg108
I0
sg563
I0
sg564
I1
sg565
I0
sg566
I1
sg548
I0
sg571
I0
sg567
I0
sg570
F0
sS'number_of_sub_pieces'
p826
I1
sg568
g546
sg569
I0
sS'piece'
p827
I0
sS'number_of_pieces'
p828
I1
sg572
g573
sg574
I1
ssg19
g110
sg21
I115
sssS'worldpicker'
p829
(dp830
g2
(lp831
((g4
g5
tI-1
tp832
a((g7
g5
tI-1
tp833
a((g67
g68
tI-1
tp834
a((g70
g71
tI-1
tp835
a((g73
g74
tI-1
tp836
a((S'AbstractPicker'
p837
S'tvtk_classes.abstract_picker'
p838
tI-1
tp839
a((S'WorldPointPicker'
p840
S'tvtk_classes.world_point_picker'
p841
tI-1
tp842
asg15
g840
sg16
(dp843
g18
Nsg19
g42
sg21
I8
ssg19
g22
sg21
I117
sg23
g841
sg18
(dp844
g18
(dp845
g103
I0
sg108
I0
sS'pick_from_list_'
p846
I0
sg93
I0
sS'pick_from_list'
p847
I0
ssg19
g110
sg21
I118
sssS'probe_data'
p848
(dp849
g2
(lp850
((g4
g5
tI-1
tp851
a((g7
g5
tI-1
tp852
a((g67
g68
tI-1
tp853
a((g70
g71
tI-1
tp854
a((g73
g74
tI-1
tp855
a((S'DataObject'
p856
S'tvtk_classes.data_object'
p857
tI-1
tp858
a((S'DataSet'
p859
S'tvtk_classes.data_set'
p860
tI-1
tp861
a((S'PointSet'
p862
S'tvtk_classes.point_set'
p863
tI-1
tp864
a((S'PolyData'
p865
S'tvtk_classes.poly_data'
p866
tI-1
tp867
asg15
g865
sg16
(dp868
g18
Nsg19
g42
sg21
I8
ssg19
g22
sg21
I119
sg23
g866
sg18
(dp869
g18
(dp870
S'update_piece'
p871
I0
sS'whole_extent'
p872
(dp873
g18
S'H4sIANj3H04C/2tgSs4rzS2o1EvOL0rVyy3NKclMLCpKrOSKL0pNzs8rLikqTS7hKmSEqOLKS4HI\nFjJ5M7SGMia1BxUya3gzerO1QhWklFQWpHIVsoQyZZp4M3gzAhWwangzhzLa+Pn5ef0HAjDhzVCS\n1BkqwQAEIC46XZKkBwA5VpuHmQAAAA==\n'
p874
sg19
g102
sg21
I121
ssS'update_number_of_pieces'
p875
I1
sg103
I0
sS'update_ghost_level'
p876
I0
sS'global_release_data_flag_'
p877
I0
sg93
I0
sS'update_extent'
p878
(dp879
g18
S'H4sIANj3H04C/2tgSs4rzS2o1EvOL0rVyy3NKclMLCpKrOSKL0pNzs8rLikqTS7hKmSEqOLKS4HI\nFjJ5M7SGMia1BxUya3gzerO1QhWklFQWpHIVsoQyZZp4M3gzAhWwangzhzLa+Pn5ef0HAjDhzVCS\n1BkqwQAEIC46XZKkBwA5VpuHmQAAAA==\n'
p880
sg19
g102
sg21
I123
ssS'request_exact_extent_'
p881
I0
sg108
I0
sg555
I0
sS'global_release_data_flag'
p882
I0
sg569
I0
sS'maximum_number_of_pieces'
p883
I-1
sS'request_exact_extent'
p884
I0
sS'whole_bounding_box'
p885
(dp886
g18
S'H4sIANj3H04C/2tgSs4rzS2o1EvOL0rVyy3NKclMLCpKrOSKL0pNzs8rLikqTS7hKmSEqOLKS4HI\nFjJ5M7SGMia1BxUya3gzerO1QhWklFQWpHIVsoQypVl4M3gzAhWwangzhzLa+Pn5ef0HAjDhzVCS\n1BlqwIACPuwnxC9J0gMAMIASILEAAAA=\n'
p887
sg19
g102
sg21
I122
sssg19
g110
sg21
I120
sssS'cellpicker'
p888
(dp889
g2
(lp890
((g4
g5
tI-1
tp891
a((g7
g5
tI-1
tp892
a((g67
g68
tI-1
tp893
a((g70
g71
tI-1
tp894
a((g73
g74
tI-1
tp895
a((g837
g838
tI-1
tp896
a((S'AbstractPropPicker'
p897
S'tvtk_classes.abstract_prop_picker'
p898
tI-1
tp899
a((g799
S'tvtk_classes.picker'
p900
tI-1
tp901
a((S'CellPicker'
p902
S'tvtk_classes.cell_picker'
p903
tI-1
tp904
asg15
g902
sg16
(dp905
g18
Nsg19
g42
sg21
I8
ssg19
g22
sg21
I124
sg23
g903
sg18
(dp906
g18
(dp907
g93
I0
sg847
I0
sg108
I0
sg846
I0
sg103
I0
sg225
F0.025000000000000001
ssg19
g110
sg21
I125
sssS'p_actor'
p908
(dp909
g2
(lp910
((g4
g5
tI-1
tp911
a((g7
g5
tI-1
tp912
a((g67
g68
tI-1
tp913
a((g70
g71
tI-1
tp914
a((g73
g74
tI-1
tp915
a((g193
g194
tI-1
tp916
a((g585
g586
tI-1
tp917
a((g511
g588
tI-1
tp918
asg15
g511
sg16
(dp919
g18
Nsg19
g42
sg21
I8
ssg19
g22
sg21
I126
sg23
g588
sg18
(dp920
g18
(dp921
g593
(dp922
g18
S'H4sIANj3H04C/2tgSs4rzS2o1EvOL0rVyy3NKclMLCpKrOSKL0pNzs8rLikqTS7hKmSEqOLKS4HI\nFjJ5M7SGMia1BxUya3gzejO3QhWklFQWpHIVsoQypVl4M3gzAhWwangzhzLa+Pn5ef0HAjDhzVCS\n1BkqwYADlCTpAQD67GqfmQAAAA==\n'
p923
sg19
g102
sg21
I128
ssg136
(dp924
g18
S'H4sIANj3H04C/2tgSs4rzS2o1EvOL0rVyy3NKclMLCpKrOSKL0pNzs8rLikqTS7hKmSEqOLKS4HI\nFjJ5M7SGMia1BxUya3gzejO3QhWklFQWpHIVsoQypVl4M3gzAhWwangzhzLa+Pn5ef0HAjDhzVCS\n1BkqwQAGH+zR6ZIkPQDfyO6fmQAAAA==\n'
p925
sg19
g102
sg21
I130
ssg87
(dp926
g18
S'H4sIANj3H04C/2tgSs4rzS2o1EvOL0rVyy3NKclMLCpKrOSKL0pNzs8rLikqTS7hKmSEqOLKS4HI\nFjJ5M7SGMia1BxUya3gzejO3QhWklFQWpHIVsoQypVl4M3gzAhWwangzhzLa+Pn5ef0HAjDhzVCS\n1BkqwYAKGmCMkiQ9ABqDrf+ZAAAA\n'
p927
sg19
g102
sg21
I129
ssg103
I0
sg209
I1
sg229
I0
sg210
I0
sg230
I1
sg108
I0
sg93
I0
sg213
I0
sg234
(dp928
g18
S'H4sIANj3H04C/2tgSs4rzS2o1EvOL0rVyy3NKclMLCpKrOSKL0pNzs8rLikqTS7hKmSEqOLKS4HI\nFjJ5M7SGMia1BxUya3gzejO3QhWklFQWpHIVsoQypVl4M3gzAhWwangzhzLa+Pn5ef0HAjDhzVCS\n1BkqwYADlCTpAQD67GqfmQAAAA==\n'
p929
sg19
g102
sg21
I131
ssg224
I0
ssg19
g110
sg21
I127
sssS'p_source'
p930
(dp931
g2
(lp932
((g4
g5
tI-1
tp933
a((g7
g5
tI-1
tp934
a((g67
g68
tI-1
tp935
a((g70
g71
tI-1
tp936
a((g73
g74
tI-1
tp937
a((g525
g526
tI-1
tp938
a((g698
g699
tI-1
tp939
a((S'Axes'
p940
S'tvtk_classes.axes'
p941
tI-1
tp942
asg15
g940
sg16
(dp943
g18
Nsg19
g42
sg21
I8
ssg19
g22
sg21
I132
sg23
g941
sg18
(dp944
g18
(dp945
g593
(dp946
g18
S'H4sIANj3H04C/2tgSs4rzS2o1EvOL0rVyy3NKclMLCpKrOSKL0pNzs8rLikqTS7hKmSEqOLKS4HI\nFjJ5M7SGMia1BxUya3gzejO3QhWklFQWpHIVsoQypVl4M3gzAhWwangzhzLa+Pn5ef0HAjDhzVCS\n1BkqwYADlCTpAQD67GqfmQAAAA==\n'
p947
sg19
g102
sg21
I134
ssS'scale_factor'
p948
F1
sg715
I1
sg565
I0
sg560
Nsg711
I1
sg103
I0
sS'symmetric'
p949
I1
sg108
I0
sg554
I0
sg93
I0
sg555
I0
sg569
I0
sg556
F0
sS'symmetric_'
p950
I1
ssg19
g110
sg21
I133
sssg225
F0.025000000000000001
sS'pointpicker'
p951
(dp952
g2
(lp953
((g4
g5
tI-1
tp954
a((g7
g5
tI-1
tp955
a((g67
g68
tI-1
tp956
a((g70
g71
tI-1
tp957
a((g73
g74
tI-1
tp958
a((g837
g838
tI-1
tp959
a((g897
g898
tI-1
tp960
a((g799
g900
tI-1
tp961
a((S'PointPicker'
p962
S'tvtk_classes.point_picker'
p963
tI-1
tp964
asg15
g962
sg16
(dp965
g18
Nsg19
g42
sg21
I8
ssg19
g22
sg21
I135
sg23
g963
sg18
(dp966
g18
(dp967
g93
I0
sg847
I0
sg108
I0
sg846
I0
sg103
I0
sg225
F0.025000000000000001
ssg19
g110
sg21
I136
ssssg19
g110
sg21
I113
sssS'anti_aliasing_frames'
p968
I8
sS'marker'
p969
(dp970
g2
(lp971
((g4
g5
tI-1
tp972
a((g7
g5
tI-1
tp973
a((g67
g68
tI-1
tp974
a((g70
g71
tI-1
tp975
a((g73
g74
tI-1
tp976
a((g246
g247
tI-1
tp977
a((S'OrientationMarkerWidget'
p978
S'tvtk_classes.orientation_marker_widget'
p979
tI-1
tp980
asg15
g978
sg16
(dp981
g18
Nsg19
g42
sg21
I8
ssg19
g22
sg21
I137
sg23
g979
sg18
(dp982
g18
(dp983
g262
S'i'
sg264
I0
sg93
I0
sS'interactive_'
p984
I1
sg267
F0.55000001192092896
sg108
I0
sg265
I0
sg271
I0
sg103
I0
sg275
I0
sS'interactive'
p985
I1
ssg19
g110
sg21
I138
sssS'jpeg_progressive'
p986
I01
sS'axes'
p987
(dp988
g2
(lp989
((g4
g5
tI-1
tp990
a((g7
g5
tI-1
tp991
a((g67
g68
tI-1
tp992
a((g70
g71
tI-1
tp993
a((g73
g74
tI-1
tp994
a((g193
g194
tI-1
tp995
a((g585
g586
tI-1
tp996
a((S'AxesActor'
p997
S'tvtk_classes.axes_actor'
p998
tI-1
tp999
asg15
g997
sg16
(dp1000
g18
Nsg19
g42
sg21
I8
ssg19
g22
sg21
I139
sg23
g998
sg18
(dp1001
g18
(dp1002
g593
(dp1003
g18
S'H4sIANj3H04C/2tgSs4rzS2o1EvOL0rVyy3NKclMLCpKrOSKL0pNzs8rLikqTS7hKmSEqOLKS4HI\nFjJ5M7SGMia1BxUya3gzejO3QhWklFQWpHIVsoQypVl4M3gzAhWwangzhzLa+Pn5ef0HAjDhzVCS\n1BkqwYADlCTpAQD67GqfmQAAAA==\n'
p1004
sg19
g102
sg21
I141
ssg87
(dp1005
g18
S'H4sIANj3H04C/2tgSs4rzS2o1EvOL0rVyy3NKclMLCpKrOSKL0pNzs8rLikqTS7hKmSEqOLKS4HI\nFjJ5M7SGMia1BxUya3gzejO3QhWklFQWpHIVsoQypVl4M3gzAhWwangzhzLa+Pn5ef0HAjDhzVCS\n1BkqwYAKGmCMkiQ9ABqDrf+ZAAAA\n'
p1006
sg19
g102
sg21
I142
ssS'normalized_tip_length'
p1007
(dp1008
g18
S'H4sIANj3H04C/2tgSs4rzS2o1EvOL0rVyy3NKclMLCpKrOSKL0pNzs8rLikqTS7hKmSEqOLKS4HI\nFjJ5M7SGMia1BxUya3gzejO3QhWklFQWpHIVsoQypVl4M3gzAhWwangzhzLa+Pn5ef0HAjDhzVCS\n1BkqMWsmCNy0R6dLkvQABNrUG5kAAAA=\n'
p1009
sg19
g102
sg21
I143
ssg209
I1
sg210
I1
sS'sphere_resolution'
p1010
I16
sg213
I1
sg93
I0
sg136
(dp1011
g18
S'H4sIANj3H04C/2tgSs4rzS2o1EvOL0rVyy3NKclMLCpKrOSKL0pNzs8rLikqTS7hKmSEqOLKS4HI\nFjJ5M7SGMia1BxUya3gzejO3QhWklFQWpHIVsoQypVl4M3gzAhWwangzhzLa+Pn5ef0HAjDhzVCS\n1BkqwQAGH+zR6ZIkPQDfyO6fmQAAAA==\n'
p1012
sg19
g102
sg21
I144
ssS'cylinder_radius'
p1013
F0.050000000000000003
sS'cone_resolution'
p1014
I16
sS'cylinder_resolution'
p1015
I16
sS'axis_labels'
p1016
I1
sS'total_length'
p1017
(dp1018
g18
S'H4sIANj3H04C/2tgSs4rzS2o1EvOL0rVyy3NKclMLCpKrOSKL0pNzs8rLikqTS7hKmSEqOLKS4HI\nFjJ5M7SGMia1BxUya3gzejO3QhWklFQWpHIVsoQypVl4M3gzAhWwangzhzLa+Pn5ef0HAjDhzVCS\n1BkqwQAGH+zR6ZIkPQDfyO6fmQAAAA==\n'
p1019
sg19
g102
sg21
I145
ssg224
I1
sS'tip_type'
p1020
S'cone'
p1021
sS'x_axis_label_text'
p1022
S'X'
sS'cone_radius'
p1023
F0.40000000000000002
sS'z_axis_label_text'
p1024
S'Z'
sg229
I1
sg230
I1
sg108
I0
sS'axis_labels_'
p1025
I1
sS'y_axis_label_text'
p1026
S'Y'
sS'shaft_type_'
p1027
I0
sS'sphere_radius'
p1028
F0.5
sS'normalized_shaft_length'
p1029
(dp1030
g18
S'H4sIANj3H04C/2tgSs4rzS2o1EvOL0rVyy3NKclMLCpKrOSKL0pNzs8rLikqTS7hKmSEqOLKS4HI\nFjJ5M7SGMia1BxUya3gzejO3QhWklFQWpHIVsoQypVl4M3gzAhWwangzhzLa+Pn5ef0HAjDhzVCS\n1BkqYQwGj+3R6ZIkPQB1t6TsmQAAAA==\n'
p1031
sg19
g102
sg21
I146
ssS'shaft_type'
p1032
S'cylinder'
p1033
sS'normalized_label_position'
p1034
(dp1035
g18
S'H4sIANj3H04C/2tgSs4rzS2o1EvOL0rVyy3NKclMLCpKrOSKL0pNzs8rLikqTS7hKmSEqOLKS4HI\nFjJ5M7SGMia1BxUya3gzejO3QhWklFQWpHIVsoQypVl4M3gzAhWwangzhzLa+Pn5ef0HAjDhzVCS\n1BkqwQAGH+zR6ZIkPQDfyO6fmQAAAA==\n'
p1036
sg19
g102
sg21
I147
ssg103
I0
sg234
(dp1037
g18
S'H4sIANj3H04C/2tgSs4rzS2o1EvOL0rVyy3NKclMLCpKrOSKL0pNzs8rLikqTS7hKmSEqOLKS4HI\nFjJ5M7SGMia1BxUya3gzejO3QhWklFQWpHIVsoQypVl4M3gzAhWwangzhzLa+Pn5ef0HAjDhzVCS\n1BkqwYADlCTpAQD67GqfmQAAAA==\n'
p1038
sg19
g102
sg21
I148
sssg19
g110
sg21
I140
sssS'magnification'
p1039
I1
sS'camera'
p1040
(dp1041
g2
(lp1042
((g4
g5
tI-1
tp1043
a((g7
g5
tI-1
tp1044
a((g67
g68
tI-1
tp1045
a((g70
g71
tI-1
tp1046
a((g73
g74
tI-1
tp1047
a((S'Camera'
p1048
S'tvtk_classes.camera'
p1049
tI-1
tp1050
a((S'OpenGLCamera'
p1051
S'tvtk_classes.open_gl_camera'
p1052
tI-1
tp1053
asg15
g1051
sg16
(dp1054
g18
Nsg19
g42
sg21
I8
ssg19
g22
sg21
I149
sg23
g1052
sg18
(dp1055
g18
(dp1056
S'distance'
p1057
F1
sS'view_plane_normal'
p1058
(dp1059
g18
S'H4sIANj3H04C/2tgSs4rzS2o1EvOL0rVyy3NKclMLCpKrOSKL0pNzs8rLikqTS7hKmSEqOLKS4HI\nFjJ5M7SGMia1BxUya3gzejO3QhWklFQWpHIVsoQypVl4M3gzAhWwangzhzLa+Pn5ef0HAjDhzVCS\n1BkqwQABDaj0B/uSJD0AnHsgdJkAAAA=\n'
p1060
sg19
g102
sg21
I151
ssS'window_center'
p1061
(dp1062
g18
S'H4sIANj3H04C/2tgSs4rzS2o1EvOL0rVyy3NKclMLCpKrOSKL0pNzs8rLikqTS7hKmSEqOLKS4HI\nFjJ5M7SGMia1BxUya3gzejO1QhWklFQWpHIVsoQypVl4M3gzAhWwangzhzLa+Pn5ef0HAjDhzVCS\n1BkqwIAGSpL0ACtwOO6RAAAA\n'
p1063
sg19
g102
sg21
I152
ssS'parallel_projection_'
p1064
I0
sS'left_eye'
p1065
I1
sS'parallel_scale'
p1066
F1
sS'parallel_projection'
p1067
I0
sS'view_up'
p1068
(dp1069
g18
S'H4sIANj3H04C/2tgSs4rzS2o1EvOL0rVyy3NKclMLCpKrOSKL0pNzs8rLikqTS7hKmSEqOLKS4HI\nFjJ5M7SGMia1BxUya3gzejO3QhWklFQWpHIVsoQypVl4M3gzAhWwangzhzLa+Pn5ef0HAjDhzVCS\n1BkqwYACPtjDWCVJegAcHEnjmQAAAA==\n'
p1070
sg19
g102
sg21
I153
ssS'use_horizontal_view_angle'
p1071
I0
sg93
I0
sS'focal_disk'
p1072
F1
sg108
I0
sg234
(dp1073
g18
S'H4sIANj3H04C/2tgSs4rzS2o1EvOL0rVyy3NKclMLCpKrOSKL0pNzs8rLikqTS7hKmSEqOLKS4HI\nFjJ5M7SGMia1BxUya3gzejO3QhWklFQWpHIVsoQypVl4M3gzAhWwangzhzLa+Pn5ef0HAjDhzVCS\n1BkqwYAVfLAvSdIDAFBUFn+ZAAAA\n'
p1074
sg19
g102
sg21
I157
ssS'clipping_range'
p1075
(dp1076
g18
S'H4sIANj3H04C/2tgSs4rzS2o1EvOL0rVyy3NKclMLCpKrOSKL0pNzs8rLikqTS7hKmSEqOLKS4HI\nFjJ5M7SGMia1BxUya3gzejO1QhWklFQWpHIVsoQypVl4M3gzAhWwangzhzLa+Pn5ef0HAjDhzVCS\n1BkqUC2yzv1hVYs9iBRx6HcoSdIDABZ3KW+RAAAA\n'
p1077
sg19
g102
sg21
I155
ssS'eye_angle'
p1078
F2
sS'view_shear'
p1079
(dp1080
g18
S'H4sIANj3H04C/2tgSs4rzS2o1EvOL0rVyy3NKclMLCpKrOSKL0pNzs8rLikqTS7hKmSEqOLKS4HI\nFjJ5M7SGMia1BxUya3gzejO3QhWklFQWpHIVsoQypVl4M3gzAhWwangzhzLa+Pn5ef0HAjDhzVCS\n1BkqwYAVfLAvSdIDAFBUFn+ZAAAA\n'
p1081
sg19
g102
sg21
I154
ssg103
I0
sS'view_angle'
p1082
F30
sS'thickness'
p1083
F1000
sS'focal_point'
p1084
(dp1085
g18
S'H4sIANj3H04C/2tgSs4rzS2o1EvOL0rVyy3NKclMLCpKrOSKL0pNzs8rLikqTS7hKmSEqOLKS4HI\nFjJ5M7SGMia1BxUya3gzejO3QhWklFQWpHIVsoQypVl4M3gzAhWwangzhzLa+Pn5ef0HAjDhzVCS\n1BkqwYADlCTpAQD67GqfmQAAAA==\n'
p1086
sg19
g102
sg21
I156
ssS'use_horizontal_view_angle_'
p1087
I0
ssg19
g110
sg21
I150
sssS'_renderer'
p1088
(dp1089
g2
(lp1090
((g4
g5
tI-1
tp1091
a((g7
g5
tI-1
tp1092
a((g67
g68
tI-1
tp1093
a((g70
g71
tI-1
tp1094
a((g73
g74
tI-1
tp1095
a((S'Viewport'
p1096
S'tvtk_classes.viewport'
p1097
tI-1
tp1098
a((S'Renderer'
p1099
S'tvtk_classes.renderer'
p1100
tI-1
tp1101
asg15
g1099
sg16
(dp1102
g18
Nsg19
g42
sg21
I8
ssg19
g22
sg21
I158
sg23
g1100
sg18
(dp1103
g18
(dp1104
S'layer'
p1105
I0
sS'draw_'
p1106
I1
sg627
(dp1107
g18
S'H4sIANj3H04C/2tgSs4rzS2o1EvOL0rVyy3NKclMLCpKrOSKL0pNzs8rLikqTS7hKmSEqOLKS4HI\nFjJ5M7SGMia1BxUya3gzejO3QhWklFQWpHIVsoQypVl4M3gzAhWwangzhzLa+Pn5ef0HAjDhzVCS\n1BkqwQAGH+zR6ZIkPQDfyO6fmQAAAA==\n'
p1108
sg19
g102
sg21
I160
ssS'two_sided_lighting_'
p1109
I1
sS'view_point'
p1110
(dp1111
g18
S'H4sIANj3H04C/2tgSs4rzS2o1EvOL0rVyy3NKclMLCpKrOSKL0pNzs8rLikqTS7hKmSEqOLKS4HI\nFjJ5M7SGMia1BxUya3gzejO3QhWklFQWpHIVsoQypVl4M3gzAhWwangzhzLa+Pn5ef0HAjDhzVCS\n1BkqwYADlCTpAQD67GqfmQAAAA==\n'
p1112
sg19
g102
sg21
I161
ssS'near_clipping_plane_tolerance'
p1113
F0
sS'erase'
p1114
I1
sS'aspect'
p1115
(dp1116
g18
S'H4sIANj3H04C/2tgSs4rzS2o1EvOL0rVyy3NKclMLCpKrOSKL0pNzs8rLikqTS7hKmSEqOLKS4HI\nFjJ5M7SGMia1BxUya3gzejO1QhWklFQWpHIVsoQypVl4M3gzAhWwangzhzLa+Pn5ef0HAjDhzVCS\n1BkqkHf+vf9Rx+/2DGDwwb4kSQ8AJZ1O1pEAAAA=\n'
p1117
sg19
g102
sg21
I162
ssS'pixel_aspect'
p1118
(dp1119
g18
S'H4sIANj3H04C/2tgSs4rzS2o1EvOL0rVyy3NKclMLCpKrOSKL0pNzs8rLikqTS7hKmSEqOLKS4HI\nFjJ5M7SGMia1BxUya3gzejO1QhWklFQWpHIVsoQypVl4M3gzAhWwangzhzLa+Pn5ef0HAjDhzVCS\n1BkqwAAGH+xhdEmSHgBnOGdykQAAAA==\n'
p1120
sg19
g102
sg21
I163
ssS'erase_'
p1121
I1
sS'use_depth_peeling_'
p1122
I0
sS'use_depth_peeling'
p1123
I0
sS'gradient_background'
p1124
I00
sS'world_point'
p1125
(dp1126
g18
S'H4sIANj3H04C/2tgSs4rzS2o1EvOL0rVyy3NKclMLCpKrOSKL0pNzs8rLikqTS7hKmSEqOLKS4HI\nFjJ5M7SGMia1BxUya3gzerO0QhWklFQWpHIVsoQypVl4M3gzAhWwangzhzLa+Pn5ef0HAjDhzVCS\n1BmqwEAAlCTpAQArcBtwoQAAAA==\n'
p1127
sg19
g102
sg21
I164
ssS'draw'
p1128
I1
sS'allocated_render_time'
p1129
F10000
sS'maximum_number_of_peels'
p1130
I4
sg108
I0
sS'occlusion_ratio'
p1131
F0
sS'background'
p1132
(dp1133
g18
(F0.49803921568627452
F0.49803921568627452
F0.49803921568627452
tp1134
sg19
g20
sg21
I165
ssS'two_sided_lighting'
p1135
I1
sg984
I1
sS'background2'
p1136
(dp1137
g18
(F0.20000000000000001
F0.20000000000000001
F0.20000000000000001
tp1138
sg19
g20
sg21
I167
ssS'viewport'
p1139
(dp1140
g18
S'H4sIANj3H04C/2tgSs4rzS2o1EvOL0rVyy3NKclMLCpKrOSKL0pNzs8rLikqTS7hKmSEqOLKS4HI\nFjJ5M7SGMia1BxUya3gzerO0QhWklFQWpHIVsoQypVl4M3gzAhWwangzhzLa+Pn5ef0HAjDhzVCS\n1BmqwIAVfLCH0SVJegBnOETsoQAAAA==\n'
p1141
sg19
g102
sg21
I168
ssS'display_point'
p1142
(dp1143
g18
S'H4sIANj3H04C/2tgSs4rzS2o1EvOL0rVyy3NKclMLCpKrOSKL0pNzs8rLikqTS7hKmSEqOLKS4HI\nFjJ5M7SGMia1BxUya3gzejO3QhWklFQWpHIVsoQypVl4M3gzAhWwangzhzLa+Pn5ef0HAjDhzVCS\n1BkqwYADlCTpAQD67GqfmQAAAA==\n'
p1144
sg19
g102
sg21
I166
ssS'backing_store_'
p1145
I0
sS'automatic_light_creation_'
p1146
I1
sS'automatic_light_creation'
p1147
I1
sg93
I0
sS'backing_store'
p1148
I0
sS'light_follow_camera'
p1149
I1
sg103
I0
sS'light_follow_camera_'
p1150
I1
sS'gradient_background_'
p1151
I0
sg985
I1
ssg19
g110
sg21
I159
sssS'line_smoothing'
p1152
I00
sS'foreground'
p1153
(dp1154
g18
Nsg19
g42
sg21
I11
ssS'parent'
p1155
NsS'point_smoothing'
p1156
I00
sg1132
(dp1157
g18
Nsg19
g42
sg21
I165
ssS'off_screen_rendering'
p1158
I00
sS'polygon_smoothing'
p1159
I00
sS'stereo'
p1160
I00
sS'disable_render'
p1161
I00
sS'jpeg_quality'
p1162
I95
sS'show_axes'
p1163
I00
sg1067
I00
sS'light_manager'
p1164
(dp1165
g2
(lp1166
((g4
g5
tI-1
tp1167
a((S'LightManager'
p1168
S'enthought.tvtk.pyface.light_manager'
p1169
tI0
tp1170
asg15
g1168
sg16
(dp1171
g18
Nsg19
g42
sg21
I1
ssg19
g22
sg21
I169
sg23
g1169
sg18
(dp1172
g18
(dp1173
S'light_mode'
p1174
S'raymond'
p1175
sS'lights'
p1176
(dp1177
g18
(lp1178
(dp1179
g2
(lp1180
((g4
g5
tI-1
tp1181
a((S'CameraLight'
p1182
g1169
tI0
tp1183
asg15
g1182
sg16
(dp1184
g18
Nsg19
g42
sg21
I1
ssg19
g22
sg21
I172
sg23
g1169
sg18
(dp1185
g18
(dp1186
S'activate'
p1187
I01
sS'elevation'
p1188
F45
sg95
(dp1189
g18
Nsg19
g42
sg21
I11
ssS'source'
p1190
(dp1191
g2
(lp1192
((g4
g5
tI-1
tp1193
a((g7
g5
tI-1
tp1194
a((g67
g68
tI-1
tp1195
a((g70
g71
tI-1
tp1196
a((g73
g74
tI-1
tp1197
a((S'Light'
p1198
S'tvtk_classes.light'
p1199
tI-1
tp1200
asg15
g1198
sg16
(dp1201
g18
Nsg19
g42
sg21
I8
ssg19
g22
sg21
I174
sg23
g1199
sg18
(dp1202
g18
(dp1203
g625
(dp1204
g18
Nsg19
g42
sg21
I11
ssS'attenuation_values'
p1205
(dp1206
g18
S'H4sIANj3H04C/2tgSs4rzS2o1EvOL0rVyy3NKclMLCpKrOSKL0pNzs8rLikqTS7hKmSEqOLKS4HI\nFjJ5M7SGMia1BxUya3gzejO3QhWklFQWpHIVsoQypVl4M3gzAhWwangzhzLa+Pn5ef0HAjDhzVCS\n1BkqwQAGH+wZ0EBJkh4Ak4CxA5kAAAA=\n'
p1207
sg19
g102
sg21
I178
ssS'switch_'
p1208
I1
sS'exponent'
p1209
F1
sS'switch'
p1210
I1
sg621
(dp1211
g18
Nsg19
g42
sg21
I11
ssg637
(dp1212
g18
Nsg19
g42
sg21
I69
ssg93
I0
sS'light_type_'
p1213
I2
sS'positional'
p1214
I0
sg108
I0
sS'intensity'
p1215
F1
sS'light_type'
p1216
S'camera_light'
p1217
sg103
I0
sg234
(dp1218
g18
S'H4sIANj3H04C/2tgSs4rzS2o1EvOL0rVyy3NKclMLCpKrOSKL0pNzs8rLikqTS7hKmSEqOLKS4HI\nFjJ5M7SGMia1BxUya3gzejO3QhWklFQWpHIVsoQypVl4M3gzAhWwangzhzLa+Pn5ef0HAjDhzVCS\n1Bkq8Q/E/n/f/qx1fdq8Bc/sGcDggX1Jkh4AGCjHt5kAAAA=\n'
p1219
sg19
g102
sg21
I176
ssS'positional_'
p1220
I0
sS'cone_angle'
p1221
F30
sg1084
(dp1222
g18
S'H4sIANj3H04C/2tgSs4rzS2o1EvOL0rVyy3NKclMLCpKrOSKL0pNzs8rLikqTS7hKmSEqOLKS4HI\nFjJ5M7SGMia1BxUya3gzejO3QhWklFQWpHIVsoQypVl4M3gzAhWwangzhzLa+Pn5ef0HAjDhzVCS\n1BkqwYADlCTpAQD67GqfmQAAAA==\n'
p1223
sg19
g102
sg21
I177
sssg19
g110
sg21
I175
sssg1215
F1
sS'azimuth'
p1224
F45
sS'glyph'
p1225
(dp1226
g2
(lp1227
((g4
g5
tI-1
tp1228
a((S'LightGlyph'
p1229
g1169
tI0
tp1230
asg15
g1229
sg16
(dp1231
g18
Nsg19
g42
sg21
I1
ssg19
g22
sg21
I179
sg23
g1169
sg18
(dp1232
g18
(dp1233
S'el'
p1234
F45
sS'az'
p1235
F45
sg500
(dp1236
g2
(lp1237
((g4
g5
tI-1
tp1238
a((g7
g5
tI-1
tp1239
a((g67
g68
tI-1
tp1240
a((g70
g71
tI-1
tp1241
a((g73
g74
tI-1
tp1242
a((g193
g194
tI-1
tp1243
a((g585
g586
tI-1
tp1244
a((g511
g588
tI-1
tp1245
a((S'Follower'
p1246
S'tvtk_classes.follower'
p1247
tI-1
tp1248
asg15
g1246
sg16
(dp1249
g18
Nsg19
g42
sg21
I8
ssg19
g22
sg21
I181
sg23
g1247
sg18
(dp1250
g18
(dp1251
g593
(dp1252
g18
S'H4sIANj3H04C/2tgSs4rzS2o1EvOL0rVyy3NKclMLCpKrOSKL0pNzs8rLikqTS7hKmSEqOLKS4HI\nFjJ5M7SGMia1BxUya3gzejO3QhWklFQWpHIVsoQypVl4M3gzAhWwangzhzLa+Pn5ef0HAjDhzVCS\n1BkqwYADlCTpAQD67GqfmQAAAA==\n'
p1253
sg19
g102
sg21
I183
ssg136
(dp1254
g18
S'H4sIANj3H04C/2tgSs4rzS2o1EvOL0rVyy3NKclMLCpKrOSKL0pNzs8rLikqTS7hKmSEqOLKS4HI\nFjJ5M7SGMia1BxUya3gzejO3QhWklFQWpHIVsoQypVl4M3gzAhWwangzhzLa+Pn5ef0HAjDhzVCS\n1BkqwQAGH+zR6ZIkPQDfyO6fmQAAAA==\n'
p1255
sg19
g102
sg21
I185
ssg87
(dp1256
g18
S'H4sIANj3H04C/2tgSs4rzS2o1EvOL0rVyy3NKclMLCpKrOSKL0pNzs8rLikqTS7hKmSEqOLKS4HI\nFjJ5M7SGMia1BxUya3gzejO3QhWklFQWpHIVsoQypVl4M3gzAhWwangzhzLa+Pn5ef0HAjDhzVCS\n1BkqwcwAAnYOC6ZOr9KI83ZIyMpovb7Q8UBJkh4AejeobJkAAAA=\n'
p1257
sg19
g102
sg21
I184
ssg103
I0
sg209
I1
sg229
I1
sg210
I1
sg230
I1
sg108
I0
sg93
I0
sg213
I1
sg234
(dp1258
g18
S'H4sIANj3H04C/2tgSs4rzS2o1EvOL0rVyy3NKclMLCpKrOSKL0pNzs8rLikqTS7hKmSEqOLKS4HI\nFjJ5M7SGMia1BxUya3gzejO3QhWklFQWpHIVsoQypVl4M3gzAhWwangzhzLa+Pn5ef0HAjDhzVCS\n1BkqwYADlCTpAQD67GqfmQAAAA==\n'
p1259
sg19
g102
sg21
I186
ssg224
I1
ssg19
g110
sg21
I182
ssssg19
g110
sg21
I180
ssssg19
g110
sg21
I173
ssa(dp1260
g2
(lp1261
((g4
g5
tI-1
tp1262
a((g1182
g1169
tI0
tp1263
asg15
g1182
sg16
(dp1264
g18
Nsg19
g42
sg21
I1
ssg19
g22
sg21
I187
sg23
g1169
sg18
(dp1265
g18
(dp1266
g1187
I01
sg1188
F-30
sg95
(dp1267
g18
Nsg19
g42
sg21
I11
ssg1190
(dp1268
g2
(lp1269
((g4
g5
tI-1
tp1270
a((g7
g5
tI-1
tp1271
a((g67
g68
tI-1
tp1272
a((g70
g71
tI-1
tp1273
a((g73
g74
tI-1
tp1274
a((g1198
g1199
tI-1
tp1275
asg15
g1198
sg16
(dp1276
g18
Nsg19
g42
sg21
I8
ssg19
g22
sg21
I189
sg23
g1199
sg18
(dp1277
g18
(dp1278
g625
(dp1279
g18
Nsg19
g42
sg21
I11
ssg1205
(dp1280
g18
S'H4sIANj3H04C/2tgSs4rzS2o1EvOL0rVyy3NKclMLCpKrOSKL0pNzs8rLikqTS7hKmSEqOLKS4HI\nFjJ5M7SGMia1BxUya3gzejO3QhWklFQWpHIVsoQypVl4M3gzAhWwangzhzLa+Pn5ef0HAjDhzVCS\n1BkqwQAGH+wZ0EBJkh4Ak4CxA5kAAAA=\n'
p1281
sg19
g102
sg21
I193
ssg1208
I1
sg1209
F1
sg1210
I1
sg621
(dp1282
g18
Nsg19
g42
sg21
I11
ssg637
(dp1283
g18
Nsg19
g42
sg21
I69
ssg93
I0
sg1213
I2
sg1214
I0
sg108
I0
sg1215
F0.59999999999999998
sg1216
g1217
sg103
I0
sg234
(dp1284
g18
S'H4sIANj3H04C/2tgSs4rzS2o1EvOL0rVyy3NKclMLCpKrOSKL0pNzs8rLikqTS7hKmSEqOLKS4HI\nFjJ5M7SGMia1BxUya3gzejO3QhWklFQWpHIVsoQypVl4M3gzAhWwangzhzLa+Pn5ef0HAjDhzVCS\n1BkqwQAGL/b/AYn9v79/rU/Ei6ptt+1LkvQAaH/w3pkAAAA=\n'
p1285
sg19
g102
sg21
I191
ssg1220
I0
sg1221
F30
sg1084
(dp1286
g18
S'H4sIANj3H04C/2tgSs4rzS2o1EvOL0rVyy3NKclMLCpKrOSKL0pNzs8rLikqTS7hKmSEqOLKS4HI\nFjJ5M7SGMia1BxUya3gzejO3QhWklFQWpHIVsoQypVl4M3gzAhWwangzhzLa+Pn5ef0HAjDhzVCS\n1BkqwYADlCTpAQD67GqfmQAAAA==\n'
p1287
sg19
g102
sg21
I192
sssg19
g110
sg21
I190
sssg1215
F0.59999999999999998
sg1224
F-60
sg1225
(dp1288
g2
(lp1289
((g4
g5
tI-1
tp1290
a((g1229
g1169
tI0
tp1291
asg15
g1229
sg16
(dp1292
g18
Nsg19
g42
sg21
I1
ssg19
g22
sg21
I194
sg23
g1169
sg18
(dp1293
g18
(dp1294
g1234
F-30
sg1235
F-60
sg500
(dp1295
g2
(lp1296
((g4
g5
tI-1
tp1297
a((g7
g5
tI-1
tp1298
a((g67
g68
tI-1
tp1299
a((g70
g71
tI-1
tp1300
a((g73
g74
tI-1
tp1301
a((g193
g194
tI-1
tp1302
a((g585
g586
tI-1
tp1303
a((g511
g588
tI-1
tp1304
a((g1246
g1247
tI-1
tp1305
asg15
g1246
sg16
(dp1306
g18
Nsg19
g42
sg21
I8
ssg19
g22
sg21
I196
sg23
g1247
sg18
(dp1307
g18
(dp1308
g593
(dp1309
g18
S'H4sIANj3H04C/2tgSs4rzS2o1EvOL0rVyy3NKclMLCpKrOSKL0pNzs8rLikqTS7hKmSEqOLKS4HI\nFjJ5M7SGMia1BxUya3gzejO3QhWklFQWpHIVsoQypVl4M3gzAhWwangzhzLa+Pn5ef0HAjDhzVCS\n1BkqwYADlCTpAQD67GqfmQAAAA==\n'
p1310
sg19
g102
sg21
I198
ssg136
(dp1311
g18
S'H4sIANj3H04C/2tgSs4rzS2o1EvOL0rVyy3NKclMLCpKrOSKL0pNzs8rLikqTS7hKmSEqOLKS4HI\nFjJ5M7SGMia1BxUya3gzejO3QhWklFQWpHIVsoQypVl4M3gzAhWwangzhzLa+Pn5ef0HAjDhzVCS\n1BkqwQAGH+zR6ZIkPQDfyO6fmQAAAA==\n'
p1312
sg19
g102
sg21
I200
ssg87
(dp1313
g18
S'H4sIANj3H04C/2tgSs4rzS2o1EvOL0rVyy3NKclMLCpKrOSKL0pNzs8rLikqTS7hKmSEqOLKS4HI\nFjJ5M7SGMia1BxUya3gzejO3QhWklFQWpHIVsoQypVl4M3gzAhWwangzhzLa+Pn5ef0HAjDhzVCS\n1BkqEc+qU1XzReeA7Eed9DXb/Q8ckV1muHyC1YGSJD0A6DJGvZkAAAA=\n'
p1314
sg19
g102
sg21
I199
ssg103
I0
sg209
I1
sg229
I1
sg210
I1
sg230
I1
sg108
I0
sg93
I0
sg213
I1
sg234
(dp1315
g18
S'H4sIANj3H04C/2tgSs4rzS2o1EvOL0rVyy3NKclMLCpKrOSKL0pNzs8rLikqTS7hKmSEqOLKS4HI\nFjJ5M7SGMia1BxUya3gzejO3QhWklFQWpHIVsoQypVl4M3gzAhWwangzhzLa+Pn5ef0HAjDhzVCS\n1BkqwYADlCTpAQD67GqfmQAAAA==\n'
p1316
sg19
g102
sg21
I201
ssg224
I1
ssg19
g110
sg21
I197
ssssg19
g110
sg21
I195
ssssg19
g110
sg21
I188
ssa(dp1317
g2
(lp1318
((g4
g5
tI-1
tp1319
a((g1182
g1169
tI0
tp1320
asg15
g1182
sg16
(dp1321
g18
Nsg19
g42
sg21
I1
ssg19
g22
sg21
I202
sg23
g1169
sg18
(dp1322
g18
(dp1323
g1187
I01
sg1188
F-30
sg95
(dp1324
g18
Nsg19
g42
sg21
I11
ssg1190
(dp1325
g2
(lp1326
((g4
g5
tI-1
tp1327
a((g7
g5
tI-1
tp1328
a((g67
g68
tI-1
tp1329
a((g70
g71
tI-1
tp1330
a((g73
g74
tI-1
tp1331
a((g1198
g1199
tI-1
tp1332
asg15
g1198
sg16
(dp1333
g18
Nsg19
g42
sg21
I8
ssg19
g22
sg21
I204
sg23
g1199
sg18
(dp1334
g18
(dp1335
g625
(dp1336
g18
Nsg19
g42
sg21
I11
ssg1205
(dp1337
g18
S'H4sIANj3H04C/2tgSs4rzS2o1EvOL0rVyy3NKclMLCpKrOSKL0pNzs8rLikqTS7hKmSEqOLKS4HI\nFjJ5M7SGMia1BxUya3gzejO3QhWklFQWpHIVsoQypVl4M3gzAhWwangzhzLa+Pn5ef0HAjDhzVCS\n1BkqwQAGH+wZ0EBJkh4Ak4CxA5kAAAA=\n'
p1338
sg19
g102
sg21
I208
ssg1208
I1
sg1209
F1
sg1210
I1
sg621
(dp1339
g18
Nsg19
g42
sg21
I11
ssg637
(dp1340
g18
Nsg19
g42
sg21
I69
ssg93
I0
sg1213
I2
sg1214
I0
sg108
I0
sg1215
F0.5
sg1216
g1217
sg103
I0
sg234
(dp1341
g18
S'H4sIANj3H04C/2tgSs4rzS2o1EvOL0rVyy3NKclMLCpKrOSKL0pNzs8rLikqTS7hKmSEqOLKS4HI\nFjJ5M7SGMia1BxUya3gzejO3QhWklFQWpHIVsoQypVl4M3gzAhWwangzhzLa+Pn5ef0HAjDhzVCS\n1BkqwQAGL+z/gMT+39+/1ifiRdW22/YlSXoARD8BtZkAAAA=\n'
p1342
sg19
g102
sg21
I206
ssg1220
I0
sg1221
F30
sg1084
(dp1343
g18
S'H4sIANj3H04C/2tgSs4rzS2o1EvOL0rVyy3NKclMLCpKrOSKL0pNzs8rLikqTS7hKmSEqOLKS4HI\nFjJ5M7SGMia1BxUya3gzejO3QhWklFQWpHIVsoQypVl4M3gzAhWwangzhzLa+Pn5ef0HAjDhzVCS\n1BkqwYADlCTpAQD67GqfmQAAAA==\n'
p1344
sg19
g102
sg21
I207
sssg19
g110
sg21
I205
sssg1215
F0.5
sg1224
F60
sg1225
(dp1345
g2
(lp1346
((g4
g5
tI-1
tp1347
a((g1229
g1169
tI0
tp1348
asg15
g1229
sg16
(dp1349
g18
Nsg19
g42
sg21
I1
ssg19
g22
sg21
I209
sg23
g1169
sg18
(dp1350
g18
(dp1351
g1234
F-30
sg1235
F60
sg500
(dp1352
g2
(lp1353
((g4
g5
tI-1
tp1354
a((g7
g5
tI-1
tp1355
a((g67
g68
tI-1
tp1356
a((g70
g71
tI-1
tp1357
a((g73
g74
tI-1
tp1358
a((g193
g194
tI-1
tp1359
a((g585
g586
tI-1
tp1360
a((g511
g588
tI-1
tp1361
a((g1246
g1247
tI-1
tp1362
asg15
g1246
sg16
(dp1363
g18
Nsg19
g42
sg21
I8
ssg19
g22
sg21
I211
sg23
g1247
sg18
(dp1364
g18
(dp1365
g593
(dp1366
g18
S'H4sIANj3H04C/2tgSs4rzS2o1EvOL0rVyy3NKclMLCpKrOSKL0pNzs8rLikqTS7hKmSEqOLKS4HI\nFjJ5M7SGMia1BxUya3gzejO3QhWklFQWpHIVsoQypVl4M3gzAhWwangzhzLa+Pn5ef0HAjDhzVCS\n1BkqwYADlCTpAQD67GqfmQAAAA==\n'
p1367
sg19
g102
sg21
I213
ssg136
(dp1368
g18
S'H4sIANj3H04C/2tgSs4rzS2o1EvOL0rVyy3NKclMLCpKrOSKL0pNzs8rLikqTS7hKmSEqOLKS4HI\nFjJ5M7SGMia1BxUya3gzejO3QhWklFQWpHIVsoQypVl4M3gzAhWwangzhzLa+Pn5ef0HAjDhzVCS\n1BkqwQAGH+zR6ZIkPQDfyO6fmQAAAA==\n'
p1369
sg19
g102
sg21
I215
ssg87
(dp1370
g18
S'H4sIANj3H04C/2tgSs4rzS2o1EvOL0rVyy3NKclMLCpKrOSKL0pNzs8rLikqTS7hKmSEqOLKS4HI\nFjJ5M7SGMia1BxUya3gzejO3QhWklFQWpHIVsoQypVl4M3gzAhWwangzhzLa+Pn5ef0HAjDhzVCS\n1BkqEc+qU1XzReeA7Eed9DXb/R2OyC4zXD7ByqEkSQ8AM+vYMJkAAAA=\n'
p1371
sg19
g102
sg21
I214
ssg103
I0
sg209
I1
sg229
I1
sg210
I1
sg230
I1
sg108
I0
sg93
I0
sg213
I1
sg234
(dp1372
g18
S'H4sIANj3H04C/2tgSs4rzS2o1EvOL0rVyy3NKclMLCpKrOSKL0pNzs8rLikqTS7hKmSEqOLKS4HI\nFjJ5M7SGMia1BxUya3gzejO3QhWklFQWpHIVsoQypVl4M3gzAhWwangzhzLa+Pn5ef0HAjDhzVCS\n1BkqwYADlCTpAQD67GqfmQAAAA==\n'
p1373
sg19
g102
sg21
I216
ssg224
I1
ssg19
g110
sg21
I212
ssssg19
g110
sg21
I210
ssssg19
g110
sg21
I203
ssa(dp1374
g2
(lp1375
((g4
g5
tI-1
tp1376
a((g1182
g1169
tI0
tp1377
asg15
g1182
sg16
(dp1378
g18
Nsg19
g42
sg21
I1
ssg19
g22
sg21
I217
sg23
g1169
sg18
(dp1379
g18
(dp1380
g1187
I00
sg1188
F0
sg95
(dp1381
g18
Nsg19
g42
sg21
I11
ssg1190
(dp1382
g2
(lp1383
((g4
g5
tI-1
tp1384
a((g7
g5
tI-1
tp1385
a((g67
g68
tI-1
tp1386
a((g70
g71
tI-1
tp1387
a((g73
g74
tI-1
tp1388
a((g1198
g1199
tI-1
tp1389
asg15
g1198
sg16
(dp1390
g18
Nsg19
g42
sg21
I8
ssg19
g22
sg21
I219
sg23
g1199
sg18
(dp1391
g18
(dp1392
g625
(dp1393
g18
Nsg19
g42
sg21
I11
ssg1205
(dp1394
g18
S'H4sIANj3H04C/2tgSs4rzS2o1EvOL0rVyy3NKclMLCpKrOSKL0pNzs8rLikqTS7hKmSEqOLKS4HI\nFjJ5M7SGMia1BxUya3gzejO3QhWklFQWpHIVsoQypVl4M3gzAhWwangzhzLa+Pn5ef0HAjDhzVCS\n1BkqwQAGH+wZ0EBJkh4Ak4CxA5kAAAA=\n'
p1395
sg19
g102
sg21
I223
ssg1208
I0
sg1209
F1
sg1210
I0
sg621
(dp1396
g18
Nsg19
g42
sg21
I11
ssg637
(dp1397
g18
Nsg19
g42
sg21
I69
ssg93
I0
sg1213
I2
sg1214
I0
sg108
I0
sg1215
F1
sg1216
g1217
sg103
I0
sg234
(dp1398
g18
S'H4sIANj3H04C/2tgSs4rzS2o1EvOL0rVyy3NKclMLCpKrOSKL0pNzs8rLikqTS7hKmSEqOLKS4HI\nFjJ5M7SGMia1BxUya3gzejO3QhWklFQWpHIVsoQypVl4M3gzAhWwangzhzLa+Pn5ef0HAjDhzVCS\n1BkqwYAVfLAvSdIDAFBUFn+ZAAAA\n'
p1399
sg19
g102
sg21
I221
ssg1220
I0
sg1221
F30
sg1084
(dp1400
g18
S'H4sIANj3H04C/2tgSs4rzS2o1EvOL0rVyy3NKclMLCpKrOSKL0pNzs8rLikqTS7hKmSEqOLKS4HI\nFjJ5M7SGMia1BxUya3gzejO3QhWklFQWpHIVsoQypVl4M3gzAhWwangzhzLa+Pn5ef0HAjDhzVCS\n1BkqwYADlCTpAQD67GqfmQAAAA==\n'
p1401
sg19
g102
sg21
I222
sssg19
g110
sg21
I220
sssg1215
F1
sg1224
F0
sg1225
(dp1402
g2
(lp1403
((g4
g5
tI-1
tp1404
a((g1229
g1169
tI0
tp1405
asg15
g1229
sg16
(dp1406
g18
Nsg19
g42
sg21
I1
ssg19
g22
sg21
I224
sg23
g1169
sg18
(dp1407
g18
(dp1408
g1234
F0
sg1235
F0
sg500
(dp1409
g2
(lp1410
((g4
g5
tI-1
tp1411
a((g7
g5
tI-1
tp1412
a((g67
g68
tI-1
tp1413
a((g70
g71
tI-1
tp1414
a((g73
g74
tI-1
tp1415
a((g193
g194
tI-1
tp1416
a((g585
g586
tI-1
tp1417
a((g511
g588
tI-1
tp1418
a((g1246
g1247
tI-1
tp1419
asg15
g1246
sg16
(dp1420
g18
Nsg19
g42
sg21
I8
ssg19
g22
sg21
I226
sg23
g1247
sg18
(dp1421
g18
(dp1422
g593
(dp1423
g18
S'H4sIANj3H04C/2tgSs4rzS2o1EvOL0rVyy3NKclMLCpKrOSKL0pNzs8rLikqTS7hKmSEqOLKS4HI\nFjJ5M7SGMia1BxUya3gzejO3QhWklFQWpHIVsoQypVl4M3gzAhWwangzhzLa+Pn5ef0HAjDhzVCS\n1BkqwYADlCTpAQD67GqfmQAAAA==\n'
p1424
sg19
g102
sg21
I228
ssg136
(dp1425
g18
S'H4sIANj3H04C/2tgSs4rzS2o1EvOL0rVyy3NKclMLCpKrOSKL0pNzs8rLikqTS7hKmSEqOLKS4HI\nFjJ5M7SGMia1BxUya3gzejO3QhWklFQWpHIVsoQypVl4M3gzAhWwangzhzLa+Pn5ef0HAjDhzVCS\n1BkqwQAGH+zR6ZIkPQDfyO6fmQAAAA==\n'
p1426
sg19
g102
sg21
I230
ssg87
(dp1427
g18
S'H4sIANj3H04C/2tgSs4rzS2o1EvOL0rVyy3NKclMLCpKrOSKL0pNzs8rLikqTS7hKmSEqOLKS4HI\nFjJ5M7SGMia1BxUya3gzejO3QhWklFQWpHIVsoQypVl4M3gzAhWwangzhzLa+Pn5ef0HAjDhzVCS\n1BkqwYAKGmCMkiQ9ABqDrf+ZAAAA\n'
p1428
sg19
g102
sg21
I229
ssg103
I0
sg209
I1
sg229
I0
sg210
I1
sg230
I1
sg108
I0
sg93
I0
sg213
I0
sg234
(dp1429
g18
S'H4sIANj3H04C/2tgSs4rzS2o1EvOL0rVyy3NKclMLCpKrOSKL0pNzs8rLikqTS7hKmSEqOLKS4HI\nFjJ5M7SGMia1BxUya3gzejO3QhWklFQWpHIVsoQypVl4M3gzAhWwangzhzLa+Pn5ef0HAjDhzVCS\n1BkqwYADlCTpAQD67GqfmQAAAA==\n'
p1430
sg19
g102
sg21
I231
ssg224
I1
ssg19
g110
sg21
I227
ssssg19
g110
sg21
I225
ssssg19
g110
sg21
I218
ssasg19
g478
sg21
I171
ssS'number_of_lights'
p1431
I4
ssg19
g110
sg21
I170
sssS'_def_pos'
p1432
I1
ssg19
g110
sg21
I111
sssg287
S''
sg19
S' scene'
p1433
sg453
(dp1434
g18
(lp1435
sg19
g478
sg21
I232
ssg745
S'scene.ico'
p1436
ssg19
g110
sg21
I109
ssa(dp1437
g2
(lp1438
((g4
g5
tI-1
tp1439
a((g30
g5
tI-1
tp1440
a((g32
g33
tI-1
tp1441
a((g35
g36
tI0
tp1442
a((g766
g767
tI0
tp1443
asg15
g766
sg16
(dp1444
g18
Nsg19
g42
sg21
I1
ssg19
g22
sg21
I233
sg23
g767
sg18
(dp1445
g18
(dp1446
g45
VMayavi Scene 1
p1447
sg773
(dp1448
g2
(lp1449
((g4
g5
tI-1
tp1450
a((g777
g778
tI-1
tp1451
a((g780
g781
tI-1
tp1452
a((g30
g5
tI-1
tp1453
a((g784
g785
tI0
tp1454
a((g766
g787
tI0
tp1455
a((g789
g790
tI0
tp1456
asg15
g789
sg16
(dp1457
g18
Nsg19
g42
sg21
I1
ssg19
g22
sg21
I235
sg23
g790
sg18
(dp1458
g18
(dp1459
g795
(dp1460
g2
(lp1461
((g4
g5
tI-1
tp1462
a((g799
g800
tI0
tp1463
asg15
g799
sg16
(dp1464
g18
Nsg19
g42
sg21
I1
ssg19
g22
sg21
I237
sg23
g800
sg18
(dp1465
g18
(dp1466
g805
(dp1467
g2
(lp1468
((g4
g5
tI-1
tp1469
a((g7
g5
tI-1
tp1470
a((g67
g68
tI-1
tp1471
a((g70
g71
tI-1
tp1472
a((g73
g74
tI-1
tp1473
a((g525
g526
tI-1
tp1474
a((g528
g529
tI-1
tp1475
a((g531
g532
tI-1
tp1476
a((g534
g535
tI-1
tp1477
a((g817
g818
tI-1
tp1478
asg15
g817
sg16
(dp1479
g18
Nsg19
g42
sg21
I8
ssg19
g22
sg21
I239
sg23
g818
sg18
(dp1480
g18
(dp1481
g543
I0
sg544
I0
sg545
g546
sg547
I0
sg93
I0
sg549
F0.01
sg823
I0
sg550
g546
sg551
I0
sg103
I0
sg552
I0
sg553
I0
sg554
I0
sg555
I0
sg556
F0
sg557
(dp1482
g18
S'H4sIANj3H04C/2tgSs4rzS2o1EvOL0rVyy3NKclMLCpKrOSKL0pNzs8rLikqTS7hKmSEqOLKS4HI\nFjJ5M7SGMia1BxUya3gzejO1QhWklFQWpHIVsoQypVl4M3gzAhWwangzhzLa+Pn5ef0HAjDhzVCS\n1BkqwIACPtiXJOkBAIHIRA6RAAAA\n'
p1483
sg19
g102
sg21
I241
ssg560
Nsg561
I0
sg108
I0
sg563
I0
sg564
I1
sg565
I0
sg566
I1
sg548
I0
sg571
I0
sg567
I0
sg570
F0
sg826
I1
sg568
g546
sg569
I0
sg827
I0
sg828
I1
sg572
g573
sg574
I1
ssg19
g110
sg21
I240
sssg829
(dp1484
g2
(lp1485
((g4
g5
tI-1
tp1486
a((g7
g5
tI-1
tp1487
a((g67
g68
tI-1
tp1488
a((g70
g71
tI-1
tp1489
a((g73
g74
tI-1
tp1490
a((g837
g838
tI-1
tp1491
a((g840
g841
tI-1
tp1492
asg15
g840
sg16
(dp1493
g18
Nsg19
g42
sg21
I8
ssg19
g22
sg21
I242
sg23
g841
sg18
(dp1494
g18
(dp1495
g103
I0
sg108
I0
sg846
I0
sg93
I0
sg847
I0
ssg19
g110
sg21
I243
sssg848
(dp1496
g2
(lp1497
((g4
g5
tI-1
tp1498
a((g7
g5
tI-1
tp1499
a((g67
g68
tI-1
tp1500
a((g70
g71
tI-1
tp1501
a((g73
g74
tI-1
tp1502
a((g856
g857
tI-1
tp1503
a((g859
g860
tI-1
tp1504
a((g862
g863
tI-1
tp1505
a((g865
g866
tI-1
tp1506
asg15
g865
sg16
(dp1507
g18
Nsg19
g42
sg21
I8
ssg19
g22
sg21
I244
sg23
g866
sg18
(dp1508
g18
(dp1509
g871
I0
sg872
(dp1510
g18
S'H4sIANj3H04C/2tgSs4rzS2o1EvOL0rVyy3NKclMLCpKrOSKL0pNzs8rLikqTS7hKmSEqOLKS4HI\nFjJ5M7SGMia1BxUya3gzerO1QhWklFQWpHIVsoQyZZp4M3gzAhWwangzhzLa+Pn5ef0HAjDhzVCS\n1BkqwQAEIC46XZKkBwA5VpuHmQAAAA==\n'
p1511
sg19
g102
sg21
I246
ssg875
I1
sg103
I0
sg876
I0
sg877
I0
sg93
I0
sg878
(dp1512
g18
S'H4sIANj3H04C/2tgSs4rzS2o1EvOL0rVyy3NKclMLCpKrOSKL0pNzs8rLikqTS7hKmSEqOLKS4HI\nFjJ5M7SGMia1BxUya3gzerO1QhWklFQWpHIVsoQyZZp4M3gzAhWwangzhzLa+Pn5ef0HAjDhzVCS\n1BkqwQAEIC46XZKkBwA5VpuHmQAAAA==\n'
p1513
sg19
g102
sg21
I248
ssg881
I0
sg108
I0
sg555
I0
sg882
I0
sg569
I0
sg883
I-1
sg884
I0
sg885
(dp1514
g18
S'H4sIANj3H04C/2tgSs4rzS2o1EvOL0rVyy3NKclMLCpKrOSKL0pNzs8rLikqTS7hKmSEqOLKS4HI\nFjJ5M7SGMia1BxUya3gzerO1QhWklFQWpHIVsoQypVl4M3gzAhWwangzhzLa+Pn5ef0HAjDhzVCS\n1BlqwIACPuwnxC9J0gMAMIASILEAAAA=\n'
p1515
sg19
g102
sg21
I247
sssg19
g110
sg21
I245
sssg888
(dp1516
g2
(lp1517
((g4
g5
tI-1
tp1518
a((g7
g5
tI-1
tp1519
a((g67
g68
tI-1
tp1520
a((g70
g71
tI-1
tp1521
a((g73
g74
tI-1
tp1522
a((g837
g838
tI-1
tp1523
a((g897
g898
tI-1
tp1524
a((g799
g900
tI-1
tp1525
a((g902
g903
tI-1
tp1526
asg15
g902
sg16
(dp1527
g18
Nsg19
g42
sg21
I8
ssg19
g22
sg21
I249
sg23
g903
sg18
(dp1528
g18
(dp1529
g93
I0
sg847
I0
sg108
I0
sg846
I0
sg103
I0
sg225
F0.025000000000000001
ssg19
g110
sg21
I250
sssg908
(dp1530
g2
(lp1531
((g4
g5
tI-1
tp1532
a((g7
g5
tI-1
tp1533
a((g67
g68
tI-1
tp1534
a((g70
g71
tI-1
tp1535
a((g73
g74
tI-1
tp1536
a((g193
g194
tI-1
tp1537
a((g585
g586
tI-1
tp1538
a((g511
g588
tI-1
tp1539
asg15
g511
sg16
(dp1540
g18
Nsg19
g42
sg21
I8
ssg19
g22
sg21
I251
sg23
g588
sg18
(dp1541
g18
(dp1542
g593
(dp1543
g18
S'H4sIANj3H04C/2tgSs4rzS2o1EvOL0rVyy3NKclMLCpKrOSKL0pNzs8rLikqTS7hKmSEqOLKS4HI\nFjJ5M7SGMia1BxUya3gzejO3QhWklFQWpHIVsoQypVl4M3gzAhWwangzhzLa+Pn5ef0HAjDhzVCS\n1BkqwYADlCTpAQD67GqfmQAAAA==\n'
p1544
sg19
g102
sg21
I253
ssg136
(dp1545
g18
S'H4sIANj3H04C/2tgSs4rzS2o1EvOL0rVyy3NKclMLCpKrOSKL0pNzs8rLikqTS7hKmSEqOLKS4HI\nFjJ5M7SGMia1BxUya3gzejO3QhWklFQWpHIVsoQypVl4M3gzAhWwangzhzLa+Pn5ef0HAjDhzVCS\n1BkqwQAGH+zR6ZIkPQDfyO6fmQAAAA==\n'
p1546
sg19
g102
sg21
I255
ssg87
(dp1547
g18
S'H4sIANj3H04C/2tgSs4rzS2o1EvOL0rVyy3NKclMLCpKrOSKL0pNzs8rLikqTS7hKmSEqOLKS4HI\nFjJ5M7SGMia1BxUya3gzejO3QhWklFQWpHIVsoQypVl4M3gzAhWwangzhzLa+Pn5ef0HAjDhzVCS\n1BkqwYAKGmCMkiQ9ABqDrf+ZAAAA\n'
p1548
sg19
g102
sg21
I254
ssg103
I0
sg209
I1
sg229
I0
sg210
I0
sg230
I1
sg108
I0
sg93
I0
sg213
I0
sg234
(dp1549
g18
S'H4sIANj3H04C/2tgSs4rzS2o1EvOL0rVyy3NKclMLCpKrOSKL0pNzs8rLikqTS7hKmSEqOLKS4HI\nFjJ5M7SGMia1BxUya3gzejO3QhWklFQWpHIVsoQypVl4M3gzAhWwangzhzLa+Pn5ef0HAjDhzVCS\n1BkqwYADlCTpAQD67GqfmQAAAA==\n'
p1550
sg19
g102
sg21
I256
ssg224
I0
ssg19
g110
sg21
I252
sssg930
(dp1551
g2
(lp1552
((g4
g5
tI-1
tp1553
a((g7
g5
tI-1
tp1554
a((g67
g68
tI-1
tp1555
a((g70
g71
tI-1
tp1556
a((g73
g74
tI-1
tp1557
a((g525
g526
tI-1
tp1558
a((g698
g699
tI-1
tp1559
a((g940
g941
tI-1
tp1560
asg15
g940
sg16
(dp1561
g18
Nsg19
g42
sg21
I8
ssg19
g22
sg21
I257
sg23
g941
sg18
(dp1562
g18
(dp1563
g593
(dp1564
g18
S'H4sIANj3H04C/2tgSs4rzS2o1EvOL0rVyy3NKclMLCpKrOSKL0pNzs8rLikqTS7hKmSEqOLKS4HI\nFjJ5M7SGMia1BxUya3gzejO3QhWklFQWpHIVsoQypVl4M3gzAhWwangzhzLa+Pn5ef0HAjDhzVCS\n1BkqwYADlCTpAQD67GqfmQAAAA==\n'
p1565
sg19
g102
sg21
I259
ssg948
F1
sg715
I1
sg565
I0
sg560
Nsg711
I1
sg103
I0
sg949
I1
sg108
I0
sg554
I0
sg93
I0
sg555
I0
sg569
I0
sg556
F0
sg950
I1
ssg19
g110
sg21
I258
sssg225
F0.025000000000000001
sg951
(dp1566
g2
(lp1567
((g4
g5
tI-1
tp1568
a((g7
g5
tI-1
tp1569
a((g67
g68
tI-1
tp1570
a((g70
g71
tI-1
tp1571
a((g73
g74
tI-1
tp1572
a((g837
g838
tI-1
tp1573
a((g897
g898
tI-1
tp1574
a((g799
g900
tI-1
tp1575
a((g962
g963
tI-1
tp1576
asg15
g962
sg16
(dp1577
g18
Nsg19
g42
sg21
I8
ssg19
g22
sg21
I260
sg23
g963
sg18
(dp1578
g18
(dp1579
g93
I0
sg847
I0
sg108
I0
sg846
I0
sg103
I0
sg225
F0.025000000000000001
ssg19
g110
sg21
I261
ssssg19
g110
sg21
I238
sssS'anti_aliasing_frames'
p1580
I8
sg969
(dp1581
g2
(lp1582
((g4
g5
tI-1
tp1583
a((g7
g5
tI-1
tp1584
a((g67
g68
tI-1
tp1585
a((g70
g71
tI-1
tp1586
a((g73
g74
tI-1
tp1587
a((g246
g247
tI-1
tp1588
a((g978
g979
tI-1
tp1589
asg15
g978
sg16
(dp1590
g18
Nsg19
g42
sg21
I8
ssg19
g22
sg21
I262
sg23
g979
sg18
(dp1591
g18
(dp1592
g262
S'i'
sg264
I0
sg93
I0
sg984
I1
sg267
F0.55000001192092896
sg108
I0
sg265
I0
sg271
I0
sg103
I0
sg275
I0
sg985
I1
ssg19
g110
sg21
I263
sssS'jpeg_progressive'
p1593
I01
sg987
(dp1594
g2
(lp1595
((g4
g5
tI-1
tp1596
a((g7
g5
tI-1
tp1597
a((g67
g68
tI-1
tp1598
a((g70
g71
tI-1
tp1599
a((g73
g74
tI-1
tp1600
a((g193
g194
tI-1
tp1601
a((g585
g586
tI-1
tp1602
a((g997
g998
tI-1
tp1603
asg15
g997
sg16
(dp1604
g18
Nsg19
g42
sg21
I8
ssg19
g22
sg21
I264
sg23
g998
sg18
(dp1605
g18
(dp1606
g593
(dp1607
g18
S'H4sIANj3H04C/2tgSs4rzS2o1EvOL0rVyy3NKclMLCpKrOSKL0pNzs8rLikqTS7hKmSEqOLKS4HI\nFjJ5M7SGMia1BxUya3gzejO3QhWklFQWpHIVsoQypVl4M3gzAhWwangzhzLa+Pn5ef0HAjDhzVCS\n1BkqwYADlCTpAQD67GqfmQAAAA==\n'
p1608
sg19
g102
sg21
I266
ssg87
(dp1609
g18
S'H4sIANj3H04C/2tgSs4rzS2o1EvOL0rVyy3NKclMLCpKrOSKL0pNzs8rLikqTS7hKmSEqOLKS4HI\nFjJ5M7SGMia1BxUya3gzejO3QhWklFQWpHIVsoQypVl4M3gzAhWwangzhzLa+Pn5ef0HAjDhzVCS\n1BkqwYAKGmCMkiQ9ABqDrf+ZAAAA\n'
p1610
sg19
g102
sg21
I267
ssg1007
(dp1611
g18
S'H4sIANj3H04C/2tgSs4rzS2o1EvOL0rVyy3NKclMLCpKrOSKL0pNzs8rLikqTS7hKmSEqOLKS4HI\nFjJ5M7SGMia1BxUya3gzejO3QhWklFQWpHIVsoQypVl4M3gzAhWwangzhzLa+Pn5ef0HAjDhzVCS\n1BkqMWsmCNy0R6dLkvQABNrUG5kAAAA=\n'
p1612
sg19
g102
sg21
I268
ssg209
I1
sg210
I1
sg1010
I16
sg213
I0
sg93
I0
sg136
(dp1613
g18
S'H4sIANj3H04C/2tgSs4rzS2o1EvOL0rVyy3NKclMLCpKrOSKL0pNzs8rLikqTS7hKmSEqOLKS4HI\nFjJ5M7SGMia1BxUya3gzejO3QhWklFQWpHIVsoQypVl4M3gzAhWwangzhzLa+Pn5ef0HAjDhzVCS\n1BkqwQAGH+zR6ZIkPQDfyO6fmQAAAA==\n'
p1614
sg19
g102
sg21
I269
ssg1013
F0.050000000000000003
sg1014
I16
sg1015
I16
sg1016
I1
sg1017
(dp1615
g18
S'H4sIANj3H04C/2tgSs4rzS2o1EvOL0rVyy3NKclMLCpKrOSKL0pNzs8rLikqTS7hKmSEqOLKS4HI\nFjJ5M7SGMia1BxUya3gzejO3QhWklFQWpHIVsoQypVl4M3gzAhWwangzhzLa+Pn5ef0HAjDhzVCS\n1BkqwQAGH+zR6ZIkPQDfyO6fmQAAAA==\n'
p1616
sg19
g102
sg21
I270
ssg224
I1
sg1020
g1021
sg1022
S'X'
sg1023
F0.40000000000000002
sg1024
S'Z'
sg229
I0
sg230
I1
sg108
I0
sg1025
I1
sg1026
S'Y'
sg1027
I0
sg1028
F0.5
sg1029
(dp1617
g18
S'H4sIANj3H04C/2tgSs4rzS2o1EvOL0rVyy3NKclMLCpKrOSKL0pNzs8rLikqTS7hKmSEqOLKS4HI\nFjJ5M7SGMia1BxUya3gzejO3QhWklFQWpHIVsoQypVl4M3gzAhWwangzhzLa+Pn5ef0HAjDhzVCS\n1BkqYQwGj+3R6ZIkPQB1t6TsmQAAAA==\n'
p1618
sg19
g102
sg21
I271
ssg1032
g1033
sg1034
(dp1619
g18
S'H4sIANj3H04C/2tgSs4rzS2o1EvOL0rVyy3NKclMLCpKrOSKL0pNzs8rLikqTS7hKmSEqOLKS4HI\nFjJ5M7SGMia1BxUya3gzejO3QhWklFQWpHIVsoQypVl4M3gzAhWwangzhzLa+Pn5ef0HAjDhzVCS\n1BkqwQAGH+zR6ZIkPQDfyO6fmQAAAA==\n'
p1620
sg19
g102
sg21
I272
ssg103
I0
sg234
(dp1621
g18
S'H4sIANj3H04C/2tgSs4rzS2o1EvOL0rVyy3NKclMLCpKrOSKL0pNzs8rLikqTS7hKmSEqOLKS4HI\nFjJ5M7SGMia1BxUya3gzejO3QhWklFQWpHIVsoQypVl4M3gzAhWwangzhzLa+Pn5ef0HAjDhzVCS\n1BkqwYADlCTpAQD67GqfmQAAAA==\n'
p1622
sg19
g102
sg21
I273
sssg19
g110
sg21
I265
sssg1039
I1
sg1040
(dp1623
g2
(lp1624
((g4
g5
tI-1
tp1625
a((g7
g5
tI-1
tp1626
a((g67
g68
tI-1
tp1627
a((g70
g71
tI-1
tp1628
a((g73
g74
tI-1
tp1629
a((g1048
g1049
tI-1
tp1630
a((g1051
g1052
tI-1
tp1631
asg15
g1051
sg16
(dp1632
g18
Nsg19
g42
sg21
I8
ssg19
g22
sg21
I274
sg23
g1052
sg18
(dp1633
g18
(dp1634
g1057
F35.944894590862496
sg1058
(dp1635
g18
S'H4sIANj3H04C/2tgSs4rzS2o1EvOL0rVyy3NKclMLCpKrOSKL0pNzs8rLikqTS7hKmSEqOLKS4HI\nFjJ5M7SGMia1BxUya3gzejO3QhWklFQWpHIVsoQypVl4M3gzAhWwangzhzLa+Pn5ef0HAjDhzVCS\n1BkqofUr7d5awYf7O8P5jJkEX++f/2frwliOOvuSJD0AIk3vBpkAAAA=\n'
p1636
sg19
g102
sg21
I276
ssg1061
(dp1637
g18
S'H4sIANj3H04C/2tgSs4rzS2o1EvOL0rVyy3NKclMLCpKrOSKL0pNzs8rLikqTS7hKmSEqOLKS4HI\nFjJ5M7SGMia1BxUya3gzejO1QhWklFQWpHIVsoQypVl4M3gzAhWwangzhzLa+Pn5ef0HAjDhzVCS\n1BkqwIAGSpL0ACtwOO6RAAAA\n'
p1638
sg19
g102
sg21
I277
ssg1064
I0
sg1065
I1
sg1066
F10.122354102381433
sg1067
I0
sg1068
(dp1639
g18
S'H4sIANj3H04C/2tgSs4rzS2o1EvOL0rVyy3NKclMLCpKrOSKL0pNzs8rLikqTS7hKmSEqOLKS4HI\nFjJ5M7SGMia1BxUya3gzejO3QhWklFQWpHIVsoQypVl4M3gzAhWwangzhzLa+Pn5ef0HAjDhzVCS\n1Bkq8fth9/EbhTP3mzPFR757NcP+rWWDF/fv9/YlSXoAje1o05kAAAA=\n'
p1640
sg19
g102
sg21
I278
ssg1071
I0
sg93
I0
sg1072
F1
sg108
I0
sg234
(dp1641
g18
S'H4sIANj3H04C/2tgSs4rzS2o1EvOL0rVyy3NKclMLCpKrOSKL0pNzs8rLikqTS7hKmSEqOLKS4HI\nFjJ5M7SGMia1BxUya3gzejO3QhWklFQWpHIVsoQypVl4M3gzAhWwangzhzLa+Pn5ef0HAjDhzVCS\n1Bkqob5e1Xf3KaMDXyLPWe9dYnLgRrSEyrfJAg4lSXoA6qLqdJkAAAA=\n'
p1642
sg19
g102
sg21
I282
ssg1075
(dp1643
g18
S'H4sIANj3H04C/2tgSs4rzS2o1EvOL0rVyy3NKclMLCpKrOSKL0pNzs8rLikqTS7hKmSEqOLKS4HI\nFjJ5M7SGMia1BxUya3gzejO1QhWklFQWpHIVsoQypVl4M3gzAhWwangzhzLa+Pn5ef0HAjDhzVCS\n1Bkq0PxJKmVDC4tDQOu9RebNwQ4lSXoA/in4yJEAAAA=\n'
p1644
sg19
g102
sg21
I280
ssg1078
F2
sg1079
(dp1645
g18
S'H4sIANj3H04C/2tgSs4rzS2o1EvOL0rVyy3NKclMLCpKrOSKL0pNzs8rLikqTS7hKmSEqOLKS4HI\nFjJ5M7SGMia1BxUya3gzejO3QhWklFQWpHIVsoQypVl4M3gzAhWwangzhzLa+Pn5ef0HAjDhzVCS\n1BkqwYAVfLAvSdIDAFBUFn+ZAAAA\n'
p1646
sg19
g102
sg21
I279
ssg103
I0
sg1082
F30
sg1083
F75.485481200440461
sg1084
(dp1647
g18
S'H4sIANj3H04C/2tgSs4rzS2o1EvOL0rVyy3NKclMLCpKrOSKL0pNzs8rLikqTS7hKmSEqOLKS4HI\nFjJ5M7SGMia1BxUya3gzejO3QhWklFQWpHIVsoQypVl4M3gzAhWwangzhzLa+Pn5ef0HAjDhzVCS\n1BkqkXjhlkttxg179f6JLm9blB3W6S3r0OThdyhJ0gMAvfGHR5kAAAA=\n'
p1648
sg19
g102
sg21
I281
ssg1087
I0
ssg19
g110
sg21
I275
sssg1088
(dp1649
g2
(lp1650
((g4
g5
tI-1
tp1651
a((g7
g5
tI-1
tp1652
a((g67
g68
tI-1
tp1653
a((g70
g71
tI-1
tp1654
a((g73
g74
tI-1
tp1655
a((g1096
g1097
tI-1
tp1656
a((g1099
g1100
tI-1
tp1657
asg15
g1099
sg16
(dp1658
g18
Nsg19
g42
sg21
I8
ssg19
g22
sg21
I283
sg23
g1100
sg18
(dp1659
g18
(dp1660
g1105
I0
sg1106
I1
sg627
(dp1661
g18
S'H4sIANj3H04C/2tgSs4rzS2o1EvOL0rVyy3NKclMLCpKrOSKL0pNzs8rLikqTS7hKmSEqOLKS4HI\nFjJ5M7SGMia1BxUya3gzejO3QhWklFQWpHIVsoQypVl4M3gzAhWwangzhzLa+Pn5ef0HAjDhzVCS\n1BkqwQAGH+zR6ZIkPQDfyO6fmQAAAA==\n'
p1662
sg19
g102
sg21
I285
ssg1109
I1
sg1110
(dp1663
g18
S'H4sIANj3H04C/2tgSs4rzS2o1EvOL0rVyy3NKclMLCpKrOSKL0pNzs8rLikqTS7hKmSEqOLKS4HI\nFjJ5M7SGMia1BxUya3gzejO3QhWklFQWpHIVsoQypVl4M3gzAhWwangzhzLa+Pn5ef0HAjDhzVCS\n1Bkq4WhqpLrKx2F/iMwX2zkVuvYHlqa4f9n5zr4kSQ8Ax3sijZkAAAA=\n'
p1664
sg19
g102
sg21
I286
ssg1113
F0.001
sg1114
I1
sg1115
(dp1665
g18
S'H4sIANj3H04C/2tgSs4rzS2o1EvOL0rVyy3NKclMLCpKrOSKL0pNzs8rLikqTS7hKmSEqOLKS4HI\nFjJ5M7SGMia1BxUya3gzejO1QhWklFQWpHIVsoQypVl4M3gzAhWwangzhzLa+Pn5ef0HAjDhzVCS\n1BkqkHf+vf9Rx+/2DGDwwb4kSQ8AJZ1O1pEAAAA=\n'
p1666
sg19
g102
sg21
I287
ssg1118
(dp1667
g18
S'H4sIANj3H04C/2tgSs4rzS2o1EvOL0rVyy3NKclMLCpKrOSKL0pNzs8rLikqTS7hKmSEqOLKS4HI\nFjJ5M7SGMia1BxUya3gzejO1QhWklFQWpHIVsoQypVl4M3gzAhWwangzhzLa+Pn5ef0HAjDhzVCS\n1BkqwAAGH+xhdEmSHgBnOGdykQAAAA==\n'
p1668
sg19
g102
sg21
I288
ssg1121
I1
sg1122
I0
sg1123
I0
sg1124
I00
sg1125
(dp1669
g18
S'H4sIANj3H04C/2tgSs4rzS2o1EvOL0rVyy3NKclMLCpKrOSKL0pNzs8rLikqTS7hKmSEqOLKS4HI\nFjJ5M7SGMia1BxUya3gzerO0QhWklFQWpHIVsoQypVl4M3gzAhWwangzhzLa+Pn5ef0HAjDhzVCS\n1BmqsPfayxemJ40OuGzuf7J5qcmBeXcm3fwzUcCBAQw+2Jck6QEAoj+yIaEAAAA=\n'
p1670
sg19
g102
sg21
I289
ssg1128
I1
sg1129
F10000
sg1130
I4
sg108
I0
sg1131
F0
sg1132
(dp1671
g18
Nsg19
g42
sg21
I165
ssg1135
I1
sg984
I1
sg1136
(dp1672
g18
Nsg19
g42
sg21
I167
ssg1139
(dp1673
g18
S'H4sIANj3H04C/2tgSs4rzS2o1EvOL0rVyy3NKclMLCpKrOSKL0pNzs8rLikqTS7hKmSEqOLKS4HI\nFjJ5M7SGMia1BxUya3gzerO0QhWklFQWpHIVsoQypVl4M3gzAhWwangzhzLa+Pn5ef0HAjDhzVCS\n1BmqwIAVfLCH0SVJegBnOETsoQAAAA==\n'
p1674
sg19
g102
sg21
I291
ssg1142
(dp1675
g18
S'H4sIANj3H04C/2tgSs4rzS2o1EvOL0rVyy3NKclMLCpKrOSKL0pNzs8rLikqTS7hKmSEqOLKS4HI\nFjJ5M7SGMia1BxUya3gzejO3QhWklFQWpHIVsoQypVl4M3gzAhWwangzhzLa+Pn5ef0HAjDhzVCS\n1BkqobLo0m6hn20OSyarMV9aWO9wYGmK+5ed7+xLkvQAXT4X0pkAAAA=\n'
p1676
sg19
g102
sg21
I290
ssg1145
I0
sg1146
I1
sg1147
I1
sg93
I0
sg1148
I0
sg1149
I1
sg103
I0
sg1150
I1
sg1151
I0
sg985
I1
ssg19
g110
sg21
I284
sssg1152
I00
sg1153
(dp1677
g18
Nsg19
g42
sg21
I11
ssS'parent'
p1678
Nsg1156
I00
sg1132
(dp1679
g18
Nsg19
g42
sg21
I165
ssg1158
I00
sg1159
I00
sg1160
I00
sg1161
I00
sS'jpeg_quality'
p1680
I95
sg1163
I00
sg1067
I00
sg1164
(dp1681
g2
(lp1682
((g4
g5
tI-1
tp1683
a((g1168
g1169
tI0
tp1684
asg15
g1168
sg16
(dp1685
g18
Nsg19
g42
sg21
I1
ssg19
g22
sg21
I292
sg23
g1169
sg18
(dp1686
g18
(dp1687
g1174
S'vtk'
p1688
sg1176
(dp1689
g18
(lp1690
(dp1691
g2
(lp1692
((g4
g5
tI-1
tp1693
a((g1182
g1169
tI0
tp1694
asg15
g1182
sg16
(dp1695
g18
Nsg19
g42
sg21
I1
ssg19
g22
sg21
I295
sg23
g1169
sg18
(dp1696
g18
(dp1697
g1187
I01
sg1188
F0
sg95
(dp1698
g18
Nsg19
g42
sg21
I11
ssg1190
(dp1699
g2
(lp1700
((g4
g5
tI-1
tp1701
a((g7
g5
tI-1
tp1702
a((g67
g68
tI-1
tp1703
a((g70
g71
tI-1
tp1704
a((g73
g74
tI-1
tp1705
a((g1198
g1199
tI-1
tp1706
asg15
g1198
sg16
(dp1707
g18
Nsg19
g42
sg21
I8
ssg19
g22
sg21
I297
sg23
g1199
sg18
(dp1708
g18
(dp1709
g625
(dp1710
g18
Nsg19
g42
sg21
I11
ssg1205
(dp1711
g18
S'H4sIANj3H04C/2tgSs4rzS2o1EvOL0rVyy3NKclMLCpKrOSKL0pNzs8rLikqTS7hKmSEqOLKS4HI\nFjJ5M7SGMia1BxUya3gzejO3QhWklFQWpHIVsoQypVl4M3gzAhWwangzhzLa+Pn5ef0HAjDhzVCS\n1BkqwQAGH+wZ0EBJkh4Ak4CxA5kAAAA=\n'
p1712
sg19
g102
sg21
I301
ssg1208
I1
sg1209
F1
sg1210
I1
sg621
(dp1713
g18
Nsg19
g42
sg21
I11
ssg637
(dp1714
g18
Nsg19
g42
sg21
I69
ssg93
I0
sg1213
I2
sg1214
I0
sg108
I0
sg1215
F1
sg1216
g1217
sg103
I0
sg234
(dp1715
g18
S'H4sIANj3H04C/2tgSs4rzS2o1EvOL0rVyy3NKclMLCpKrOSKL0pNzs8rLikqTS7hKmSEqOLKS4HI\nFjJ5M7SGMia1BxUya3gzejO3QhWklFQWpHIVsoQypVl4M3gzAhWwangzhzLa+Pn5ef0HAjDhzVCS\n1BkqwYAMlk20gTA+2Jck6QEAEakbEZkAAAA=\n'
p1716
sg19
g102
sg21
I299
ssg1220
I0
sg1221
F30
sg1084
(dp1717
g18
S'H4sIANj3H04C/2tgSs4rzS2o1EvOL0rVyy3NKclMLCpKrOSKL0pNzs8rLikqTS7hKmSEqOLKS4HI\nFjJ5M7SGMia1BxUya3gzejO3QhWklFQWpHIVsoQypVl4M3gzAhWwangzhzLa+Pn5ef0HAjDhzVCS\n1BkqwYADlCTpAQD67GqfmQAAAA==\n'
p1718
sg19
g102
sg21
I300
sssg19
g110
sg21
I298
sssg1215
F1
sg1224
F0
sg1225
(dp1719
g2
(lp1720
((g4
g5
tI-1
tp1721
a((g1229
g1169
tI0
tp1722
asg15
g1229
sg16
(dp1723
g18
Nsg19
g42
sg21
I1
ssg19
g22
sg21
I302
sg23
g1169
sg18
(dp1724
g18
(dp1725
g1234
F0
sg1235
F0
sg500
(dp1726
g2
(lp1727
((g4
g5
tI-1
tp1728
a((g7
g5
tI-1
tp1729
a((g67
g68
tI-1
tp1730
a((g70
g71
tI-1
tp1731
a((g73
g74
tI-1
tp1732
a((g193
g194
tI-1
tp1733
a((g585
g586
tI-1
tp1734
a((g511
g588
tI-1
tp1735
a((g1246
g1247
tI-1
tp1736
asg15
g1246
sg16
(dp1737
g18
Nsg19
g42
sg21
I8
ssg19
g22
sg21
I304
sg23
g1247
sg18
(dp1738
g18
(dp1739
g593
(dp1740
g18
S'H4sIANj3H04C/2tgSs4rzS2o1EvOL0rVyy3NKclMLCpKrOSKL0pNzs8rLikqTS7hKmSEqOLKS4HI\nFjJ5M7SGMia1BxUya3gzejO3QhWklFQWpHIVsoQypVl4M3gzAhWwangzhzLa+Pn5ef0HAjDhzVCS\n1BkqwYADlCTpAQD67GqfmQAAAA==\n'
p1741
sg19
g102
sg21
I306
ssg136
(dp1742
g18
S'H4sIANj3H04C/2tgSs4rzS2o1EvOL0rVyy3NKclMLCpKrOSKL0pNzs8rLikqTS7hKmSEqOLKS4HI\nFjJ5M7SGMia1BxUya3gzejO3QhWklFQWpHIVsoQypVl4M3gzAhWwangzhzLa+Pn5ef0HAjDhzVCS\n1BkqwQAGH+zR6ZIkPQDfyO6fmQAAAA==\n'
p1743
sg19
g102
sg21
I308
ssg87
(dp1744
g18
S'H4sIANj3H04C/2tgSs4rzS2o1EvOL0rVyy3NKclMLCpKrOSKL0pNzs8rLikqTS7hKmSEqOLKS4HI\nFjJ5M7SGMia1BxUya3gzejO3QhWklFQWpHIVsoQypVl4M3gzAhWwangzhzLa+Pn5ef0HAjDhzVCS\n1BkqsXDOLdeoncdttnHePFi31NgSyt9TkqQHAJCW9u+ZAAAA\n'
p1745
sg19
g102
sg21
I307
ssg103
I0
sg209
I1
sg229
I1
sg210
I1
sg230
I1
sg108
I0
sg93
I0
sg213
I1
sg234
(dp1746
g18
S'H4sIANj3H04C/2tgSs4rzS2o1EvOL0rVyy3NKclMLCpKrOSKL0pNzs8rLikqTS7hKmSEqOLKS4HI\nFjJ5M7SGMia1BxUya3gzejO3QhWklFQWpHIVsoQypVl4M3gzAhWwangzhzLa+Pn5ef0HAjDhzVCS\n1BkqwYADlCTpAQD67GqfmQAAAA==\n'
p1747
sg19
g102
sg21
I309
ssg224
I1
ssg19
g110
sg21
I305
ssssg19
g110
sg21
I303
ssssg19
g110
sg21
I296
ssa(dp1748
g2
(lp1749
((g4
g5
tI-1
tp1750
a((g1182
g1169
tI0
tp1751
asg15
g1182
sg16
(dp1752
g18
Nsg19
g42
sg21
I1
ssg19
g22
sg21
I310
sg23
g1169
sg18
(dp1753
g18
(dp1754
g1187
I00
sg1188
F0
sg95
(dp1755
g18
Nsg19
g42
sg21
I11
ssg1190
(dp1756
g2
(lp1757
((g4
g5
tI-1
tp1758
a((g7
g5
tI-1
tp1759
a((g67
g68
tI-1
tp1760
a((g70
g71
tI-1
tp1761
a((g73
g74
tI-1
tp1762
a((g1198
g1199
tI-1
tp1763
asg15
g1198
sg16
(dp1764
g18
Nsg19
g42
sg21
I8
ssg19
g22
sg21
I312
sg23
g1199
sg18
(dp1765
g18
(dp1766
g625
(dp1767
g18
Nsg19
g42
sg21
I11
ssg1205
(dp1768
g18
S'H4sIANj3H04C/2tgSs4rzS2o1EvOL0rVyy3NKclMLCpKrOSKL0pNzs8rLikqTS7hKmSEqOLKS4HI\nFjJ5M7SGMia1BxUya3gzejO3QhWklFQWpHIVsoQypVl4M3gzAhWwangzhzLa+Pn5ef0HAjDhzVCS\n1BkqwQAGH+wZ0EBJkh4Ak4CxA5kAAAA=\n'
p1769
sg19
g102
sg21
I316
ssg1208
I0
sg1209
F1
sg1210
I0
sg621
(dp1770
g18
Nsg19
g42
sg21
I11
ssg637
(dp1771
g18
Nsg19
g42
sg21
I69
ssg93
I0
sg1213
I2
sg1214
I0
sg108
I0
sg1215
F1
sg1216
g1217
sg103
I0
sg234
(dp1772
g18
S'H4sIANj3H04C/2tgSs4rzS2o1EvOL0rVyy3NKclMLCpKrOSKL0pNzs8rLikqTS7hKmSEqOLKS4HI\nFjJ5M7SGMia1BxUya3gzejO3QhWklFQWpHIVsoQypVl4M3gzAhWwangzhzLa+Pn5ef0HAjDhzVCS\n1BkqwYAMlk20gTA+2Jck6QEAEakbEZkAAAA=\n'
p1773
sg19
g102
sg21
I314
ssg1220
I0
sg1221
F30
sg1084
(dp1774
g18
S'H4sIANj3H04C/2tgSs4rzS2o1EvOL0rVyy3NKclMLCpKrOSKL0pNzs8rLikqTS7hKmSEqOLKS4HI\nFjJ5M7SGMia1BxUya3gzejO3QhWklFQWpHIVsoQypVl4M3gzAhWwangzhzLa+Pn5ef0HAjDhzVCS\n1BkqwYADlCTpAQD67GqfmQAAAA==\n'
p1775
sg19
g102
sg21
I315
sssg19
g110
sg21
I313
sssg1215
F1
sg1224
F0
sg1225
(dp1776
g2
(lp1777
((g4
g5
tI-1
tp1778
a((g1229
g1169
tI0
tp1779
asg15
g1229
sg16
(dp1780
g18
Nsg19
g42
sg21
I1
ssg19
g22
sg21
I317
sg23
g1169
sg18
(dp1781
g18
(dp1782
g1234
F0
sg1235
F0
sg500
(dp1783
g2
(lp1784
((g4
g5
tI-1
tp1785
a((g7
g5
tI-1
tp1786
a((g67
g68
tI-1
tp1787
a((g70
g71
tI-1
tp1788
a((g73
g74
tI-1
tp1789
a((g193
g194
tI-1
tp1790
a((g585
g586
tI-1
tp1791
a((g511
g588
tI-1
tp1792
a((g1246
g1247
tI-1
tp1793
asg15
g1246
sg16
(dp1794
g18
Nsg19
g42
sg21
I8
ssg19
g22
sg21
I319
sg23
g1247
sg18
(dp1795
g18
(dp1796
g593
(dp1797
g18
S'H4sIANj3H04C/2tgSs4rzS2o1EvOL0rVyy3NKclMLCpKrOSKL0pNzs8rLikqTS7hKmSEqOLKS4HI\nFjJ5M7SGMia1BxUya3gzejO3QhWklFQWpHIVsoQypVl4M3gzAhWwangzhzLa+Pn5ef0HAjDhzVCS\n1BkqwYADlCTpAQD67GqfmQAAAA==\n'
p1798
sg19
g102
sg21
I321
ssg136
(dp1799
g18
S'H4sIANj3H04C/2tgSs4rzS2o1EvOL0rVyy3NKclMLCpKrOSKL0pNzs8rLikqTS7hKmSEqOLKS4HI\nFjJ5M7SGMia1BxUya3gzejO3QhWklFQWpHIVsoQypVl4M3gzAhWwangzhzLa+Pn5ef0HAjDhzVCS\n1BkqwQAGH+zR6ZIkPQDfyO6fmQAAAA==\n'
p1800
sg19
g102
sg21
I323
ssg87
(dp1801
g18
S'H4sIANj3H04C/2tgSs4rzS2o1EvOL0rVyy3NKclMLCpKrOSKL0pNzs8rLikqTS7hKmSEqOLKS4HI\nFjJ5M7SGMia1BxUya3gzejO3QhWklFQWpHIVsoQypVl4M3gzAhWwangzhzLa+Pn5ef0HAjDhzVCS\n1BkqEXa2NK3N9oLNtyDnzRkMjDv58xdkL/rba1OSpAcAoXrkqJkAAAA=\n'
p1802
sg19
g102
sg21
I322
ssg103
I0
sg209
I1
sg229
I0
sg210
I1
sg230
I1
sg108
I0
sg93
I0
sg213
I0
sg234
(dp1803
g18
S'H4sIANj3H04C/2tgSs4rzS2o1EvOL0rVyy3NKclMLCpKrOSKL0pNzs8rLikqTS7hKmSEqOLKS4HI\nFjJ5M7SGMia1BxUya3gzejO3QhWklFQWpHIVsoQypVl4M3gzAhWwangzhzLa+Pn5ef0HAjDhzVCS\n1BkqwYADlCTpAQD67GqfmQAAAA==\n'
p1804
sg19
g102
sg21
I324
ssg224
I1
ssg19
g110
sg21
I320
ssssg19
g110
sg21
I318
ssssg19
g110
sg21
I311
ssa(dp1805
g2
(lp1806
((g4
g5
tI-1
tp1807
a((g1182
g1169
tI0
tp1808
asg15
g1182
sg16
(dp1809
g18
Nsg19
g42
sg21
I1
ssg19
g22
sg21
I325
sg23
g1169
sg18
(dp1810
g18
(dp1811
g1187
I00
sg1188
F0
sg95
(dp1812
g18
Nsg19
g42
sg21
I11
ssg1190
(dp1813
g2
(lp1814
((g4
g5
tI-1
tp1815
a((g7
g5
tI-1
tp1816
a((g67
g68
tI-1
tp1817
a((g70
g71
tI-1
tp1818
a((g73
g74
tI-1
tp1819
a((g1198
g1199
tI-1
tp1820
asg15
g1198
sg16
(dp1821
g18
Nsg19
g42
sg21
I8
ssg19
g22
sg21
I327
sg23
g1199
sg18
(dp1822
g18
(dp1823
g625
(dp1824
g18
Nsg19
g42
sg21
I11
ssg1205
(dp1825
g18
S'H4sIANj3H04C/2tgSs4rzS2o1EvOL0rVyy3NKclMLCpKrOSKL0pNzs8rLikqTS7hKmSEqOLKS4HI\nFjJ5M7SGMia1BxUya3gzejO3QhWklFQWpHIVsoQypVl4M3gzAhWwangzhzLa+Pn5ef0HAjDhzVCS\n1BkqwQAGH+wZ0EBJkh4Ak4CxA5kAAAA=\n'
p1826
sg19
g102
sg21
I331
ssg1208
I0
sg1209
F1
sg1210
I0
sg621
(dp1827
g18
Nsg19
g42
sg21
I11
ssg637
(dp1828
g18
Nsg19
g42
sg21
I69
ssg93
I0
sg1213
I2
sg1214
I0
sg108
I0
sg1215
F1
sg1216
g1217
sg103
I0
sg234
(dp1829
g18
S'H4sIANj3H04C/2tgSs4rzS2o1EvOL0rVyy3NKclMLCpKrOSKL0pNzs8rLikqTS7hKmSEqOLKS4HI\nFjJ5M7SGMia1BxUya3gzejO3QhWklFQWpHIVsoQypVl4M3gzAhWwangzhzLa+Pn5ef0HAjDhzVCS\n1BkqwYAMlk20gTA+2Jck6QEAEakbEZkAAAA=\n'
p1830
sg19
g102
sg21
I329
ssg1220
I0
sg1221
F30
sg1084
(dp1831
g18
S'H4sIANj3H04C/2tgSs4rzS2o1EvOL0rVyy3NKclMLCpKrOSKL0pNzs8rLikqTS7hKmSEqOLKS4HI\nFjJ5M7SGMia1BxUya3gzejO3QhWklFQWpHIVsoQypVl4M3gzAhWwangzhzLa+Pn5ef0HAjDhzVCS\n1BkqwYADlCTpAQD67GqfmQAAAA==\n'
p1832
sg19
g102
sg21
I330
sssg19
g110
sg21
I328
sssg1215
F1
sg1224
F0
sg1225
(dp1833
g2
(lp1834
((g4
g5
tI-1
tp1835
a((g1229
g1169
tI0
tp1836
asg15
g1229
sg16
(dp1837
g18
Nsg19
g42
sg21
I1
ssg19
g22
sg21
I332
sg23
g1169
sg18
(dp1838
g18
(dp1839
g1234
F0
sg1235
F0
sg500
(dp1840
g2
(lp1841
((g4
g5
tI-1
tp1842
a((g7
g5
tI-1
tp1843
a((g67
g68
tI-1
tp1844
a((g70
g71
tI-1
tp1845
a((g73
g74
tI-1
tp1846
a((g193
g194
tI-1
tp1847
a((g585
g586
tI-1
tp1848
a((g511
g588
tI-1
tp1849
a((g1246
g1247
tI-1
tp1850
asg15
g1246
sg16
(dp1851
g18
Nsg19
g42
sg21
I8
ssg19
g22
sg21
I334
sg23
g1247
sg18
(dp1852
g18
(dp1853
g593
(dp1854
g18
S'H4sIANj3H04C/2tgSs4rzS2o1EvOL0rVyy3NKclMLCpKrOSKL0pNzs8rLikqTS7hKmSEqOLKS4HI\nFjJ5M7SGMia1BxUya3gzejO3QhWklFQWpHIVsoQypVl4M3gzAhWwangzhzLa+Pn5ef0HAjDhzVCS\n1BkqwYADlCTpAQD67GqfmQAAAA==\n'
p1855
sg19
g102
sg21
I336
ssg136
(dp1856
g18
S'H4sIANj3H04C/2tgSs4rzS2o1EvOL0rVyy3NKclMLCpKrOSKL0pNzs8rLikqTS7hKmSEqOLKS4HI\nFjJ5M7SGMia1BxUya3gzejO3QhWklFQWpHIVsoQypVl4M3gzAhWwangzhzLa+Pn5ef0HAjDhzVCS\n1BkqwQAGH+zR6ZIkPQDfyO6fmQAAAA==\n'
p1857
sg19
g102
sg21
I338
ssg87
(dp1858
g18
S'H4sIANj3H04C/2tgSs4rzS2o1EvOL0rVyy3NKclMLCpKrOSKL0pNzs8rLikqTS7hKmSEqOLKS4HI\nFjJ5M7SGMia1BxUya3gzejO3QhWklFQWpHIVsoQypVl4M3gzAhWwangzhzLa+Pn5ef0HAjDhzVCS\n1BkqEXa2NK3N9oLNtyDnzRkMjJb8+QuyF/3t3VOSpAcAeqN6JZkAAAA=\n'
p1859
sg19
g102
sg21
I337
ssg103
I0
sg209
I1
sg229
I0
sg210
I1
sg230
I1
sg108
I0
sg93
I0
sg213
I0
sg234
(dp1860
g18
S'H4sIANj3H04C/2tgSs4rzS2o1EvOL0rVyy3NKclMLCpKrOSKL0pNzs8rLikqTS7hKmSEqOLKS4HI\nFjJ5M7SGMia1BxUya3gzejO3QhWklFQWpHIVsoQypVl4M3gzAhWwangzhzLa+Pn5ef0HAjDhzVCS\n1BkqwYADlCTpAQD67GqfmQAAAA==\n'
p1861
sg19
g102
sg21
I339
ssg224
I1
ssg19
g110
sg21
I335
ssssg19
g110
sg21
I333
ssssg19
g110
sg21
I326
ssa(dp1862
g2
(lp1863
((g4
g5
tI-1
tp1864
a((g1182
g1169
tI0
tp1865
asg15
g1182
sg16
(dp1866
g18
Nsg19
g42
sg21
I1
ssg19
g22
sg21
I340
sg23
g1169
sg18
(dp1867
g18
(dp1868
g1187
I00
sg1188
F0
sg95
(dp1869
g18
Nsg19
g42
sg21
I11
ssg1190
(dp1870
g2
(lp1871
((g4
g5
tI-1
tp1872
a((g7
g5
tI-1
tp1873
a((g67
g68
tI-1
tp1874
a((g70
g71
tI-1
tp1875
a((g73
g74
tI-1
tp1876
a((g1198
g1199
tI-1
tp1877
asg15
g1198
sg16
(dp1878
g18
Nsg19
g42
sg21
I8
ssg19
g22
sg21
I342
sg23
g1199
sg18
(dp1879
g18
(dp1880
g625
(dp1881
g18
Nsg19
g42
sg21
I11
ssg1205
(dp1882
g18
S'H4sIANj3H04C/2tgSs4rzS2o1EvOL0rVyy3NKclMLCpKrOSKL0pNzs8rLikqTS7hKmSEqOLKS4HI\nFjJ5M7SGMia1BxUya3gzejO3QhWklFQWpHIVsoQypVl4M3gzAhWwangzhzLa+Pn5ef0HAjDhzVCS\n1BkqwQAGH+wZ0EBJkh4Ak4CxA5kAAAA=\n'
p1883
sg19
g102
sg21
I346
ssg1208
I0
sg1209
F1
sg1210
I0
sg621
(dp1884
g18
Nsg19
g42
sg21
I11
ssg637
(dp1885
g18
Nsg19
g42
sg21
I69
ssg93
I0
sg1213
I2
sg1214
I0
sg108
I0
sg1215
F1
sg1216
g1217
sg103
I0
sg234
(dp1886
g18
S'H4sIANj3H04C/2tgSs4rzS2o1EvOL0rVyy3NKclMLCpKrOSKL0pNzs8rLikqTS7hKmSEqOLKS4HI\nFjJ5M7SGMia1BxUya3gzejO3QhWklFQWpHIVsoQypVl4M3gzAhWwangzhzLa+Pn5ef0HAjDhzVCS\n1BkqwYAVfLAvSdIDAFBUFn+ZAAAA\n'
p1887
sg19
g102
sg21
I344
ssg1220
I0
sg1221
F30
sg1084
(dp1888
g18
S'H4sIANj3H04C/2tgSs4rzS2o1EvOL0rVyy3NKclMLCpKrOSKL0pNzs8rLikqTS7hKmSEqOLKS4HI\nFjJ5M7SGMia1BxUya3gzejO3QhWklFQWpHIVsoQypVl4M3gzAhWwangzhzLa+Pn5ef0HAjDhzVCS\n1BkqwYADlCTpAQD67GqfmQAAAA==\n'
p1889
sg19
g102
sg21
I345
sssg19
g110
sg21
I343
sssg1215
F1
sg1224
F0
sg1225
(dp1890
g2
(lp1891
((g4
g5
tI-1
tp1892
a((g1229
g1169
tI0
tp1893
asg15
g1229
sg16
(dp1894
g18
Nsg19
g42
sg21
I1
ssg19
g22
sg21
I347
sg23
g1169
sg18
(dp1895
g18
(dp1896
g1234
F0
sg1235
F0
sg500
(dp1897
g2
(lp1898
((g4
g5
tI-1
tp1899
a((g7
g5
tI-1
tp1900
a((g67
g68
tI-1
tp1901
a((g70
g71
tI-1
tp1902
a((g73
g74
tI-1
tp1903
a((g193
g194
tI-1
tp1904
a((g585
g586
tI-1
tp1905
a((g511
g588
tI-1
tp1906
a((g1246
g1247
tI-1
tp1907
asg15
g1246
sg16
(dp1908
g18
Nsg19
g42
sg21
I8
ssg19
g22
sg21
I349
sg23
g1247
sg18
(dp1909
g18
(dp1910
g593
(dp1911
g18
S'H4sIANj3H04C/2tgSs4rzS2o1EvOL0rVyy3NKclMLCpKrOSKL0pNzs8rLikqTS7hKmSEqOLKS4HI\nFjJ5M7SGMia1BxUya3gzejO3QhWklFQWpHIVsoQypVl4M3gzAhWwangzhzLa+Pn5ef0HAjDhzVCS\n1BkqwYADlCTpAQD67GqfmQAAAA==\n'
p1912
sg19
g102
sg21
I351
ssg136
(dp1913
g18
S'H4sIANj3H04C/2tgSs4rzS2o1EvOL0rVyy3NKclMLCpKrOSKL0pNzs8rLikqTS7hKmSEqOLKS4HI\nFjJ5M7SGMia1BxUya3gzejO3QhWklFQWpHIVsoQypVl4M3gzAhWwangzhzLa+Pn5ef0HAjDhzVCS\n1BkqwQAGH+zR6ZIkPQDfyO6fmQAAAA==\n'
p1914
sg19
g102
sg21
I353
ssg87
(dp1915
g18
S'H4sIANj3H04C/2tgSs4rzS2o1EvOL0rVyy3NKclMLCpKrOSKL0pNzs8rLikqTS7hKmSEqOLKS4HI\nFjJ5M7SGMia1BxUya3gzejO3QhWklFQWpHIVsoQypVl4M3gzAhWwangzhzLa+Pn5ef0HAjDhzVCS\n1BkqwYAKGmCMkiQ9ABqDrf+ZAAAA\n'
p1916
sg19
g102
sg21
I352
ssg103
I0
sg209
I1
sg229
I0
sg210
I1
sg230
I1
sg108
I0
sg93
I0
sg213
I0
sg234
(dp1917
g18
S'H4sIANj3H04C/2tgSs4rzS2o1EvOL0rVyy3NKclMLCpKrOSKL0pNzs8rLikqTS7hKmSEqOLKS4HI\nFjJ5M7SGMia1BxUya3gzejO3QhWklFQWpHIVsoQypVl4M3gzAhWwangzhzLa+Pn5ef0HAjDhzVCS\n1BkqwYADlCTpAQD67GqfmQAAAA==\n'
p1918
sg19
g102
sg21
I354
ssg224
I1
ssg19
g110
sg21
I350
ssssg19
g110
sg21
I348
ssssg19
g110
sg21
I341
ssasg19
g478
sg21
I294
ssS'light_mode_'
p1919
I2
sg1431
I4
ssg19
g110
sg21
I293
sssg1432
I1
ssg19
g110
sg21
I236
sssg287
S''
sg19
S' scene'
p1920
sg453
(dp1921
g18
(lp1922
(dp1923
g2
(lp1924
((g4
g5
tI-1
tp1925
a((g30
g5
tI-1
tp1926
a((g32
g33
tI-1
tp1927
a((g35
g36
tI0
tp1928
a((g462
g463
tI0
tp1929
a((S'Source'
p1930
S'enthought.mayavi.core.source'
p1931
tI0
tp1932
a((S'ParametricSurface'
p1933
S'enthought.mayavi.sources.parametric_surface'
p1934
tI0
tp1935
asg15
g1933
sg16
(dp1936
g18
Nsg19
g42
sg21
I1
ssg19
g22
sg21
I356
sg23
g1934
sg18
(dp1937
g18
(dp1938
S'function'
p1939
S'random_hills'
p1940
sS'_function_dict'
p1941
(dp1942
g18
(dp1943
S'conic_spiral'
p1944
(dp1945
g2
(lp1946
((g4
g5
tI-1
tp1947
a((g7
g5
tI-1
tp1948
a((g67
g68
tI-1
tp1949
a((g70
g71
tI-1
tp1950
a((g73
g74
tI-1
tp1951
a((S'ParametricFunction'
p1952
S'tvtk_classes.parametric_function'
p1953
tI-1
tp1954
a((S'ParametricConicSpiral'
p1955
S'tvtk_classes.parametric_conic_spiral'
p1956
tI-1
tp1957
asg15
g1955
sg16
(dp1958
g18
Nsg19
g42
sg21
I8
ssg19
g22
sg21
I359
sg23
g1956
sg18
(dp1959
g18
(dp1960
S'join_u_'
p1961
I0
sS'derivatives_available'
p1962
I1
sS'twist_v'
p1963
I0
sS'twist_u'
p1964
I0
sS'derivatives_available_'
p1965
I1
sS'twist_v_'
p1966
I0
sS'minimum_v'
p1967
F0
sS'minimum_w'
p1968
F0
sS'maximum_v'
p1969
F6.2831854820251465
sS'maximum_w'
p1970
F1
sS'clockwise_ordering_'
p1971
I1
sS'clockwise_ordering'
p1972
I1
sS'twist_u_'
p1973
I0
sS'maximum_u'
p1974
F6.2831854820251465
sS'join_v'
p1975
I0
sS'join_u'
p1976
I0
sg108
I0
sS'a'
F0.20000000000000001
sS'c'
F0.10000000000000001
sS'b'
F1
sg93
I0
sS'n'
F2
sg103
I0
sS'join_v_'
p1977
I0
sS'minimum_u'
p1978
F0
ssg19
g110
sg21
I360
sssS'enneper'
p1979
(dp1980
g2
(lp1981
((g4
g5
tI-1
tp1982
a((g7
g5
tI-1
tp1983
a((g67
g68
tI-1
tp1984
a((g70
g71
tI-1
tp1985
a((g73
g74
tI-1
tp1986
a((g1952
g1953
tI-1
tp1987
a((S'ParametricEnneper'
p1988
S'tvtk_classes.parametric_enneper'
p1989
tI-1
tp1990
asg15
g1988
sg16
(dp1991
g18
Nsg19
g42
sg21
I8
ssg19
g22
sg21
I361
sg23
g1989
sg18
(dp1992
g18
(dp1993
g1961
I0
sg1972
I1
sg1978
F-2
sg108
I0
sg1973
I0
sg1962
I1
sg1974
F2
sg1975
I0
sg1976
I0
sg1963
I0
sg1964
I0
sg1965
I1
sg1966
I0
sg1967
F-2
sg1968
F0
sg103
I0
sg1977
I0
sg93
I0
sg1969
F2
sg1970
F1
sg1971
I1
ssg19
g110
sg21
I362
sssS'cap'
p1994
(dp1995
g2
(lp1996
((g4
g5
tI-1
tp1997
a((g7
g5
tI-1
tp1998
a((g67
g68
tI-1
tp1999
a((g70
g71
tI-1
tp2000
a((g73
g74
tI-1
tp2001
a((g1952
g1953
tI-1
tp2002
a((S'ParametricCrossCap'
p2003
S'tvtk_classes.parametric_cross_cap'
p2004
tI-1
tp2005
asg15
g2003
sg16
(dp2006
g18
Nsg19
g42
sg21
I8
ssg19
g22
sg21
I375
sg23
g2004
sg18
(dp2007
g18
(dp2008
g1961
I1
sg1972
I1
sg1978
F0
sg108
I0
sg1973
I1
sg1962
I1
sg1974
F3.1415927410125732
sg1975
I1
sg1976
I1
sg1963
I1
sg1964
I1
sg1965
I1
sg1966
I1
sg1967
F0
sg1968
F0
sg103
I0
sg1977
I1
sg93
I0
sg1969
F3.1415927410125732
sg1970
F1
sg1971
I1
ssg19
g110
sg21
I376
sssg1940
(dp2009
g2
(lp2010
((g4
g5
tI-1
tp2011
a((g7
g5
tI-1
tp2012
a((g67
g68
tI-1
tp2013
a((g70
g71
tI-1
tp2014
a((g73
g74
tI-1
tp2015
a((g1952
g1953
tI-1
tp2016
a((S'ParametricRandomHills'
p2017
S'tvtk_classes.parametric_random_hills'
p2018
tI-1
tp2019
asg15
g2017
sg16
(dp2020
g18
Nsg19
g42
sg21
I8
ssg19
g22
sg21
I365
sg23
g2018
sg18
(dp2021
g18
(dp2022
g1961
I0
sS'number_of_hills'
p2023
I32
sS'hill_y_variance'
p2024
F2.5
sg1962
I0
sS'allow_random_generation'
p2025
I1
sg1963
I0
sg1964
I0
sg1965
I0
sg1966
I0
sg1967
F-10
sg1968
F0
sg1969
F10
sg1970
F1
sg1971
I1
sg1972
I1
sS'y_variance_scale_factor'
p2026
F0.33333333333333331
sg1973
I0
sS'hill_x_variance'
p2027
F2.5
sg1974
F10
sS'random_seed'
p2028
I101
sg1975
I0
sg1976
I0
sg108
I0
sS'amplitude_scale_factor'
p2029
F0.33333333333333331
sS'x_variance_scale_factor'
p2030
F0.33333333333333331
sS'allow_random_generation_'
p2031
I1
sS'hill_amplitude'
p2032
F2
sg93
I0
sg103
I0
sg1977
I0
sg1978
F-10
ssg19
g110
sg21
I366
sssS'klein'
p2033
(dp2034
g2
(lp2035
((g4
g5
tI-1
tp2036
a((g7
g5
tI-1
tp2037
a((g67
g68
tI-1
tp2038
a((g70
g71
tI-1
tp2039
a((g73
g74
tI-1
tp2040
a((g1952
g1953
tI-1
tp2041
a((S'ParametricKlein'
p2042
S'tvtk_classes.parametric_klein'
p2043
tI-1
tp2044
asg15
g2042
sg16
(dp2045
g18
Nsg19
g42
sg21
I8
ssg19
g22
sg21
I367
sg23
g2043
sg18
(dp2046
g18
(dp2047
g1961
I0
sg1972
I1
sg1978
F0
sg108
I0
sg1973
I0
sg1962
I1
sg1974
F3.1415927410125732
sg1975
I1
sg1976
I0
sg1963
I0
sg1964
I0
sg1965
I1
sg1966
I0
sg1967
F0
sg1968
F0
sg103
I0
sg1977
I1
sg93
I0
sg1969
F6.2831854820251465
sg1970
F1
sg1971
I1
ssg19
g110
sg21
I368
sssS'ellipsoid'
p2048
(dp2049
g2
(lp2050
((g4
g5
tI-1
tp2051
a((g7
g5
tI-1
tp2052
a((g67
g68
tI-1
tp2053
a((g70
g71
tI-1
tp2054
a((g73
g74
tI-1
tp2055
a((g1952
g1953
tI-1
tp2056
a((S'ParametricEllipsoid'
p2057
S'tvtk_classes.parametric_ellipsoid'
p2058
tI-1
tp2059
asg15
g2057
sg16
(dp2060
g18
Nsg19
g42
sg21
I8
ssg19
g22
sg21
I369
sg23
g2058
sg18
(dp2061
g18
(dp2062
g1961
I1
sS'x_radius'
p2063
F1
sg1962
I1
sS'y_radius'
p2064
F1
sg1963
I0
sg1964
I0
sg1965
I1
sg1966
I0
sg1967
F0
sg1968
F0
sg1969
F3.1415927410125732
sg1970
F1
sg1971
I1
sg1972
I1
sg1973
I0
sS'z_radius'
p2065
F1
sg1974
F6.2831854820251465
sg1975
I0
sg1976
I1
sg108
I0
sg93
I0
sg103
I0
sg1977
I0
sg1978
F0
ssg19
g110
sg21
I370
sssS'boy'
p2066
(dp2067
g2
(lp2068
((g4
g5
tI-1
tp2069
a((g7
g5
tI-1
tp2070
a((g67
g68
tI-1
tp2071
a((g70
g71
tI-1
tp2072
a((g73
g74
tI-1
tp2073
a((g1952
g1953
tI-1
tp2074
a((S'ParametricBoy'
p2075
S'tvtk_classes.parametric_boy'
p2076
tI-1
tp2077
asg15
g2075
sg16
(dp2078
g18
Nsg19
g42
sg21
I8
ssg19
g22
sg21
I363
sg23
g2076
sg18
(dp2079
g18
(dp2080
g1961
I1
sg1962
I1
sg1963
I1
sg1964
I1
sg1965
I1
sg1978
F0
sg1967
F0
sg1968
F0
sg1969
F3.1415927410125732
sg1970
F1
sg1974
F3.1415927410125732
sg1972
I1
sg1973
I1
sg1971
I1
sg1975
I1
sg1976
I1
sg108
I0
sS'z_scale'
p2081
F0.125
sg93
I0
sg103
I0
sg1977
I1
sg1966
I1
ssg19
g110
sg21
I364
sssS'torus'
p2082
(dp2083
g2
(lp2084
((g4
g5
tI-1
tp2085
a((g7
g5
tI-1
tp2086
a((g67
g68
tI-1
tp2087
a((g70
g71
tI-1
tp2088
a((g73
g74
tI-1
tp2089
a((g1952
g1953
tI-1
tp2090
a((S'ParametricTorus'
p2091
S'tvtk_classes.parametric_torus'
p2092
tI-1
tp2093
asg15
g2091
sg16
(dp2094
g18
Nsg19
g42
sg21
I8
ssg19
g22
sg21
I373
sg23
g2092
sg18
(dp2095
g18
(dp2096
g1961
I1
sg1962
I1
sg1963
I0
sg1964
I0
sg1965
I1
sg1966
I0
sg1967
F0
sg1968
F0
sS'cross_section_radius'
p2097
F0.5
sg1969
F6.2831854820251465
sg1970
F1
sg1974
F6.2831854820251465
sg1972
I1
sg1973
I0
sg1971
I1
sg1975
I1
sg1976
I1
sg108
I0
sS'ring_radius'
p2098
F1
sg93
I0
sg103
I0
sg1977
I1
sg1978
F0
ssg19
g110
sg21
I374
sssS'figure8klein'
p2099
(dp2100
g2
(lp2101
((g4
g5
tI-1
tp2102
a((g7
g5
tI-1
tp2103
a((g67
g68
tI-1
tp2104
a((g70
g71
tI-1
tp2105
a((g73
g74
tI-1
tp2106
a((g1952
g1953
tI-1
tp2107
a((S'ParametricFigure8Klein'
p2108
S'tvtk_classes.parametric_figure8_klein'
p2109
tI-1
tp2110
asg15
g2108
sg16
(dp2111
g18
Nsg19
g42
sg21
I8
ssg19
g22
sg21
I371
sg23
g2109
sg18
(dp2112
g18
(dp2113
g1961
I1
sg1962
I1
sg1963
I0
sg1964
I1
sg1965
I1
sS'radius'
p2114
F1
sg1978
F-3.1415927410125732
sg1967
F-3.1415927410125732
sg1968
F0
sg1969
F3.1415927410125732
sg1970
F1
sg1974
F3.1415927410125732
sg1972
I1
sg1973
I1
sg1971
I1
sg1975
I1
sg1976
I1
sg108
I0
sg93
I0
sg103
I0
sg1977
I1
sg1966
I0
ssg19
g110
sg21
I372
sssS'super_toroid'
p2115
(dp2116
g2
(lp2117
((g4
g5
tI-1
tp2118
a((g7
g5
tI-1
tp2119
a((g67
g68
tI-1
tp2120
a((g70
g71
tI-1
tp2121
a((g73
g74
tI-1
tp2122
a((g1952
g1953
tI-1
tp2123
a((S'ParametricSuperToroid'
p2124
S'tvtk_classes.parametric_super_toroid'
p2125
tI-1
tp2126
asg15
g2124
sg16
(dp2127
g18
Nsg19
g42
sg21
I8
ssg19
g22
sg21
I377
sg23
g2125
sg18
(dp2128
g18
(dp2129
g1961
I1
sg2063
F1
sg1962
I0
sg2064
F1
sg1963
I0
sg1964
I0
sg1965
I0
sg1978
F0
sg1967
F0
sg1968
F0
sg2097
F0.5
sg1969
F6.2831854820251465
sg1970
F1
sg1971
I1
sg1972
I1
sg1973
I0
sg2065
F1
sg1974
F6.2831854820251465
sg1975
I1
sg1976
I1
sg108
I0
sg2098
F1
sS'n1'
p2130
F1
sg93
I0
sg103
I0
sg1977
I1
sS'n2'
p2131
F1
sg1966
I0
ssg19
g110
sg21
I378
sssS'dini'
p2132
(dp2133
g2
(lp2134
((g4
g5
tI-1
tp2135
a((g7
g5
tI-1
tp2136
a((g67
g68
tI-1
tp2137
a((g70
g71
tI-1
tp2138
a((g73
g74
tI-1
tp2139
a((g1952
g1953
tI-1
tp2140
a((S'ParametricDini'
p2141
S'tvtk_classes.parametric_dini'
p2142
tI-1
tp2143
asg15
g2141
sg16
(dp2144
g18
Nsg19
g42
sg21
I8
ssg19
g22
sg21
I379
sg23
g2142
sg18
(dp2145
g18
(dp2146
g1961
I0
sg1962
I1
sg1963
I0
sg1964
I0
sg1965
I1
sg1978
F0
sg1967
F0.001
sg1968
F0
sg1969
F2
sg1970
F1
sg1974
F12.566370964050293
sg1972
I1
sg1973
I0
sg1971
I1
sg1975
I0
sg1976
I0
sg108
I0
sS'a'
F1
sS'b'
F0.20000000000000001
sg93
I0
sg103
I0
sg1977
I0
sg1966
I0
ssg19
g110
sg21
I380
sssS'roman'
p2147
(dp2148
g2
(lp2149
((g4
g5
tI-1
tp2150
a((g7
g5
tI-1
tp2151
a((g67
g68
tI-1
tp2152
a((g70
g71
tI-1
tp2153
a((g73
g74
tI-1
tp2154
a((g1952
g1953
tI-1
tp2155
a((S'ParametricRoman'
p2156
S'tvtk_classes.parametric_roman'
p2157
tI-1
tp2158
asg15
g2156
sg16
(dp2159
g18
Nsg19
g42
sg21
I8
ssg19
g22
sg21
I381
sg23
g2157
sg18
(dp2160
g18
(dp2161
g1961
I1
sg1962
I1
sg1963
I0
sg1964
I1
sg1965
I1
sg2114
F1
sg1978
F0
sg1967
F0
sg1968
F0
sg1969
F3.1415927410125732
sg1970
F1
sg1974
F3.1415927410125732
sg1972
I1
sg1973
I1
sg1971
I1
sg1975
I1
sg1976
I1
sg108
I0
sg93
I0
sg103
I0
sg1977
I1
sg1966
I0
ssg19
g110
sg21
I382
sssS'mobius'
p2162
(dp2163
g2
(lp2164
((g4
g5
tI-1
tp2165
a((g7
g5
tI-1
tp2166
a((g67
g68
tI-1
tp2167
a((g70
g71
tI-1
tp2168
a((g73
g74
tI-1
tp2169
a((g1952
g1953
tI-1
tp2170
a((S'ParametricMobius'
p2171
S'tvtk_classes.parametric_mobius'
p2172
tI-1
tp2173
asg15
g2171
sg16
(dp2174
g18
Nsg19
g42
sg21
I8
ssg19
g22
sg21
I383
sg23
g2172
sg18
(dp2175
g18
(dp2176
g1961
I1
sg1962
I1
sg1963
I0
sg1964
I1
sg1965
I1
sg2114
F1
sg1978
F0
sg1967
F-1
sg1968
F0
sg1969
F1
sg1970
F1
sg1974
F6.2831854820251465
sg1972
I1
sg1973
I1
sg1971
I1
sg1975
I0
sg1976
I1
sg108
I0
sg93
I0
sg103
I0
sg1977
I0
sg1966
I0
ssg19
g110
sg21
I384
sssS'super_ellipsoid'
p2177
(dp2178
g2
(lp2179
((g4
g5
tI-1
tp2180
a((g7
g5
tI-1
tp2181
a((g67
g68
tI-1
tp2182
a((g70
g71
tI-1
tp2183
a((g73
g74
tI-1
tp2184
a((g1952
g1953
tI-1
tp2185
a((S'ParametricSuperEllipsoid'
p2186
S'tvtk_classes.parametric_super_ellipsoid'
p2187
tI-1
tp2188
asg15
g2186
sg16
(dp2189
g18
Nsg19
g42
sg21
I8
ssg19
g22
sg21
I385
sg23
g2187
sg18
(dp2190
g18
(dp2191
g1961
I1
sg2063
F1
sg1962
I0
sg2064
F1
sg1963
I0
sg1964
I0
sg1965
I0
sg1966
I0
sg1967
F0
sg1968
F0
sg1969
F3.1415927410125732
sg1970
F1
sg1971
I1
sg1972
I1
sg1973
I0
sg2065
F1
sg1974
F6.2831854820251465
sg1975
I0
sg1976
I1
sg108
I0
sg2130
F1
sg93
I0
sg103
I0
sg1977
I0
sg2131
F1
sg1978
F0
ssg19
g110
sg21
I386
sssS'spline'
p2192
(dp2193
g2
(lp2194
((g4
g5
tI-1
tp2195
a((g7
g5
tI-1
tp2196
a((g67
g68
tI-1
tp2197
a((g70
g71
tI-1
tp2198
a((g73
g74
tI-1
tp2199
a((g1952
g1953
tI-1
tp2200
a((S'ParametricSpline'
p2201
S'tvtk_classes.parametric_spline'
p2202
tI-1
tp2203
asg15
g2201
sg16
(dp2204
g18
Nsg19
g42
sg21
I8
ssg19
g22
sg21
I387
sg23
g2202
sg18
(dp2205
g18
(dp2206
g1961
I0
sS'left_value'
p2207
F0
sg1963
I0
sg1964
I0
sg1965
I1
sg1966
I0
sg1967
F0
sg1968
F0
sg1969
F1
sg1970
F1
sS'right_value'
p2208
F0
sg1972
I1
sg1973
I0
sS'left_constraint'
p2209
I1
sS'parameterize_by_length_'
p2210
I1
sS'closed'
p2211
I0
sg1971
I1
sg1962
I1
sS'closed_'
p2212
I0
sg1975
I0
sg1976
I0
sg108
I0
sS'right_constraint'
p2213
I1
sS'parameterize_by_length'
p2214
I1
sg1974
F1
sg93
I0
sg103
I0
sg1977
I0
sg1978
F0
ssg19
g110
sg21
I388
ssssg19
g110
sg21
I358
ssg45
S'ParametricSurface'
p2215
sg1190
(dp2216
g2
(lp2217
((g4
g5
tI-1
tp2218
a((g7
g5
tI-1
tp2219
a((g67
g68
tI-1
tp2220
a((g70
g71
tI-1
tp2221
a((g73
g74
tI-1
tp2222
a((g525
g526
tI-1
tp2223
a((g698
g699
tI-1
tp2224
a((S'ParametricFunctionSource'
p2225
S'tvtk_classes.parametric_function_source'
p2226
tI-1
tp2227
asg15
g2225
sg16
(dp2228
g18
Nsg19
g42
sg21
I8
ssg19
g22
sg21
I712
sg23
g2226
sg18
(dp2229
g18
(dp2230
g565
I0
sS'generate_texture_coordinates_'
p2231
I0
sS'w_resolution'
p2232
I50
sg545
S'z'
sS'v_resolution'
p2233
I50
sg560
NsS'generate_texture_coordinates'
p2234
I0
sg103
I0
sg108
I0
sg554
I0
sg562
I11
sg555
I0
sg569
I0
sg556
F1
sS'u_resolution'
p2235
I50
sg93
I0
ssg19
g110
sg21
I713
sssS'output_info'
p2236
(dp2237
g2
(lp2238
((g4
g5
tI-1
tp2239
a((g484
g485
tI-1
tp2240
asg15
g484
sg16
(dp2241
g18
Nsg19
g42
sg21
I1
ssg19
g22
sg21
I714
sg23
g485
sg18
(dp2242
g18
(dp2243
g490
(dp2244
g18
(lp2245
g661
asg19
g478
sg21
I716
ssg493
(dp2246
g18
(lp2247
S'poly_data'
p2248
asg19
g478
sg21
I717
ssg497
(dp2249
g18
(lp2250
g661
asg19
g478
sg21
I718
sssg19
g110
sg21
I715
sssg602
I01
sg287
S''
sg182
Nsg19
S' data source'
p2251
sg453
(dp2252
g18
(lp2253
(dp2254
g2
(lp2255
((g4
g5
tI-1
tp2256
a((g30
g5
tI-1
tp2257
a((g32
g33
tI-1
tp2258
a((g35
g36
tI0
tp2259
a((g38
g39
tI0
tp2260
asg15
g38
sg16
(dp2261
g18
Nsg19
g42
sg21
I1
ssg19
g22
sg21
I390
sg23
g39
sg18
(dp2262
g18
(dp2263
g45
g46
sg47
g48
sg49
(dp2264
g2
(lp2265
((g4
g5
tI-1
tp2266
a((g30
g5
tI-1
tp2267
a((g32
g33
tI-1
tp2268
a((g35
g36
tI0
tp2269
a((g56
g57
tI0
tp2270
asg15
g56
sg16
(dp2271
g18
Nsg19
g42
sg21
I1
ssg19
g22
sg21
I392
sg23
g57
sg18
(dp2272
g18
(dp2273
g62
(dp2274
g2
(lp2275
((g4
g5
tI-1
tp2276
a((g7
g5
tI-1
tp2277
a((g67
g68
tI-1
tp2278
a((g70
g71
tI-1
tp2279
a((g73
g74
tI-1
tp2280
a((g76
g77
tI-1
tp2281
asg15
g76
sg16
(dp2282
g18
Nsg19
g42
sg21
I8
ssg19
g22
sg21
I394
sg23
g77
sg18
(dp2283
g18
(dp2284
g83
F1
sg84
g85
sg86
I12
sg87
F0
sg88
F0
sg89
I1
sg90
g91
sg92
I0
sg93
I0
sg94
F1.1000000000000001
sg95
(dp2285
g18
Nsg19
g42
sg21
I11
ssg98
I1
sg99
(dp2286
g18
S'H4sIANj3H04C/2tgSs4rzS2o1EvOL0rVyy3NKclMLCpKrOSKL0pNzs8rLikqTS7hKmSEqOLKS4HI\nFjJ5M7SGMia1BxUya3gzejO1QhWklFQWpHIVsoQyZZp4M3gzAhWwangzhzLa+Pn5ef0HAjDhzVCS\n1BnKwcjAwADiliTpAQCk2G9tiQAAAA==\n'
p2287
sg19
g102
sg21
I396
ssg103
I0
sg104
I1
sg105
I0
sg106
g107
sg108
I0
sg109
I1
ssg19
g110
sg21
I395
sssg111
S''
sg112
g113
sg114
I01
sg115
(dp2288
g18
S'H4sIANj3H04C/2tgSs4rzS2o1EvOL0rVyy3NKclMLCpKrOSKL0pNzs8rLikqTS7hKmSEqOLKS4HI\nFjJ5M7SGMia1BxUya3gzejO1QhWklFQWpHIVsoQypVl4M3gzAhWwangzhzLa+Pn5ef0HAjDhzVCS\n1BkqwIACPtiXJOkBAIHIRA6RAAAA\n'
p2289
sg19
g102
sg21
I397
ssg118
(dp2290
g2
(lp2291
((g4
g5
tI-1
tp2292
a((g7
g5
tI-1
tp2293
a((g67
g68
tI-1
tp2294
a((g70
g71
tI-1
tp2295
a((g73
g74
tI-1
tp2296
a((g126
g127
tI-1
tp2297
a((g129
g130
tI-1
tp2298
asg15
g129
sg16
(dp2299
g18
Nsg19
g42
sg21
I8
ssg19
g22
sg21
I398
sg23
g130
sg18
(dp2300
g18
(dp2301
g135
I2
sg136
g137
sg138
(dp2302
g18
S'H4sIANj3H04C/2tgSs4rzS2o1EvOL0rVyy3NKclMLCpKrOSKL0pNzs8rLikqTS7hKmSEqOLKS4HI\nFjJ5M7SGMia1BxUya3gzejO1QhWklFQWpHIVsoQypVl4M3gzAhWwangzhzLa+Pn5ef0HAjDhzVCS\n1BkqwAAGH+xhdEmSHgBnOGdykQAAAA==\n'
p2303
sg19
g102
sg21
I400
ssg141
(dp2304
g18
S'H4sIANj3H04C/2tgSs4rzS2o1EvOL0rVyy3NKclMLCpKrOSKL0pNzs8rLikqTS7hKmSEqOLKS4HI\nFjJ5M7SGMia1BxUya3gzejO1QhWklFQWpHIVsoQypVl4M3gzAhWwangzhzLa+Pn5ef0HAjDhzVCS\n1BkqwIACPtiXJOkBAIHIRA6RAAAA\n'
p2305
sg19
g102
sg21
I402
ssg144
(dp2306
g18
S'H4sIANj3H04C/2tgSs4rzS2o1EvOL0rVyy3NKclMLCpKrOSKL0pNzs8rLikqTS7hKmSEqOLKS4HI\nFjJ5M7SGMia1BxUya3gzejO1QhWklFQWpHIVsoQypVl4M3gzAhWwangzhzLa+Pn5ef0HAjDhzVCS\n1Bkq4H2C3XZ26FN7BigoSdIDAObNAnCRAAAA\n'
p2307
sg19
g102
sg21
I401
ssg147
I256
sg148
g149
sg93
I0
sg150
I256
sg151
(dp2308
g18
S'H4sIANj3H04C/2tgSs4rzS2o1EvOL0rVyy3NKclMLCpKrOSKL0pNzs8rLikqTS7hKmSEqOLKS4HI\nFjJ5M7SGMia1BxUya3gzejO1QhWklFQWpHIVsoQypVl4M3gzAhWwangzhzLa+Pn5ef0HAjDhzVCS\n1BkqwAAGH+xhdEmSHgBnOGdykQAAAA==\n'
p2309
sg19
g102
sg21
I403
ssg154
(dp2310
g18
S'H4sIANj3H04C/2tgSs4rzS2o1EvOL0rVyy3NKclMLCpKrOSKL0pNzs8rLikqTS7hKmSEqOLKS4HI\nFjJ5M7SGMia1BxUya3gzejO1QhWklFQWpHIVsoQypVl4M3gzAhWwangzhzLa+Pn5ef0HAjDhzVCS\n1BkqwIACPtiXJOkBAIHIRA6RAAAA\n'
p2311
sg19
g102
sg21
I404
ssg157
I0
sg158
(dp2312
g18
S'H4sIANj3H04C/2tgSs4rzS2o1EvOL0rVyy3NKclMLCpKrOSKL0pNzs8rLikqTS7hKmSEqOLKS4HI\nFjJ5M7SGMia1BxUya3gzejO1QhWklFQWpHIVsoQypVl4M3gzAhWwangzhzLa+Pn5ef0HAjDhzVCS\n1BkqwAAGH+xhdEmSHgBnOGdykQAAAA==\n'
p2313
sg19
g102
sg21
I405
ssg103
I0
sg161
F1
sg162
g163
sg108
I0
ssg19
g110
sg21
I399
sssg164
(dp2314
g2
(lp2315
((g4
g5
tI-1
tp2316
a((g7
g5
tI-1
tp2317
a((g67
g68
tI-1
tp2318
a((g70
g71
tI-1
tp2319
a((g73
g74
tI-1
tp2320
a((g76
g77
tI-1
tp2321
asg15
g76
sg16
(dp2322
g18
Nsg19
g42
sg21
I8
ssg19
g22
sg21
I415
sg23
g77
sg18
(dp2323
g18
(dp2324
g83
F1
sg84
g85
sg86
I12
sg87
F0
sg88
F0
sg89
I1
sg90
g91
sg92
I0
sg93
I0
sg94
F1.1000000000000001
sg95
(dp2325
g18
Nsg19
g42
sg21
I11
ssg98
I1
sg99
(dp2326
g18
S'H4sIANj3H04C/2tgSs4rzS2o1EvOL0rVyy3NKclMLCpKrOSKL0pNzs8rLikqTS7hKmSEqOLKS4HI\nFjJ5M7SGMia1BxUya3gzejO1QhWklFQWpHIVsoQyZZp4M3gzAhWwangzhzLa+Pn5ef0HAjDhzVCS\n1BnKwcjAwADiliTpAQCk2G9tiQAAAA==\n'
p2327
sg19
g102
sg21
I417
ssg103
I0
sg104
I1
sg105
I0
sg106
g107
sg108
I0
sg109
I1
ssg19
g110
sg21
I416
sssg150
I256
sg179
(dp2328
g18
S'H4sIANj3H04C/2tgSs4rzS2o1EvOL0rVyy3NKclMLCpKrOSKL0pNzs8rLikqTS7hKmSEqOLKS4HI\nFjJ5M7SGMia1BxUya3gzejO1QhWklFQWpHIVsoQypVl4M3gzAhWwangzhzLa+Pn5ef0HAjDhzVCS\n1BkqwIACPtiXJOkBAIHIRA6RAAAA\n'
p2329
sg19
g102
sg21
I408
ssg182
Nsg183
I00
sg184
S''
sg185
(dp2330
g2
(lp2331
((g4
g5
tI-1
tp2332
a((g7
g5
tI-1
tp2333
a((g67
g68
tI-1
tp2334
a((g70
g71
tI-1
tp2335
a((g73
g74
tI-1
tp2336
a((g193
g194
tI-1
tp2337
a((g196
g197
tI-1
tp2338
a((g199
g200
tI-1
tp2339
a((g202
g203
tI-1
tp2340
asg15
g202
sg16
(dp2341
g18
Nsg19
g42
sg21
I8
ssg19
g22
sg21
I409
sg23
g203
sg18
(dp2342
g18
(dp2343
g87
I1
sg208
I0
sg209
I1
sg210
I1
sg211
g212
sg213
I1
sg214
I2
sg215
I0
sg216
I0
sg217
(dp2344
g18
S'H4sIANj3H04C/2tgSs4rzS2o1EvOL0rVyy3NKclMLCpKrOSKL0pNzs8rLikqTS7hKmSEqOLKS4HI\nFjJ5M7SGMia1BxUya3gzejO1QhWklFQWpHIVsoQypVl4M3gzAhWwangzhzLa+Pn5ef0HAjDhzVCS\n1BkqcPirRkz/oaP2s2aCwEv7kiQ9AC+e0nyRAAAA\n'
p2345
sg19
g102
sg21
I412
ssg220
I0
sg221
(dp2346
g18
S'H4sIANj3H04C/2tgSs4rzS2o1EvOL0rVyy3NKclMLCpKrOSKL0pNzs8rLikqTS7hKmSEqOLKS4HI\nFjJ5M7SGMia1BxUya3gzejO1QhWklFQWpHIVsoQyZZp4M3gzAhWwangzhzLa+Pn5ef0HAjDhzVCS\n1BnKsaCNkQGES5L0ALP9TXGJAAAA\n'
p2347
sg19
g102
sg21
I414
ssg224
I1
sg225
I3
sg226
(dp2348
g18
S'H4sIANj3H04C/2tgSs4rzS2o1EvOL0rVyy3NKclMLCpKrOSKL0pNzs8rLikqTS7hKmSEqOLKS4HI\nFjJ5M7SGMia1BxUya3gzejO1QhWklFQWpHIVsoQyZZp4M3gzAhWwangzhzLa+Pn5ef0HAjDhzVCS\n1BnKwcjAwADCJUl6AJHzi6mJAAAA\n'
p2349
sg19
g102
sg21
I411
ssg229
I1
sg230
I1
sg108
I0
sg231
I0
sg232
F0.5
sg233
I0
sg93
I0
sg103
I0
sg234
(dp2350
g18
S'H4sIANj3H04C/2tgSs4rzS2o1EvOL0rVyy3NKclMLCpKrOSKL0pNzs8rLikqTS7hKmSEqOLKS4HI\nFjJ5M7SGMia1BxUya3gzejO1QhWklFQWpHIVsoQypVl4M3gzAhWwangzhzLa+Pn5ef0HAjDhzVCS\n1BkqYMt1fXGB7Sv7WTNBYKd9SZIeADd4AQGRAAAA\n'
p2351
sg19
g102
sg21
I413
ssg237
F0.01
ssg19
g110
sg21
I410
sssg238
(dp2352
g2
(lp2353
((g4
g5
tI-1
tp2354
a((g7
g5
tI-1
tp2355
a((g67
g68
tI-1
tp2356
a((g70
g71
tI-1
tp2357
a((g73
g74
tI-1
tp2358
a((g246
g247
tI-1
tp2359
a((g249
g250
tI-1
tp2360
a((g252
g253
tI-1
tp2361
a((g255
g256
tI-1
tp2362
asg15
g255
sg16
(dp2363
g18
Nsg19
g42
sg21
I8
ssg19
g22
sg21
I406
sg23
g256
sg18
(dp2364
g18
(dp2365
g261
I1
sg262
S'i'
sg263
I1
sg108
I0
sg103
I0
sg264
I0
sg265
I0
sg93
I0
sg266
I1
sg267
F0.5
sg268
I1
sg269
I1
sg270
I1
sg271
I0
sg272
I1
sg273
I0
sg274
I0
sg275
I0
sg276
I1
ssg19
g110
sg21
I407
sssg277
I00
sg105
I00
sg278
S'RdYlBu'
p2366
sg280
I01
sg281
S''
sg282
I8
sg283
(dp2367
g18
Nsg19
g42
sg21
I397
ssg285
g286
sg287
S''
sg288
I01
sg289
(dp2368
g2
(lp2369
((g4
g5
tI-1
tp2370
a((g7
g5
tI-1
tp2371
a((g67
g68
tI-1
tp2372
a((g70
g71
tI-1
tp2373
a((g73
g74
tI-1
tp2374
a((g193
g194
tI-1
tp2375
a((g298
g299
tI-1
tp2376
a((g301
g302
tI-1
tp2377
asg15
g301
sg16
(dp2378
g18
Nsg19
g42
sg21
I8
ssg19
g22
sg21
I418
sg23
g302
sg18
(dp2379
g18
(dp2380
g87
g307
sg209
I1
sg308
F0.17000000000000001
sg213
I1
sg309
I0
sg310
S'No vectors'
p2381
sg312
S'%-#6.3g'
p2382
sg314
F0.80000000000000004
sg315
F10
sg316
g317
sg224
I1
sg318
I0
sg229
I1
sg230
I1
sg108
I0
sg319
I256
sg320
I1
sg210
I1
sg282
I8
sg93
I0
sg217
(dp2383
g18
S'H4sIANj3H04C/2tgSs4rzS2o1EvOL0rVyy3NKclMLCpKrOSKL0pNzs8rLikqTS7hKmSEqOLKS4HI\nFjJ5M7SGMia1BxUya3gzejO1QhWklFQWpHIVsoQypVl4M3gzAhWwangzhzLa+Pn5ef0HAjDhzVCS\n1BkqMGsmCLy0P/xVI6b/0FH7kiQ9AGpIg++RAAAA\n'
p2384
sg19
g102
sg21
I421
ssg323
I0
sg103
I0
sg234
(dp2385
g18
S'H4sIANj3H04C/2tgSs4rzS2o1EvOL0rVyy3NKclMLCpKrOSKL0pNzs8rLikqTS7hKmSEqOLKS4HI\nFjJ5M7SGMia1BxUya3gzejO1QhWklFQWpHIVsoQypVl4M3gzAhWwangzhzLa+Pn5ef0HAjDhzVCS\n1BkqMGsmCOy0rxZZ5/6wqsW+JEkPAHMFfKeRAAAA\n'
p2386
sg19
g102
sg21
I420
sssg19
g110
sg21
I419
ssssg19
g110
sg21
I393
sssg287
S''
sg326
(dp2387
g2
(lp2388
((g4
g5
tI-1
tp2389
a((g30
g5
tI-1
tp2390
a((g32
g33
tI-1
tp2391
a((g35
g36
tI0
tp2392
a((g56
g57
tI0
tp2393
asg15
g56
sg16
(dp2394
g18
Nsg19
g42
sg21
I1
ssg19
g22
sg21
I448
sg23
g57
sg18
(dp2395
g18
(dp2396
g62
(dp2397
g2
(lp2398
((g4
g5
tI-1
tp2399
a((g7
g5
tI-1
tp2400
a((g67
g68
tI-1
tp2401
a((g70
g71
tI-1
tp2402
a((g73
g74
tI-1
tp2403
a((g76
g77
tI-1
tp2404
asg15
g76
sg16
(dp2405
g18
Nsg19
g42
sg21
I8
ssg19
g22
sg21
I450
sg23
g77
sg18
(dp2406
g18
(dp2407
g83
F1
sg84
g85
sg86
I12
sg87
F0
sg88
F0
sg89
I1
sg90
g91
sg92
I0
sg93
I0
sg94
F1.1000000000000001
sg95
(dp2408
g18
Nsg19
g42
sg21
I11
ssg98
I1
sg99
(dp2409
g18
S'H4sIANj3H04C/2tgSs4rzS2o1EvOL0rVyy3NKclMLCpKrOSKL0pNzs8rLikqTS7hKmSEqOLKS4HI\nFjJ5M7SGMia1BxUya3gzejO1QhWklFQWpHIVsoQyZZp4M3gzAhWwangzhzLa+Pn5ef0HAjDhzVCS\n1BnKwcjAwADiliTpAQCk2G9tiQAAAA==\n'
p2410
sg19
g102
sg21
I452
ssg103
I0
sg104
I1
sg105
I0
sg106
g107
sg108
I0
sg109
I1
ssg19
g110
sg21
I451
sssg111
S''
sg112
S'point_scalars'
p2411
sg114
I01
sg115
(dp2412
g18
S'H4sIANj3H04C/2tgSs4rzS2o1EvOL0rVyy3NKclMLCpKrOSKL0pNzs8rLikqTS7hKmSEqOLKS4HI\nFjJ5M7SGMia1BxUya3gzejO1QhWklFQWpHIVsoQypVl4M3gzAhWwangzhzLa+Pn5ef0HAjDhzVCS\n1BkqwMDAcEAhYpM9kH6QsFjOoSRJDwAML/RykQAAAA==\n'
p2413
sg19
g102
sg21
I453
ssg118
(dp2414
g2
(lp2415
((g4
g5
tI-1
tp2416
a((g7
g5
tI-1
tp2417
a((g67
g68
tI-1
tp2418
a((g70
g71
tI-1
tp2419
a((g73
g74
tI-1
tp2420
a((g126
g127
tI-1
tp2421
a((g129
g130
tI-1
tp2422
asg15
g129
sg16
(dp2423
g18
Nsg19
g42
sg21
I8
ssg19
g22
sg21
I454
sg23
g130
sg18
(dp2424
g18
(dp2425
g135
I2
sg136
g137
sg138
(dp2426
g18
S'H4sIANj3H04C/2tgSs4rzS2o1EvOL0rVyy3NKclMLCpKrOSKL0pNzs8rLikqTS7hKmSEqOLKS4HI\nFjJ5M7SGMia1BxUya3gzejO1QhWklFQWpHIVsoQypVl4M3gzAhWwangzhzLa+Pn5ef0HAjDhzVCS\n1BkqwAAGH+xhdEmSHgBnOGdykQAAAA==\n'
p2427
sg19
g102
sg21
I456
ssg141
(dp2428
g18
S'H4sIANj3H04C/2tgSs4rzS2o1EvOL0rVyy3NKclMLCpKrOSKL0pNzs8rLikqTS7hKmSEqOLKS4HI\nFjJ5M7SGMia1BxUya3gzejO1QhWklFQWpHIVsoQypVl4M3gzAhWwangzhzLa+Pn5ef0HAjDhzVCS\n1BkqwMDAcEAhYpM9kH6QsFjOoSRJDwAML/RykQAAAA==\n'
p2429
sg19
g102
sg21
I458
ssg144
(dp2430
g18
S'H4sIANj3H04C/2tgSs4rzS2o1EvOL0rVyy3NKclMLCpKrOSKL0pNzs8rLikqTS7hKmSEqOLKS4HI\nFjJ5M7SGMia1BxUya3gzejO1QhWklFQWpHIVsoQypVl4M3gzAhWwangzhzLa+Pn5ef0HAjDhzVCS\n1Bkq4H2C3XZ26FN7BigoSdIDAObNAnCRAAAA\n'
p2431
sg19
g102
sg21
I457
ssg147
I256
sg148
g149
sg93
I0
sg150
I256
sg151
(dp2432
g18
S'H4sIANj3H04C/2tgSs4rzS2o1EvOL0rVyy3NKclMLCpKrOSKL0pNzs8rLikqTS7hKmSEqOLKS4HI\nFjJ5M7SGMia1BxUya3gzejO1QhWklFQWpHIVsoQypVl4M3gzAhWwangzhzLa+Pn5ef0HAjDhzVCS\n1BkqwAAGH+xhdEmSHgBnOGdykQAAAA==\n'
p2433
sg19
g102
sg21
I459
ssg154
(dp2434
g18
S'H4sIANj3H04C/2tgSs4rzS2o1EvOL0rVyy3NKclMLCpKrOSKL0pNzs8rLikqTS7hKmSEqOLKS4HI\nFjJ5M7SGMia1BxUya3gzejO1QhWklFQWpHIVsoQypVl4M3gzAhWwangzhzLa+Pn5ef0HAjDhzVCS\n1BkqwMDAcEAhYpM9kH6QsFjOoSRJDwAML/RykQAAAA==\n'
p2435
sg19
g102
sg21
I460
ssg157
I0
sg158
(dp2436
g18
S'H4sIANj3H04C/2tgSs4rzS2o1EvOL0rVyy3NKclMLCpKrOSKL0pNzs8rLikqTS7hKmSEqOLKS4HI\nFjJ5M7SGMia1BxUya3gzejO1QhWklFQWpHIVsoQypVl4M3gzAhWwangzhzLa+Pn5ef0HAjDhzVCS\n1BkqwAAGH+xhdEmSHgBnOGdykQAAAA==\n'
p2437
sg19
g102
sg21
I461
ssg103
I0
sg161
F1
sg162
g163
sg108
I0
ssg19
g110
sg21
I455
sssg164
(dp2438
g2
(lp2439
((g4
g5
tI-1
tp2440
a((g7
g5
tI-1
tp2441
a((g67
g68
tI-1
tp2442
a((g70
g71
tI-1
tp2443
a((g73
g74
tI-1
tp2444
a((g76
g77
tI-1
tp2445
asg15
g76
sg16
(dp2446
g18
Nsg19
g42
sg21
I8
ssg19
g22
sg21
I471
sg23
g77
sg18
(dp2447
g18
(dp2448
g83
F1
sg84
g85
sg86
I12
sg87
F0
sg88
F0
sg89
I1
sg90
g91
sg92
I0
sg93
I0
sg94
F1.1000000000000001
sg95
(dp2449
g18
Nsg19
g42
sg21
I11
ssg98
I1
sg99
(dp2450
g18
S'H4sIANj3H04C/2tgSs4rzS2o1EvOL0rVyy3NKclMLCpKrOSKL0pNzs8rLikqTS7hKmSEqOLKS4HI\nFjJ5M7SGMia1BxUya3gzejO1QhWklFQWpHIVsoQyZZp4M3gzAhWwangzhzLa+Pn5ef0HAjDhzVCS\n1BnKwcjAwADiliTpAQCk2G9tiQAAAA==\n'
p2451
sg19
g102
sg21
I473
ssg103
I0
sg104
I1
sg105
I0
sg106
g107
sg108
I0
sg109
I1
ssg19
g110
sg21
I472
sssg150
I256
sg179
(dp2452
g18
S'H4sIANj3H04C/2tgSs4rzS2o1EvOL0rVyy3NKclMLCpKrOSKL0pNzs8rLikqTS7hKmSEqOLKS4HI\nFjJ5M7SGMia1BxUya3gzejO1QhWklFQWpHIVsoQypVl4M3gzAhWwangzhzLa+Pn5ef0HAjDhzVCS\n1BkqwIACPtiXJOkBAIHIRA6RAAAA\n'
p2453
sg19
g102
sg21
I464
ssg182
Nsg183
I00
sg184
S''
sg185
(dp2454
g2
(lp2455
((g4
g5
tI-1
tp2456
a((g7
g5
tI-1
tp2457
a((g67
g68
tI-1
tp2458
a((g70
g71
tI-1
tp2459
a((g73
g74
tI-1
tp2460
a((g193
g194
tI-1
tp2461
a((g196
g197
tI-1
tp2462
a((g199
g200
tI-1
tp2463
a((g202
g203
tI-1
tp2464
asg15
g202
sg16
(dp2465
g18
Nsg19
g42
sg21
I8
ssg19
g22
sg21
I465
sg23
g203
sg18
(dp2466
g18
(dp2467
g87
I1
sg208
I0
sg209
I1
sg210
I1
sg211
g212
sg213
I1
sg214
I2
sg215
I0
sg216
I0
sg217
(dp2468
g18
S'H4sIANj3H04C/2tgSs4rzS2o1EvOL0rVyy3NKclMLCpKrOSKL0pNzs8rLikqTS7hKmSEqOLKS4HI\nFjJ5M7SGMia1BxUya3gzejO1QhWklFQWpHIVsoQypVl4M3gzAhWwangzhzLa+Pn5ef0HAjDhzVCS\n1BkqcPirRkz/oaP2s2aCwEv7kiQ9AC+e0nyRAAAA\n'
p2469
sg19
g102
sg21
I468
ssg220
I0
sg221
(dp2470
g18
S'H4sIANj3H04C/2tgSs4rzS2o1EvOL0rVyy3NKclMLCpKrOSKL0pNzs8rLikqTS7hKmSEqOLKS4HI\nFjJ5M7SGMia1BxUya3gzejO1QhWklFQWpHIVsoQyZZp4M3gzAhWwangzhzLa+Pn5ef0HAjDhzVCS\n1BnKsaCNkQGES5L0ALP9TXGJAAAA\n'
p2471
sg19
g102
sg21
I470
ssg224
I1
sg225
I3
sg226
(dp2472
g18
S'H4sIANj3H04C/2tgSs4rzS2o1EvOL0rVyy3NKclMLCpKrOSKL0pNzs8rLikqTS7hKmSEqOLKS4HI\nFjJ5M7SGMia1BxUya3gzejO1QhWklFQWpHIVsoQyZZp4M3gzAhWwangzhzLa+Pn5ef0HAjDhzVCS\n1BnKwcjAwADCJUl6AJHzi6mJAAAA\n'
p2473
sg19
g102
sg21
I467
ssg229
I1
sg230
I1
sg108
I0
sg231
I0
sg232
F0.5
sg233
I0
sg93
I0
sg103
I0
sg234
(dp2474
g18
S'H4sIANj3H04C/2tgSs4rzS2o1EvOL0rVyy3NKclMLCpKrOSKL0pNzs8rLikqTS7hKmSEqOLKS4HI\nFjJ5M7SGMia1BxUya3gzejO1QhWklFQWpHIVsoQypVl4M3gzAhWwangzhzLa+Pn5ef0HAjDhzVCS\n1BkqYMt1fXGB7Sv7WTNBYKd9SZIeADd4AQGRAAAA\n'
p2475
sg19
g102
sg21
I469
ssg237
F0.01
ssg19
g110
sg21
I466
sssg238
(dp2476
g2
(lp2477
((g4
g5
tI-1
tp2478
a((g7
g5
tI-1
tp2479
a((g67
g68
tI-1
tp2480
a((g70
g71
tI-1
tp2481
a((g73
g74
tI-1
tp2482
a((g246
g247
tI-1
tp2483
a((g249
g250
tI-1
tp2484
a((g252
g253
tI-1
tp2485
a((g255
g256
tI-1
tp2486
asg15
g255
sg16
(dp2487
g18
Nsg19
g42
sg21
I8
ssg19
g22
sg21
I462
sg23
g256
sg18
(dp2488
g18
(dp2489
g261
I1
sg262
S'i'
sg263
I1
sg108
I0
sg103
I0
sg264
I0
sg265
I0
sg93
I0
sg266
I1
sg267
F0.5
sg268
I1
sg269
I1
sg270
I1
sg271
I0
sg272
I1
sg273
I0
sg274
I0
sg275
I0
sg276
I1
ssg19
g110
sg21
I463
sssg277
I00
sg105
I00
sg278
g430
sg280
I01
sg281
S''
sg282
I8
sg283
(dp2490
g18
Nsg19
g42
sg21
I453
ssg285
S'point_scalars'
p2491
sg287
S''
sg288
I01
sg289
(dp2492
g2
(lp2493
((g4
g5
tI-1
tp2494
a((g7
g5
tI-1
tp2495
a((g67
g68
tI-1
tp2496
a((g70
g71
tI-1
tp2497
a((g73
g74
tI-1
tp2498
a((g193
g194
tI-1
tp2499
a((g298
g299
tI-1
tp2500
a((g301
g302
tI-1
tp2501
asg15
g301
sg16
(dp2502
g18
Nsg19
g42
sg21
I8
ssg19
g22
sg21
I474
sg23
g302
sg18
(dp2503
g18
(dp2504
g87
g307
sg209
I1
sg308
F0.17000000000000001
sg213
I1
sg309
I0
sg310
S'point_scalars'
p2505
sg312
S'%-#6.3g'
p2506
sg314
F0.80000000000000004
sg315
F10
sg316
g317
sg224
I1
sg318
I0
sg229
I1
sg230
I1
sg108
I0
sg319
I256
sg320
I1
sg210
I1
sg282
I8
sg93
I0
sg217
(dp2507
g18
S'H4sIANj3H04C/2tgSs4rzS2o1EvOL0rVyy3NKclMLCpKrOSKL0pNzs8rLikqTS7hKmSEqOLKS4HI\nFjJ5M7SGMia1BxUya3gzejO1QhWklFQWpHIVsoQypVl4M3gzAhWwangzhzLa+Pn5ef0HAjDhzVCS\n1BkqMGsmCLy0P/xVI6b/0FH7kiQ9AGpIg++RAAAA\n'
p2508
sg19
g102
sg21
I477
ssg323
I0
sg103
I0
sg234
(dp2509
g18
S'H4sIANj3H04C/2tgSs4rzS2o1EvOL0rVyy3NKclMLCpKrOSKL0pNzs8rLikqTS7hKmSEqOLKS4HI\nFjJ5M7SGMia1BxUya3gzejO1QhWklFQWpHIVsoQypVl4M3gzAhWwangzhzLa+Pn5ef0HAjDhzVCS\n1BkqMGsmCOy0rxZZ5/6wqsW+JEkPAHMFfKeRAAAA\n'
p2510
sg19
g102
sg21
I476
sssg19
g110
sg21
I475
ssssg19
g110
sg21
I449
sssg184
g452
sg453
(dp2511
g18
(lp2512
(dp2513
g2
(lp2514
((g4
g5
tI-1
tp2515
a((g30
g5
tI-1
tp2516
a((g32
g33
tI-1
tp2517
a((g35
g36
tI0
tp2518
a((g462
g463
tI0
tp2519
a((g465
g466
tI0
tp2520
a((g468
g469
tI0
tp2521
asg15
g468
sg16
(dp2522
g18
Nsg19
g42
sg21
I1
ssg19
g22
sg21
I423
sg23
g469
sg18
(dp2523
g18
(dp2524
g474
I00
sg475
(dp2525
g18
(lp2526
sg19
g478
sg21
I425
ssg45
g479
sg480
(dp2527
g18
Nsg19
g42
sg21
I40
ssg500
(dp2528
g2
(lp2529
((g4
g5
tI-1
tp2530
a((g30
g5
tI-1
tp2531
a((g32
g33
tI-1
tp2532
a((g35
g36
tI0
tp2533
a((g462
g463
tI0
tp2534
a((g508
g509
tI0
tp2535
a((g511
g512
tI0
tp2536
asg15
g511
sg16
(dp2537
g18
Nsg19
g42
sg21
I1
ssg19
g22
sg21
I434
sg23
g512
sg18
(dp2538
g18
(dp2539
g517
(dp2540
g2
(lp2541
((g4
g5
tI-1
tp2542
a((g7
g5
tI-1
tp2543
a((g67
g68
tI-1
tp2544
a((g70
g71
tI-1
tp2545
a((g73
g74
tI-1
tp2546
a((g525
g526
tI-1
tp2547
a((g528
g529
tI-1
tp2548
a((g531
g532
tI-1
tp2549
a((g534
g535
tI-1
tp2550
a((g537
g538
tI-1
tp2551
asg15
g537
sg16
(dp2552
g18
Nsg19
g42
sg21
I8
ssg19
g22
sg21
I443
sg23
g538
sg18
(dp2553
g18
(dp2554
g543
I0
sg544
I0
sg545
g546
sg547
I0
sg548
I0
sg549
F0.01
sg550
g546
sg551
I0
sg103
I0
sg552
I0
sg553
I1
sg554
I0
sg555
I0
sg556
F1
sg557
(dp2555
g18
S'H4sIANj3H04C/2tgSs4rzS2o1EvOL0rVyy3NKclMLCpKrOSKL0pNzs8rLikqTS7hKmSEqOLKS4HI\nFjJ5M7SGMia1BxUya3gzejO1QhWklFQWpHIVsoQypVl4M3gzAhWwangzhzLa+Pn5ef0HAjDhzVCS\n1BkqwIACPtiXJOkBAIHIRA6RAAAA\n'
p2556
sg19
g102
sg21
I445
ssg560
Nsg561
I1
sg108
I0
sg562
I0
sg563
I0
sg564
I1
sg565
I0
sg566
I1
sg93
I0
sg567
I0
sg568
g546
sg569
I0
sg570
F0
sg571
I0
sg572
g573
sg574
I1
ssg19
g110
sg21
I444
sssg475
(dp2557
g18
(lp2558
sg19
g478
sg21
I436
ssg281
S''
sg480
Nsg500
(dp2559
g2
(lp2560
((g4
g5
tI-1
tp2561
a((g7
g5
tI-1
tp2562
a((g67
g68
tI-1
tp2563
a((g70
g71
tI-1
tp2564
a((g73
g74
tI-1
tp2565
a((g193
g194
tI-1
tp2566
a((g585
g586
tI-1
tp2567
a((g511
g588
tI-1
tp2568
asg15
g511
sg16
(dp2569
g18
Nsg19
g42
sg21
I8
ssg19
g22
sg21
I437
sg23
g588
sg18
(dp2570
g18
(dp2571
g593
(dp2572
g18
S'H4sIANj3H04C/2tgSs4rzS2o1EvOL0rVyy3NKclMLCpKrOSKL0pNzs8rLikqTS7hKmSEqOLKS4HI\nFjJ5M7SGMia1BxUya3gzejO3QhWklFQWpHIVsoQypVl4M3gzAhWwangzhzLa+Pn5ef0HAjDhzVCS\n1BkqwYADlCTpAQD67GqfmQAAAA==\n'
p2573
sg19
g102
sg21
I439
ssg136
(dp2574
g18
S'H4sIANj3H04C/2tgSs4rzS2o1EvOL0rVyy3NKclMLCpKrOSKL0pNzs8rLikqTS7hKmSEqOLKS4HI\nFjJ5M7SGMia1BxUya3gzejO3QhWklFQWpHIVsoQypVl4M3gzAhWwangzhzLa+Pn5ef0HAjDhzVCS\n1BkqwQAGH+zR6ZIkPQDfyO6fmQAAAA==\n'
p2575
sg19
g102
sg21
I441
ssg87
(dp2576
g18
S'H4sIANj3H04C/2tgSs4rzS2o1EvOL0rVyy3NKclMLCpKrOSKL0pNzs8rLikqTS7hKmSEqOLKS4HI\nFjJ5M7SGMia1BxUya3gzejO3QhWklFQWpHIVsoQypVl4M3gzAhWwangzhzLa+Pn5ef0HAjDhzVCS\n1BkqwYAKGmCMkiQ9ABqDrf+ZAAAA\n'
p2577
sg19
g102
sg21
I440
ssg103
I0
sg209
I1
sg229
I1
sg210
I1
sg230
I1
sg108
I0
sg93
I0
sg213
I1
sg234
(dp2578
g18
S'H4sIANj3H04C/2tgSs4rzS2o1EvOL0rVyy3NKclMLCpKrOSKL0pNzs8rLikqTS7hKmSEqOLKS4HI\nFjJ5M7SGMia1BxUya3gzejO3QhWklFQWpHIVsoQypVl4M3gzAhWwangzhzLa+Pn5ef0HAjDhzVCS\n1BkqwYADlCTpAQD67GqfmQAAAA==\n'
p2579
sg19
g102
sg21
I442
ssg224
I1
ssg19
g110
sg21
I438
sssg602
I01
sg287
S''
sg603
Nsg182
Nsg604
(dp2580
g2
(lp2581
((g4
g5
tI-1
tp2582
a((g7
g5
tI-1
tp2583
a((g67
g68
tI-1
tp2584
a((g70
g71
tI-1
tp2585
a((g73
g74
tI-1
tp2586
a((g612
g613
tI-1
tp2587
a((g615
g616
tI-1
tp2588
asg15
g615
sg16
(dp2589
g18
Nsg19
g42
sg21
I8
ssg19
g22
sg21
I446
sg23
g616
sg18
(dp2590
g18
(dp2591
g621
(dp2592
g18
Nsg19
g42
sg21
I11
ssg623
I0
sg624
F1
sg629
(dp2593
g18
Nsg19
g42
sg21
I69
ssg627
F0
sg628
I0
sg632
g633
sg83
F1
sg634
I0
sg635
F1
sg625
(dp2594
g18
Nsg19
g42
sg21
I11
ssg637
(dp2595
g18
Nsg19
g42
sg21
I11
ssg639
I0
sg108
I0
sg640
I0
sg641
I0
sg642
F1
sg643
I0
sg93
I0
sg644
F0
sg645
I0
sg647
I65535
sg103
I0
sg648
g649
sg650
I1
sg651
F2
ssg19
g110
sg21
I447
sssg184
S''
ssg19
g110
sg21
I435
sssg602
I01
sg287
S''
sg603
(dp2596
g18
Nsg19
g42
sg21
I70
ssg182
Nsg184
g666
sg667
(dp2597
g2
(lp2598
((g4
g5
tI-1
tp2599
a((g30
g5
tI-1
tp2600
a((g32
g33
tI-1
tp2601
a((g35
g36
tI0
tp2602
a((g462
g463
tI0
tp2603
a((g508
g509
tI0
tp2604
a((g676
g677
tI0
tp2605
asg15
g676
sg16
(dp2606
g18
Nsg19
g42
sg21
I1
ssg19
g22
sg21
I426
sg23
g677
sg18
(dp2607
g18
(dp2608
g475
(dp2609
g18
(lp2610
sg19
g478
sg21
I428
ssg281
S''
sg684
I01
sg603
Nsg685
(dp2611
g18
Nsg19
g42
sg21
I49
ssg688
I00
sg602
I01
sg287
S''
sg689
(dp2612
g2
(lp2613
((g4
g5
tI-1
tp2614
a((g7
g5
tI-1
tp2615
a((g67
g68
tI-1
tp2616
a((g70
g71
tI-1
tp2617
a((g73
g74
tI-1
tp2618
a((g525
g526
tI-1
tp2619
a((g698
g699
tI-1
tp2620
a((g701
g702
tI-1
tp2621
asg15
g701
sg16
(dp2622
g18
Nsg19
g42
sg21
I8
ssg19
g22
sg21
I429
sg23
g702
sg18
(dp2623
g18
(dp2624
g707
I0
sg108
I0
sg708
I0
sg560
Nsg709
I0
sg565
I0
sg710
I1
sg711
I1
sg712
I1
sg713
I0
sg714
I0
sg554
I0
sg93
I0
sg555
I0
sg715
I1
sg569
I0
sg556
F1
sg716
I10
sg103
I0
ssg19
g110
sg21
I430
sssS'_traits_cache_minimum_contour'
p2625
F0.071657225489616394
sg718
(dp2626
g18
(lp2627
F1
asg19
g478
sg21
I431
ssS'_fill_cont_filt'
p2628
(dp2629
g2
(lp2630
((g4
g5
tI-1
tp2631
a((g7
g5
tI-1
tp2632
a((g67
g68
tI-1
tp2633
a((g70
g71
tI-1
tp2634
a((g73
g74
tI-1
tp2635
a((g525
g526
tI-1
tp2636
a((g698
g699
tI-1
tp2637
a((g731
g732
tI-1
tp2638
asg15
g731
sg16
(dp2639
g18
Nsg19
g42
sg21
I8
ssg19
g22
sg21
I432
sg23
g732
sg18
(dp2640
g18
(dp2641
g93
I0
sg737
I1
sg565
I0
sg738
I1
sg545
g739
sg740
I0
sg560
Nsg103
I0
sg108
I0
sg554
I0
sg562
I1
sg555
I0
sg569
I0
sg556
F1
sg716
I10
sg741
I0
ssg19
g110
sg21
I433
sssg480
Nsg742
I01
sg743
I01
sg182
Nsg716
I10
sg184
S''
sS'_traits_cache_maximum_contour'
p2642
F7.6595492362976074
ssg19
g110
sg21
I427
sssg745
g746
ssg19
g110
sg21
I424
ssasg19
g478
sg21
I422
ssg745
g747
ssg19
g110
sg21
I391
ssa(dp2643
g2
(lp2644
((g4
g5
tI-1
tp2645
a((g30
g5
tI-1
tp2646
a((g32
g33
tI-1
tp2647
a((g35
g36
tI0
tp2648
a((g462
g463
tI0
tp2649
a((g1930
g1931
tI0
tp2650
a((S'Filter'
p2651
S'enthought.mayavi.core.filter'
p2652
tI0
tp2653
a((S'TransformData'
p2654
S'enthought.mayavi.filters.transform_data'
p2655
tI0
tp2656
asg15
g2654
sg16
(dp2657
g18
Nsg19
g42
sg21
I1
ssg19
g22
sg21
I478
sg23
g2655
sg18
(dp2658
g18
(dp2659
S'update_mode'
p2660
S'semi-interactive'
p2661
sS'widget'
p2662
(dp2663
g2
(lp2664
((g4
g5
tI-1
tp2665
a((g7
g5
tI-1
tp2666
a((g67
g68
tI-1
tp2667
a((g70
g71
tI-1
tp2668
a((g73
g74
tI-1
tp2669
a((g246
g247
tI-1
tp2670
a((S'ThreeDWidget'
p2671
S'tvtk_classes.three_d_widget'
p2672
tI-1
tp2673
a((S'BoxWidget'
p2674
S'tvtk_classes.box_widget'
p2675
tI-1
tp2676
asg15
g2674
sg16
(dp2677
g18
Nsg19
g42
sg21
I8
ssg19
g22
sg21
I480
sg23
g2675
sg18
(dp2678
g18
(dp2679
S'translation_enabled'
p2680
I0
sg237
F0.01
sS'inside_out'
p2681
I0
sS'outline_face_wires_'
p2682
I0
sS'scaling_enabled_'
p2683
I0
sS'outline_face_wires'
p2684
I0
sg275
I0
sS'rotation_enabled'
p2685
I0
sS'outline_cursor_wires'
p2686
I1
sg267
F0.5
sS'scaling_enabled'
p2687
I0
sg262
S'i'
sS'translation_enabled_'
p2688
I0
sg108
I0
sg265
I0
sg271
I0
sg232
F1.1000000000000001
sS'rotation_enabled_'
p2689
I0
sS'inside_out_'
p2690
I0
sg264
I0
sg93
I0
sg103
I0
sS'outline_cursor_wires_'
p2691
I1
ssg19
g110
sg21
I481
sssS'matrix'
p2692
S"centhought.traits.traits\n__newobj__\np1\n(ctvtk_classes.matrix4x4\nMatrix4x4\np2\ntRp3\n(dp4\nS'global_warning_display_'\np5\nI0\nsS'elements'\np6\n(lp7\nF1\naF0\naF0\naF0\naF0\naF1\naF0\naF0\naF0\naF0\naF0.99999999999999989\naF4.2912721986976265e-16\naF0\naF0\naF0\naF1\nasS'debug'\np8\nI0\nsS'debug_'\np9\nI0\nsb."
p2693
sg2236
(dp2694
g2
(lp2695
((g4
g5
tI-1
tp2696
a((g484
g485
tI-1
tp2697
asg15
g484
sg16
(dp2698
g18
Nsg19
g42
sg21
I1
ssg19
g22
sg21
I487
sg23
g485
sg18
(dp2699
g18
(dp2700
g490
(dp2701
g18
(lp2702
g661
asg19
g478
sg21
I489
ssg493
(dp2703
g18
(lp2704
g2248
asg19
g478
sg21
I490
ssg497
(dp2705
g18
(lp2706
g661
asg19
g478
sg21
I491
sssg19
g110
sg21
I488
sssS'_transform'
p2707
(dp2708
g2
(lp2709
((g4
g5
tI-1
tp2710
a((g7
g5
tI-1
tp2711
a((g67
g68
tI-1
tp2712
a((g70
g71
tI-1
tp2713
a((g73
g74
tI-1
tp2714
a((S'AbstractTransform'
p2715
S'tvtk_classes.abstract_transform'
p2716
tI-1
tp2717
a((S'HomogeneousTransform'
p2718
S'tvtk_classes.homogeneous_transform'
p2719
tI-1
tp2720
a((S'LinearTransform'
p2721
S'tvtk_classes.linear_transform'
p2722
tI-1
tp2723
a((S'Transform'
p2724
S'tvtk_classes.transform'
p2725
tI-1
tp2726
asg15
g2724
sg16
(dp2727
g18
Nsg19
g42
sg21
I8
ssg19
g22
sg21
I483
sg23
g2725
sg18
(dp2728
g18
(dp2729
g103
I0
sg108
I0
sg93
I0
ssg19
g110
sg21
I484
sssg287
S''
sg45
S'TransformData'
p2730
sS'filter'
p2731
(dp2732
g2
(lp2733
((g4
g5
tI-1
tp2734
a((g7
g5
tI-1
tp2735
a((g67
g68
tI-1
tp2736
a((g70
g71
tI-1
tp2737
a((g73
g74
tI-1
tp2738
a((g525
g526
tI-1
tp2739
a((S'PointSetAlgorithm'
p2740
S'tvtk_classes.point_set_algorithm'
p2741
tI-1
tp2742
a((S'TransformFilter'
p2743
S'tvtk_classes.transform_filter'
p2744
tI-1
tp2745
asg15
g2743
sg16
(dp2746
g18
Nsg19
g42
sg21
I8
ssg19
g22
sg21
I485
sg23
g2744
sg18
(dp2747
g18
(dp2748
g565
I0
sg560
Nsg569
I0
sg93
I0
sg108
I0
sg554
I0
sg555
I0
sg103
I0
sg556
F1
ssg19
g110
sg21
I486
sssg602
I01
sS'update_mode_'
p2749
S'EndInteractionEvent'
p2750
sg182
Nsg19
S' filter'
p2751
sg453
(dp2752
g18
(lp2753
(dp2754
g18
Nsg19
g42
sg21
I3
sasg19
g478
sg21
I482
ssg745
S'filter.ico'
p2755
ssg19
g110
sg21
I479
ssa(dp2756
g2
(lp2757
((g4
g5
tI-1
tp2758
a((g30
g5
tI-1
tp2759
a((g32
g33
tI-1
tp2760
a((g35
g36
tI0
tp2761
a((g462
g463
tI0
tp2762
a((g1930
g1931
tI0
tp2763
a((g2651
g2652
tI0
tp2764
a((S'Collection'
p2765
S'enthought.mayavi.filters.collection'
p2766
tI0
tp2767
a((S'CutPlane'
p2768
S'enthought.mayavi.filters.cut_plane'
p2769
tI0
tp2770
asg15
g2768
sg16
(dp2771
g18
Nsg19
g42
sg21
I1
ssg19
g22
sg21
I492
sg23
g2769
sg18
(dp2772
g18
(dp2773
g45
S'CutPlane'
p2774
sS'_pipeline_ready'
p2775
I01
sg2236
(dp2776
g2
(lp2777
((g4
g5
tI-1
tp2778
a((g484
g485
tI-1
tp2779
asg15
g484
sg16
(dp2780
g18
Nsg19
g42
sg21
I1
ssg19
g22
sg21
I606
sg23
g485
sg18
(dp2781
g18
(dp2782
g490
(dp2783
g18
(lp2784
g661
asg19
g478
sg21
I608
ssg493
(dp2785
g18
(lp2786
g2248
asg19
g478
sg21
I609
ssg497
(dp2787
g18
(lp2788
g661
asg19
g478
sg21
I610
sssg19
g110
sg21
I607
sssg602
I01
sg287
S''
sS'filters'
p2789
(dp2790
g18
(lp2791
(dp2792
g2
(lp2793
((g4
g5
tI-1
tp2794
a((g30
g5
tI-1
tp2795
a((g32
g33
tI-1
tp2796
a((g35
g36
tI0
tp2797
a((g462
g463
tI0
tp2798
a((g508
g509
tI0
tp2799
a((S'ImplicitPlane'
p2800
S'enthought.mayavi.components.implicit_plane'
p2801
tI0
tp2802
asg15
g2800
sg16
(dp2803
g18
Nsg19
g42
sg21
I1
ssg19
g22
sg21
I495
sg23
g2801
sg18
(dp2804
g18
(dp2805
g2662
(dp2806
g2
(lp2807
((g4
g5
tI-1
tp2808
a((g7
g5
tI-1
tp2809
a((g67
g68
tI-1
tp2810
a((g70
g71
tI-1
tp2811
a((g73
g74
tI-1
tp2812
a((g246
g247
tI-1
tp2813
a((g2671
g2672
tI-1
tp2814
a((S'PolyDataSourceWidget'
p2815
S'tvtk_classes.poly_data_source_widget'
p2816
tI-1
tp2817
a((S'ImplicitPlaneWidget'
p2818
S'tvtk_classes.implicit_plane_widget'
p2819
tI-1
tp2820
asg15
g2818
sg16
(dp2821
g18
Nsg19
g42
sg21
I8
ssg19
g22
sg21
I497
sg23
g2819
sg18
(dp2822
g18
(dp2823
g593
(dp2824
g18
S'H4sIANj3H04C/2tgSs4rzS2o1EvOL0rVyy3NKclMLCpKrOSKL0pNzs8rLikqTS7hKmSEqOLKS4HI\nFjJ5M7SGMia1BxUya3gzejO3QhWklFQWpHIVsoQypVl4M3gzAhWwangzhzLa+Pn5ef0HAjDhzVCS\n1BkqwQAFLGBSxQFIJB98w+dQkqQHAEl5CkSZAAAA\n'
p2825
sg19
g102
sg21
I499
ssg237
F0.01
sS'normal_to_z_axis_'
p2826
I1
sS'draw_plane'
p2827
I0
sS'draw_plane_'
p2828
I0
sg275
I0
sS'diagonal_ratio'
p2829
F0.29999999999999999
sS'origin_translation'
p2830
I1
sS'scale_enabled'
p2831
I1
sS'outline_translation'
p2832
I0
sg267
F0.5
sS'normal_to_y_axis'
p2833
I0
sS'scale_enabled_'
p2834
I1
sg262
S'i'
sS'normal'
p2835
(dp2836
g18
S'H4sIANj3H04C/2tgSs4rzS2o1EvOL0rVyy3NKclMLCpKrOSKL0pNzs8rLikqTS7hKmSEqOLKS4HI\nFjJ5M7SGMia1BxUya3gzejO3QhWklFQWpHIVsoQypVl4M3gzAhWwangzhzLa+Pn5ef0HAjDhzVCS\n1BkqwYAVfLAvSdIDAFBUFn+ZAAAA\n'
p2837
sg19
g102
sg21
I500
ssS'normal_to_x_axis'
p2838
I0
sS'normal_to_z_axis'
p2839
I1
sg108
I0
sg265
I0
sS'normal_to_x_axis_'
p2840
I0
sg271
I0
sg232
F1.2
sS'tubing_'
p2841
I0
sS'origin_translation_'
p2842
I1
sS'outside_bounds'
p2843
I1
sS'outside_bounds_'
p2844
I1
sg264
I0
sg93
I0
sS'outline_translation_'
p2845
I0
sS'normal_to_y_axis_'
p2846
I0
sg103
I0
sS'tubing'
p2847
I0
ssg19
g110
sg21
I498
sssg45
S'ImplicitPlane'
p2848
sg602
I01
sg287
S''
sS'plane'
p2849
(dp2850
g2
(lp2851
((g4
g5
tI-1
tp2852
a((g7
g5
tI-1
tp2853
a((g67
g68
tI-1
tp2854
a((g70
g71
tI-1
tp2855
a((g73
g74
tI-1
tp2856
a((S'ImplicitFunction'
p2857
S'tvtk_classes.implicit_function'
p2858
tI-1
tp2859
a((S'Plane'
p2860
S'tvtk_classes.plane'
p2861
tI-1
tp2862
asg15
g2860
sg16
(dp2863
g18
Nsg19
g42
sg21
I8
ssg19
g22
sg21
I501
sg23
g2861
sg18
(dp2864
g18
(dp2865
g593
(dp2866
g18
S'H4sIANj3H04C/2tgSs4rzS2o1EvOL0rVyy3NKclMLCpKrOSKL0pNzs8rLikqTS7hKmSEqOLKS4HI\nFjJ5M7SGMia1BxUya3gzejO3QhWklFQWpHIVsoQypVl4M3gzAhWwangzhzLa+Pn5ef0HAjDhzVCS\n1BkqwQAFLGBSxQFIJB98w+dQkqQHAEl5CkSZAAAA\n'
p2867
sg19
g102
sg21
I503
ssg108
I0
sg103
I0
sg93
I0
sg2835
(dp2868
g18
S'H4sIANj3H04C/2tgSs4rzS2o1EvOL0rVyy3NKclMLCpKrOSKL0pNzs8rLikqTS7hKmSEqOLKS4HI\nFjJ5M7SGMia1BxUya3gzejO3QhWklFQWpHIVsoQypVl4M3gzAhWwangzhzLa+Pn5ef0HAjDhzVCS\n1BkqwYAVfLAvSdIDAFBUFn+ZAAAA\n'
p2869
sg19
g102
sg21
I504
sssg19
g110
sg21
I502
sssS'_busy'
p2870
I00
sS'_first'
p2871
I00
ssg19
g110
sg21
I496
ssa(dp2872
g2
(lp2873
((g4
g5
tI-1
tp2874
a((g30
g5
tI-1
tp2875
a((g32
g33
tI-1
tp2876
a((g35
g36
tI0
tp2877
a((g462
g463
tI0
tp2878
a((g508
g509
tI0
tp2879
a((S'Cutter'
p2880
S'enthought.mayavi.components.cutter'
p2881
tI0
tp2882
asg15
g2880
sg16
(dp2883
g18
Nsg19
g42
sg21
I1
ssg19
g22
sg21
I505
sg23
g2881
sg18
(dp2884
g18
(dp2885
g602
I01
sg287
S''
sg45
S'Cutter'
p2886
sS'cutter'
p2887
(dp2888
g2
(lp2889
((g4
g5
tI-1
tp2890
a((g7
g5
tI-1
tp2891
a((g67
g68
tI-1
tp2892
a((g70
g71
tI-1
tp2893
a((g73
g74
tI-1
tp2894
a((g525
g526
tI-1
tp2895
a((g698
g699
tI-1
tp2896
a((g2880
S'tvtk_classes.cutter'
p2897
tI-1
tp2898
asg15
g2880
sg16
(dp2899
g18
Nsg19
g42
sg21
I8
ssg19
g22
sg21
I507
sg23
g2897
sg18
(dp2900
g18
(dp2901
S'generate_cut_scalars_'
p2902
I0
sg103
I0
sg565
I0
sg560
Nsg93
I0
sS'sort_by_'
p2903
I0
sg108
I0
sS'generate_cut_scalars'
p2904
I0
sS'sort_by'
p2905
S'sort_by_value'
p2906
sg555
I0
sg569
I0
sg556
F1
sg716
I3
sg554
I0
ssg19
g110
sg21
I508
ssssg19
g110
sg21
I506
ssasg19
g478
sg21
I494
ssg182
Nsg19
g2751
sg453
(dp2907
g18
(lp2908
(dp2909
g2
(lp2910
((g4
g5
tI-1
tp2911
a((g30
g5
tI-1
tp2912
a((g32
g33
tI-1
tp2913
a((g35
g36
tI0
tp2914
a((g38
g39
tI0
tp2915
asg15
g38
sg16
(dp2916
g18
Nsg19
g42
sg21
I1
ssg19
g22
sg21
I510
sg23
g39
sg18
(dp2917
g18
(dp2918
g45
g46
sg47
g48
sg49
(dp2919
g2
(lp2920
((g4
g5
tI-1
tp2921
a((g30
g5
tI-1
tp2922
a((g32
g33
tI-1
tp2923
a((g35
g36
tI0
tp2924
a((g56
g57
tI0
tp2925
asg15
g56
sg16
(dp2926
g18
Nsg19
g42
sg21
I1
ssg19
g22
sg21
I512
sg23
g57
sg18
(dp2927
g18
(dp2928
g62
(dp2929
g2
(lp2930
((g4
g5
tI-1
tp2931
a((g7
g5
tI-1
tp2932
a((g67
g68
tI-1
tp2933
a((g70
g71
tI-1
tp2934
a((g73
g74
tI-1
tp2935
a((g76
g77
tI-1
tp2936
asg15
g76
sg16
(dp2937
g18
Nsg19
g42
sg21
I8
ssg19
g22
sg21
I514
sg23
g77
sg18
(dp2938
g18
(dp2939
g83
F1
sg84
g85
sg86
I12
sg87
F0
sg88
F0
sg89
I1
sg90
g91
sg92
I0
sg93
I0
sg94
F1.1000000000000001
sg95
(dp2940
g18
Nsg19
g42
sg21
I11
ssg98
I1
sg99
(dp2941
g18
S'H4sIANj3H04C/2tgSs4rzS2o1EvOL0rVyy3NKclMLCpKrOSKL0pNzs8rLikqTS7hKmSEqOLKS4HI\nFjJ5M7SGMia1BxUya3gzejO1QhWklFQWpHIVsoQyZZp4M3gzAhWwangzhzLa+Pn5ef0HAjDhzVCS\n1BnKwcjAwADiliTpAQCk2G9tiQAAAA==\n'
p2942
sg19
g102
sg21
I516
ssg103
I0
sg104
I1
sg105
I0
sg106
g107
sg108
I0
sg109
I1
ssg19
g110
sg21
I515
sssS'file_name'
p2943
S''
sg112
g113
sg602
I01
sg115
(dp2944
g18
S'H4sIANj3H04C/2tgSs4rzS2o1EvOL0rVyy3NKclMLCpKrOSKL0pNzs8rLikqTS7hKmSEqOLKS4HI\nFjJ5M7SGMia1BxUya3gzejO1QhWklFQWpHIVsoQypVl4M3gzAhWwangzhzLa+Pn5ef0HAjDhzVCS\n1BkqwIACPtiXJOkBAIHIRA6RAAAA\n'
p2945
sg19
g102
sg21
I517
ssg118
(dp2946
g2
(lp2947
((g4
g5
tI-1
tp2948
a((g7
g5
tI-1
tp2949
a((g67
g68
tI-1
tp2950
a((g70
g71
tI-1
tp2951
a((g73
g74
tI-1
tp2952
a((g126
g127
tI-1
tp2953
a((g129
g130
tI-1
tp2954
asg15
g129
sg16
(dp2955
g18
Nsg19
g42
sg21
I8
ssg19
g22
sg21
I518
sg23
g130
sg18
(dp2956
g18
(dp2957
g135
I2
sg136
g137
sg138
(dp2958
g18
S'H4sIANj3H04C/2tgSs4rzS2o1EvOL0rVyy3NKclMLCpKrOSKL0pNzs8rLikqTS7hKmSEqOLKS4HI\nFjJ5M7SGMia1BxUya3gzejO1QhWklFQWpHIVsoQypVl4M3gzAhWwangzhzLa+Pn5ef0HAjDhzVCS\n1BkqwAAGH+xhdEmSHgBnOGdykQAAAA==\n'
p2959
sg19
g102
sg21
I520
ssg141
(dp2960
g18
S'H4sIANj3H04C/2tgSs4rzS2o1EvOL0rVyy3NKclMLCpKrOSKL0pNzs8rLikqTS7hKmSEqOLKS4HI\nFjJ5M7SGMia1BxUya3gzejO1QhWklFQWpHIVsoQypVl4M3gzAhWwangzhzLa+Pn5ef0HAjDhzVCS\n1BkqwIACPtiXJOkBAIHIRA6RAAAA\n'
p2961
sg19
g102
sg21
I522
ssg144
(dp2962
g18
S'H4sIANj3H04C/2tgSs4rzS2o1EvOL0rVyy3NKclMLCpKrOSKL0pNzs8rLikqTS7hKmSEqOLKS4HI\nFjJ5M7SGMia1BxUya3gzejO1QhWklFQWpHIVsoQypVl4M3gzAhWwangzhzLa+Pn5ef0HAjDhzVCS\n1Bkq4H2C3XZ26FN7BigoSdIDAObNAnCRAAAA\n'
p2963
sg19
g102
sg21
I521
ssg147
I256
sg148
g149
sg93
I0
sg150
I256
sg151
(dp2964
g18
S'H4sIANj3H04C/2tgSs4rzS2o1EvOL0rVyy3NKclMLCpKrOSKL0pNzs8rLikqTS7hKmSEqOLKS4HI\nFjJ5M7SGMia1BxUya3gzejO1QhWklFQWpHIVsoQypVl4M3gzAhWwangzhzLa+Pn5ef0HAjDhzVCS\n1BkqwAAGH+xhdEmSHgBnOGdykQAAAA==\n'
p2965
sg19
g102
sg21
I523
ssg154
(dp2966
g18
S'H4sIANj3H04C/2tgSs4rzS2o1EvOL0rVyy3NKclMLCpKrOSKL0pNzs8rLikqTS7hKmSEqOLKS4HI\nFjJ5M7SGMia1BxUya3gzejO1QhWklFQWpHIVsoQypVl4M3gzAhWwangzhzLa+Pn5ef0HAjDhzVCS\n1BkqwIACPtiXJOkBAIHIRA6RAAAA\n'
p2967
sg19
g102
sg21
I524
ssg157
I0
sg158
(dp2968
g18
S'H4sIANj3H04C/2tgSs4rzS2o1EvOL0rVyy3NKclMLCpKrOSKL0pNzs8rLikqTS7hKmSEqOLKS4HI\nFjJ5M7SGMia1BxUya3gzejO1QhWklFQWpHIVsoQypVl4M3gzAhWwangzhzLa+Pn5ef0HAjDhzVCS\n1BkqwAAGH+xhdEmSHgBnOGdykQAAAA==\n'
p2969
sg19
g102
sg21
I525
ssg103
I0
sg161
F1
sg162
g163
sg108
I0
ssg19
g110
sg21
I519
sssg164
(dp2970
g2
(lp2971
((g4
g5
tI-1
tp2972
a((g7
g5
tI-1
tp2973
a((g67
g68
tI-1
tp2974
a((g70
g71
tI-1
tp2975
a((g73
g74
tI-1
tp2976
a((g76
g77
tI-1
tp2977
asg15
g76
sg16
(dp2978
g18
Nsg19
g42
sg21
I8
ssg19
g22
sg21
I535
sg23
g77
sg18
(dp2979
g18
(dp2980
g83
F1
sg84
g85
sg86
I12
sg87
F0
sg88
F0
sg89
I1
sg90
g91
sg92
I0
sg93
I0
sg94
F1.1000000000000001
sg95
(dp2981
g18
Nsg19
g42
sg21
I11
ssg98
I1
sg99
(dp2982
g18
S'H4sIANj3H04C/2tgSs4rzS2o1EvOL0rVyy3NKclMLCpKrOSKL0pNzs8rLikqTS7hKmSEqOLKS4HI\nFjJ5M7SGMia1BxUya3gzejO1QhWklFQWpHIVsoQyZZp4M3gzAhWwangzhzLa+Pn5ef0HAjDhzVCS\n1BnKwcjAwADiliTpAQCk2G9tiQAAAA==\n'
p2983
sg19
g102
sg21
I537
ssg103
I0
sg104
I1
sg105
I0
sg106
g107
sg108
I0
sg109
I1
ssg19
g110
sg21
I536
sssg150
I256
sS'_orig_data_range'
p2984
(dp2985
g18
S'H4sIANj3H04C/2tgSs4rzS2o1EvOL0rVyy3NKclMLCpKrOSKL0pNzs8rLikqTS7hKmSEqOLKS4HI\nFjJ5M7SGMia1BxUya3gzejO1QhWklFQWpHIVsoQypVl4M3gzAhWwangzhzLa+Pn5ef0HAjDhzVCS\n1BkqwIACPtiXJOkBAIHIRA6RAAAA\n'
p2986
sg19
g102
sg21
I528
ssS'recorder'
p2987
Nsg183
I00
sg19
S''
sS'scalar_bar_representation'
p2988
(dp2989
g2
(lp2990
((g4
g5
tI-1
tp2991
a((g7
g5
tI-1
tp2992
a((g67
g68
tI-1
tp2993
a((g70
g71
tI-1
tp2994
a((g73
g74
tI-1
tp2995
a((g193
g194
tI-1
tp2996
a((g196
g197
tI-1
tp2997
a((g199
g200
tI-1
tp2998
a((g202
g203
tI-1
tp2999
asg15
g202
sg16
(dp3000
g18
Nsg19
g42
sg21
I8
ssg19
g22
sg21
I529
sg23
g203
sg18
(dp3001
g18
(dp3002
g87
I1
sg208
I0
sg209
I1
sg210
I1
sg211
g212
sg213
I1
sg214
I2
sg215
I0
sg216
I0
sg217
(dp3003
g18
S'H4sIANj3H04C/2tgSs4rzS2o1EvOL0rVyy3NKclMLCpKrOSKL0pNzs8rLikqTS7hKmSEqOLKS4HI\nFjJ5M7SGMia1BxUya3gzejO1QhWklFQWpHIVsoQypVl4M3gzAhWwangzhzLa+Pn5ef0HAjDhzVCS\n1BkqcPirRkz/oaP2s2aCwEv7kiQ9AC+e0nyRAAAA\n'
p3004
sg19
g102
sg21
I532
ssg220
I0
sg221
(dp3005
g18
S'H4sIANj3H04C/2tgSs4rzS2o1EvOL0rVyy3NKclMLCpKrOSKL0pNzs8rLikqTS7hKmSEqOLKS4HI\nFjJ5M7SGMia1BxUya3gzejO1QhWklFQWpHIVsoQyZZp4M3gzAhWwangzhzLa+Pn5ef0HAjDhzVCS\n1BnKsaCNkQGES5L0ALP9TXGJAAAA\n'
p3006
sg19
g102
sg21
I534
ssg224
I1
sg225
I3
sg226
(dp3007
g18
S'H4sIANj3H04C/2tgSs4rzS2o1EvOL0rVyy3NKclMLCpKrOSKL0pNzs8rLikqTS7hKmSEqOLKS4HI\nFjJ5M7SGMia1BxUya3gzejO1QhWklFQWpHIVsoQyZZp4M3gzAhWwangzhzLa+Pn5ef0HAjDhzVCS\n1BnKwcjAwADCJUl6AJHzi6mJAAAA\n'
p3008
sg19
g102
sg21
I531
ssg229
I1
sg230
I1
sg108
I0
sg231
I0
sg232
F0.5
sg233
I0
sg93
I0
sg103
I0
sg234
(dp3009
g18
S'H4sIANj3H04C/2tgSs4rzS2o1EvOL0rVyy3NKclMLCpKrOSKL0pNzs8rLikqTS7hKmSEqOLKS4HI\nFjJ5M7SGMia1BxUya3gzejO1QhWklFQWpHIVsoQypVl4M3gzAhWwangzhzLa+Pn5ef0HAjDhzVCS\n1BkqYMt1fXGB7Sv7WTNBYKd9SZIeADd4AQGRAAAA\n'
p3010
sg19
g102
sg21
I533
ssg237
F0.01
ssg19
g110
sg21
I530
sssg238
(dp3011
g2
(lp3012
((g4
g5
tI-1
tp3013
a((g7
g5
tI-1
tp3014
a((g67
g68
tI-1
tp3015
a((g70
g71
tI-1
tp3016
a((g73
g74
tI-1
tp3017
a((g246
g247
tI-1
tp3018
a((g249
g250
tI-1
tp3019
a((g252
g253
tI-1
tp3020
a((g255
g256
tI-1
tp3021
asg15
g255
sg16
(dp3022
g18
Nsg19
g42
sg21
I8
ssg19
g22
sg21
I526
sg23
g256
sg18
(dp3023
g18
(dp3024
g261
I1
sg262
S'i'
sg263
I1
sg108
I0
sg103
I0
sg264
I0
sg265
I0
sg93
I0
sg266
I1
sg267
F0.5
sg268
I1
sg269
I1
sg270
I1
sg271
I0
sg272
I1
sg273
I0
sg274
I0
sg275
I0
sg276
I1
ssg19
g110
sg21
I527
sssg277
I00
sg105
I00
sg278
g279
sg280
I01
sg45
S''
sg282
I8
sg283
(dp3025
g18
Nsg19
g42
sg21
I517
ssg285
g286
sg287
S''
sg288
I01
sg289
(dp3026
g2
(lp3027
((g4
g5
tI-1
tp3028
a((g7
g5
tI-1
tp3029
a((g67
g68
tI-1
tp3030
a((g70
g71
tI-1
tp3031
a((g73
g74
tI-1
tp3032
a((g193
g194
tI-1
tp3033
a((g298
g299
tI-1
tp3034
a((g301
g302
tI-1
tp3035
asg15
g301
sg16
(dp3036
g18
Nsg19
g42
sg21
I8
ssg19
g22
sg21
I538
sg23
g302
sg18
(dp3037
g18
(dp3038
g87
g307
sg209
I1
sg308
F0.17000000000000001
sg213
I1
sg309
I0
sg310
S'No vectors'
p3039
sg312
S'%-#6.3g'
p3040
sg314
F0.80000000000000004
sg315
F10
sg316
g317
sg224
I1
sg318
I0
sg229
I1
sg230
I1
sg108
I0
sg319
I256
sg320
I1
sg210
I1
sg282
I8
sg93
I0
sg217
(dp3041
g18
S'H4sIANj3H04C/2tgSs4rzS2o1EvOL0rVyy3NKclMLCpKrOSKL0pNzs8rLikqTS7hKmSEqOLKS4HI\nFjJ5M7SGMia1BxUya3gzejO1QhWklFQWpHIVsoQypVl4M3gzAhWwangzhzLa+Pn5ef0HAjDhzVCS\n1BkqMGsmCLy0P/xVI6b/0FH7kiQ9AGpIg++RAAAA\n'
p3042
sg19
g102
sg21
I541
ssg323
I0
sg103
I0
sg234
(dp3043
g18
S'H4sIANj3H04C/2tgSs4rzS2o1EvOL0rVyy3NKclMLCpKrOSKL0pNzs8rLikqTS7hKmSEqOLKS4HI\nFjJ5M7SGMia1BxUya3gzejO1QhWklFQWpHIVsoQypVl4M3gzAhWwangzhzLa+Pn5ef0HAjDhzVCS\n1BkqMGsmCOy0rxZZ5/6wqsW+JEkPAHMFfKeRAAAA\n'
p3044
sg19
g102
sg21
I540
sssg19
g110
sg21
I539
ssssg19
g110
sg21
I513
sssg287
S''
sg326
(dp3045
g2
(lp3046
((g4
g5
tI-1
tp3047
a((g30
g5
tI-1
tp3048
a((g32
g33
tI-1
tp3049
a((g35
g36
tI0
tp3050
a((g56
g57
tI0
tp3051
asg15
g56
sg16
(dp3052
g18
Nsg19
g42
sg21
I1
ssg19
g22
sg21
I576
sg23
g57
sg18
(dp3053
g18
(dp3054
g62
(dp3055
g2
(lp3056
((g4
g5
tI-1
tp3057
a((g7
g5
tI-1
tp3058
a((g67
g68
tI-1
tp3059
a((g70
g71
tI-1
tp3060
a((g73
g74
tI-1
tp3061
a((g76
g77
tI-1
tp3062
asg15
g76
sg16
(dp3063
g18
Nsg19
g42
sg21
I8
ssg19
g22
sg21
I578
sg23
g77
sg18
(dp3064
g18
(dp3065
g83
F1
sg84
g85
sg86
I12
sg87
F0
sg88
F0
sg89
I1
sg90
g91
sg92
I0
sg93
I0
sg94
F1.1000000000000001
sg95
(dp3066
g18
Nsg19
g42
sg21
I11
ssg98
I1
sg99
(dp3067
g18
S'H4sIANj3H04C/2tgSs4rzS2o1EvOL0rVyy3NKclMLCpKrOSKL0pNzs8rLikqTS7hKmSEqOLKS4HI\nFjJ5M7SGMia1BxUya3gzejO1QhWklFQWpHIVsoQyZZp4M3gzAhWwangzhzLa+Pn5ef0HAjDhzVCS\n1BnKwcjAwADiliTpAQCk2G9tiQAAAA==\n'
p3068
sg19
g102
sg21
I580
ssg103
I0
sg104
I1
sg105
I0
sg106
g107
sg108
I0
sg109
I1
ssg19
g110
sg21
I579
sssg2943
S''
sg112
S'point_scalars'
p3069
sg602
I01
sg115
(dp3070
g18
S'H4sIANj3H04C/2tgSs4rzS2o1EvOL0rVyy3NKclMLCpKrOSKL0pNzs8rLikqTS7hKmSEqOLKS4HI\nFjJ5M7SGMia1BxUya3gzejO1QhWklFQWpHIVsoQypVl4M3gzAhWwangzhzLa+Pn5ef0HAjDhzVCS\n1BkqwMDAkHDwDZ8DjC5J0gMABe4D+pEAAAA=\n'
p3071
sg19
g102
sg21
I581
ssg118
(dp3072
g2
(lp3073
((g4
g5
tI-1
tp3074
a((g7
g5
tI-1
tp3075
a((g67
g68
tI-1
tp3076
a((g70
g71
tI-1
tp3077
a((g73
g74
tI-1
tp3078
a((g126
g127
tI-1
tp3079
a((g129
g130
tI-1
tp3080
asg15
g129
sg16
(dp3081
g18
Nsg19
g42
sg21
I8
ssg19
g22
sg21
I582
sg23
g130
sg18
(dp3082
g18
(dp3083
g135
I2
sg136
g137
sg138
(dp3084
g18
S'H4sIANj3H04C/2tgSs4rzS2o1EvOL0rVyy3NKclMLCpKrOSKL0pNzs8rLikqTS7hKmSEqOLKS4HI\nFjJ5M7SGMia1BxUya3gzejO1QhWklFQWpHIVsoQypVl4M3gzAhWwangzhzLa+Pn5ef0HAjDhzVCS\n1BkqwAAGH+xhdEmSHgBnOGdykQAAAA==\n'
p3085
sg19
g102
sg21
I584
ssg141
(dp3086
g18
S'H4sIANj3H04C/2tgSs4rzS2o1EvOL0rVyy3NKclMLCpKrOSKL0pNzs8rLikqTS7hKmSEqOLKS4HI\nFjJ5M7SGMia1BxUya3gzejO1QhWklFQWpHIVsoQypVl4M3gzAhWwangzhzLa+Pn5ef0HAjDhzVCS\n1BkqwMDAkHDwDZ8DjC5J0gMABe4D+pEAAAA=\n'
p3087
sg19
g102
sg21
I586
ssg144
(dp3088
g18
S'H4sIANj3H04C/2tgSs4rzS2o1EvOL0rVyy3NKclMLCpKrOSKL0pNzs8rLikqTS7hKmSEqOLKS4HI\nFjJ5M7SGMia1BxUya3gzejO1QhWklFQWpHIVsoQypVl4M3gzAhWwangzhzLa+Pn5ef0HAjDhzVCS\n1Bkq4H2C3XZ26FN7BigoSdIDAObNAnCRAAAA\n'
p3089
sg19
g102
sg21
I585
ssg147
I256
sg148
g149
sg93
I0
sg150
I256
sg151
(dp3090
g18
S'H4sIANj3H04C/2tgSs4rzS2o1EvOL0rVyy3NKclMLCpKrOSKL0pNzs8rLikqTS7hKmSEqOLKS4HI\nFjJ5M7SGMia1BxUya3gzejO1QhWklFQWpHIVsoQypVl4M3gzAhWwangzhzLa+Pn5ef0HAjDhzVCS\n1BkqwAAGH+xhdEmSHgBnOGdykQAAAA==\n'
p3091
sg19
g102
sg21
I587
ssg154
(dp3092
g18
S'H4sIANj3H04C/2tgSs4rzS2o1EvOL0rVyy3NKclMLCpKrOSKL0pNzs8rLikqTS7hKmSEqOLKS4HI\nFjJ5M7SGMia1BxUya3gzejO1QhWklFQWpHIVsoQypVl4M3gzAhWwangzhzLa+Pn5ef0HAjDhzVCS\n1BkqwMDAkHDwDZ8DjC5J0gMABe4D+pEAAAA=\n'
p3093
sg19
g102
sg21
I588
ssg157
I0
sg158
(dp3094
g18
S'H4sIANj3H04C/2tgSs4rzS2o1EvOL0rVyy3NKclMLCpKrOSKL0pNzs8rLikqTS7hKmSEqOLKS4HI\nFjJ5M7SGMia1BxUya3gzejO1QhWklFQWpHIVsoQypVl4M3gzAhWwangzhzLa+Pn5ef0HAjDhzVCS\n1BkqwAAGH+xhdEmSHgBnOGdykQAAAA==\n'
p3095
sg19
g102
sg21
I589
ssg103
I0
sg161
F1
sg162
g163
sg108
I0
ssg19
g110
sg21
I583
sssg164
(dp3096
g2
(lp3097
((g4
g5
tI-1
tp3098
a((g7
g5
tI-1
tp3099
a((g67
g68
tI-1
tp3100
a((g70
g71
tI-1
tp3101
a((g73
g74
tI-1
tp3102
a((g76
g77
tI-1
tp3103
asg15
g76
sg16
(dp3104
g18
Nsg19
g42
sg21
I8
ssg19
g22
sg21
I599
sg23
g77
sg18
(dp3105
g18
(dp3106
g83
F1
sg84
g85
sg86
I12
sg87
F0
sg88
F0
sg89
I1
sg90
g91
sg92
I0
sg93
I0
sg94
F1.1000000000000001
sg95
(dp3107
g18
Nsg19
g42
sg21
I11
ssg98
I1
sg99
(dp3108
g18
S'H4sIANj3H04C/2tgSs4rzS2o1EvOL0rVyy3NKclMLCpKrOSKL0pNzs8rLikqTS7hKmSEqOLKS4HI\nFjJ5M7SGMia1BxUya3gzejO1QhWklFQWpHIVsoQyZZp4M3gzAhWwangzhzLa+Pn5ef0HAjDhzVCS\n1BnKwcjAwADiliTpAQCk2G9tiQAAAA==\n'
p3109
sg19
g102
sg21
I601
ssg103
I0
sg104
I1
sg105
I0
sg106
g107
sg108
I0
sg109
I1
ssg19
g110
sg21
I600
sssg150
I256
sg2984
(dp3110
g18
S'H4sIANj3H04C/2tgSs4rzS2o1EvOL0rVyy3NKclMLCpKrOSKL0pNzs8rLikqTS7hKmSEqOLKS4HI\nFjJ5M7SGMia1BxUya3gzejO1QhWklFQWpHIVsoQypVl4M3gzAhWwangzhzLa+Pn5ef0HAjDhzVCS\n1BkqwIACPtiXJOkBAIHIRA6RAAAA\n'
p3111
sg19
g102
sg21
I592
ssg2987
Nsg183
I00
sg19
S''
sg2988
(dp3112
g2
(lp3113
((g4
g5
tI-1
tp3114
a((g7
g5
tI-1
tp3115
a((g67
g68
tI-1
tp3116
a((g70
g71
tI-1
tp3117
a((g73
g74
tI-1
tp3118
a((g193
g194
tI-1
tp3119
a((g196
g197
tI-1
tp3120
a((g199
g200
tI-1
tp3121
a((g202
g203
tI-1
tp3122
asg15
g202
sg16
(dp3123
g18
Nsg19
g42
sg21
I8
ssg19
g22
sg21
I593
sg23
g203
sg18
(dp3124
g18
(dp3125
g87
I1
sg208
I0
sg209
I1
sg210
I1
sg211
g212
sg213
I1
sg214
I2
sg215
I0
sg216
I0
sg217
(dp3126
g18
S'H4sIANj3H04C/2tgSs4rzS2o1EvOL0rVyy3NKclMLCpKrOSKL0pNzs8rLikqTS7hKmSEqOLKS4HI\nFjJ5M7SGMia1BxUya3gzejO1QhWklFQWpHIVsoQypVl4M3gzAhWwangzhzLa+Pn5ef0HAjDhzVCS\n1BkqcPirRkz/oaP2s2aCwEv7kiQ9AC+e0nyRAAAA\n'
p3127
sg19
g102
sg21
I596
ssg220
I0
sg221
(dp3128
g18
S'H4sIANj3H04C/2tgSs4rzS2o1EvOL0rVyy3NKclMLCpKrOSKL0pNzs8rLikqTS7hKmSEqOLKS4HI\nFjJ5M7SGMia1BxUya3gzejO1QhWklFQWpHIVsoQyZZp4M3gzAhWwangzhzLa+Pn5ef0HAjDhzVCS\n1BnKsaCNkQGES5L0ALP9TXGJAAAA\n'
p3129
sg19
g102
sg21
I598
ssg224
I1
sg225
I3
sg226
(dp3130
g18
S'H4sIANj3H04C/2tgSs4rzS2o1EvOL0rVyy3NKclMLCpKrOSKL0pNzs8rLikqTS7hKmSEqOLKS4HI\nFjJ5M7SGMia1BxUya3gzejO1QhWklFQWpHIVsoQyZZp4M3gzAhWwangzhzLa+Pn5ef0HAjDhzVCS\n1BnKwcjAwADCJUl6AJHzi6mJAAAA\n'
p3131
sg19
g102
sg21
I595
ssg229
I1
sg230
I1
sg108
I0
sg231
I0
sg232
F0.5
sg233
I0
sg93
I0
sg103
I0
sg234
(dp3132
g18
S'H4sIANj3H04C/2tgSs4rzS2o1EvOL0rVyy3NKclMLCpKrOSKL0pNzs8rLikqTS7hKmSEqOLKS4HI\nFjJ5M7SGMia1BxUya3gzejO1QhWklFQWpHIVsoQypVl4M3gzAhWwangzhzLa+Pn5ef0HAjDhzVCS\n1BkqYMt1fXGB7Sv7WTNBYKd9SZIeADd4AQGRAAAA\n'
p3133
sg19
g102
sg21
I597
ssg237
F0.01
ssg19
g110
sg21
I594
sssg238
(dp3134
g2
(lp3135
((g4
g5
tI-1
tp3136
a((g7
g5
tI-1
tp3137
a((g67
g68
tI-1
tp3138
a((g70
g71
tI-1
tp3139
a((g73
g74
tI-1
tp3140
a((g246
g247
tI-1
tp3141
a((g249
g250
tI-1
tp3142
a((g252
g253
tI-1
tp3143
a((g255
g256
tI-1
tp3144
asg15
g255
sg16
(dp3145
g18
Nsg19
g42
sg21
I8
ssg19
g22
sg21
I590
sg23
g256
sg18
(dp3146
g18
(dp3147
g261
I1
sg262
S'i'
sg263
I1
sg108
I0
sg103
I0
sg264
I0
sg265
I0
sg93
I0
sg266
I1
sg267
F0.5
sg268
I1
sg269
I1
sg270
I1
sg271
I0
sg272
I1
sg273
I0
sg274
I0
sg275
I0
sg276
I1
ssg19
g110
sg21
I591
sssg277
I00
sg105
I00
sg278
g279
sg280
I01
sg45
S''
sg282
I8
sg283
(dp3148
g18
Nsg19
g42
sg21
I581
ssg285
S'point_scalars'
p3149
sg287
S''
sg288
I01
sg289
(dp3150
g2
(lp3151
((g4
g5
tI-1
tp3152
a((g7
g5
tI-1
tp3153
a((g67
g68
tI-1
tp3154
a((g70
g71
tI-1
tp3155
a((g73
g74
tI-1
tp3156
a((g193
g194
tI-1
tp3157
a((g298
g299
tI-1
tp3158
a((g301
g302
tI-1
tp3159
asg15
g301
sg16
(dp3160
g18
Nsg19
g42
sg21
I8
ssg19
g22
sg21
I602
sg23
g302
sg18
(dp3161
g18
(dp3162
g87
g307
sg209
I1
sg308
F0.17000000000000001
sg213
I1
sg309
I0
sg310
S'point_scalars'
p3163
sg312
S'%-#6.3g'
p3164
sg314
F0.80000000000000004
sg315
F10
sg316
g317
sg224
I1
sg318
I0
sg229
I1
sg230
I1
sg108
I0
sg319
I256
sg320
I1
sg210
I1
sg282
I8
sg93
I0
sg217
(dp3165
g18
S'H4sIANj3H04C/2tgSs4rzS2o1EvOL0rVyy3NKclMLCpKrOSKL0pNzs8rLikqTS7hKmSEqOLKS4HI\nFjJ5M7SGMia1BxUya3gzejO1QhWklFQWpHIVsoQypVl4M3gzAhWwangzhzLa+Pn5ef0HAjDhzVCS\n1BkqMGsmCLy0P/xVI6b/0FH7kiQ9AGpIg++RAAAA\n'
p3166
sg19
g102
sg21
I605
ssg323
I0
sg103
I0
sg234
(dp3167
g18
S'H4sIANj3H04C/2tgSs4rzS2o1EvOL0rVyy3NKclMLCpKrOSKL0pNzs8rLikqTS7hKmSEqOLKS4HI\nFjJ5M7SGMia1BxUya3gzejO1QhWklFQWpHIVsoQypVl4M3gzAhWwangzhzLa+Pn5ef0HAjDhzVCS\n1BkqMGsmCOy0rxZZ5/6wqsW+JEkPAHMFfKeRAAAA\n'
p3168
sg19
g102
sg21
I604
sssg19
g110
sg21
I603
ssssg19
g110
sg21
I577
sssg19
S' colors and legends'
p3169
sg453
(dp3170
g18
(lp3171
(dp3172
g2
(lp3173
((g4
g5
tI-1
tp3174
a((g30
g5
tI-1
tp3175
a((g32
g33
tI-1
tp3176
a((g35
g36
tI0
tp3177
a((g462
g463
tI0
tp3178
a((g465
g466
tI0
tp3179
a((S'Outline'
p3180
S'enthought.mayavi.modules.outline'
p3181
tI0
tp3182
asg15
g3180
sg16
(dp3183
g18
Nsg19
g42
sg21
I1
ssg19
g22
sg21
I543
sg23
g3181
sg18
(dp3184
g18
(dp3185
g480
(dp3186
g18
Nsg19
g42
sg21
I40
ssg475
(dp3187
g18
(lp3188
sg19
g478
sg21
I545
ssg45
S'Outline'
p3189
sS'_full_outline'
p3190
(dp3191
g2
(lp3192
((g4
g5
tI-1
tp3193
a((g7
g5
tI-1
tp3194
a((g67
g68
tI-1
tp3195
a((g70
g71
tI-1
tp3196
a((g73
g74
tI-1
tp3197
a((g525
g526
tI-1
tp3198
a((g698
g699
tI-1
tp3199
a((S'OutlineFilter'
p3200
S'tvtk_classes.outline_filter'
p3201
tI-1
tp3202
asg15
g3200
sg16
(dp3203
g18
Nsg19
g42
sg21
I8
ssg19
g22
sg21
I574
sg23
g3201
sg18
(dp3204
g18
(dp3205
g565
I0
sg560
Nsg569
I0
sg93
I0
sg108
I0
sg554
I0
sg555
I0
sg103
I0
sg556
F1
ssg19
g110
sg21
I575
sssS'manual_bounds'
p3206
I00
sg603
(dp3207
g2
(lp3208
((g4
g5
tI-1
tp3209
a((g484
g485
tI-1
tp3210
asg15
g484
sg16
(dp3211
g18
Nsg19
g42
sg21
I1
ssg19
g22
sg21
I567
sg23
g485
sg18
(dp3212
g18
(dp3213
g490
(dp3214
g18
(lp3215
g661
asg19
g478
sg21
I569
ssg493
(dp3216
g18
(lp3217
g661
asg19
g478
sg21
I570
ssg497
(dp3218
g18
(lp3219
g661
asg19
g478
sg21
I571
sssg19
g110
sg21
I568
sssg500
(dp3220
g2
(lp3221
((g4
g5
tI-1
tp3222
a((g30
g5
tI-1
tp3223
a((g32
g33
tI-1
tp3224
a((g35
g36
tI0
tp3225
a((g462
g463
tI0
tp3226
a((g508
g509
tI0
tp3227
a((g511
g512
tI0
tp3228
asg15
g511
sg16
(dp3229
g18
Nsg19
g42
sg21
I1
ssg19
g22
sg21
I546
sg23
g512
sg18
(dp3230
g18
(dp3231
g517
(dp3232
g2
(lp3233
((g4
g5
tI-1
tp3234
a((g7
g5
tI-1
tp3235
a((g67
g68
tI-1
tp3236
a((g70
g71
tI-1
tp3237
a((g73
g74
tI-1
tp3238
a((g525
g526
tI-1
tp3239
a((g528
g529
tI-1
tp3240
a((g531
g532
tI-1
tp3241
a((g534
g535
tI-1
tp3242
a((g817
g818
tI-1
tp3243
asg15
g817
sg16
(dp3244
g18
Nsg19
g42
sg21
I8
ssg19
g22
sg21
I555
sg23
g818
sg18
(dp3245
g18
(dp3246
g543
I0
sg544
I0
sg545
g546
sg547
I0
sg93
I0
sg549
F0.01
sg823
I0
sg550
g546
sg551
I0
sg103
I0
sg552
I0
sg553
I1
sg554
I0
sg555
I0
sg556
F1
sg557
(dp3247
g18
S'H4sIANj3H04C/2tgSs4rzS2o1EvOL0rVyy3NKclMLCpKrOSKL0pNzs8rLikqTS7hKmSEqOLKS4HI\nFjJ5M7SGMia1BxUya3gzejO1QhWklFQWpHIVsoQypVl4M3gzAhWwangzhzLa+Pn5ef0HAjDhzVCS\n1BkqwIACPtiXJOkBAIHIRA6RAAAA\n'
p3248
sg19
g102
sg21
I557
ssg560
Nsg561
I1
sg108
I0
sg563
I0
sg564
I1
sg565
I0
sg566
I1
sg548
I0
sg571
I0
sg567
I0
sg570
F0
sg826
I1
sg568
g546
sg569
I0
sg827
I0
sg828
I1
sg572
g573
sg574
I1
ssg19
g110
sg21
I556
sssg475
(dp3249
g18
(lp3250
sg19
g478
sg21
I548
ssg281
S''
sg480
Nsg500
(dp3251
g2
(lp3252
((g4
g5
tI-1
tp3253
a((g7
g5
tI-1
tp3254
a((g67
g68
tI-1
tp3255
a((g70
g71
tI-1
tp3256
a((g73
g74
tI-1
tp3257
a((g193
g194
tI-1
tp3258
a((g585
g586
tI-1
tp3259
a((g511
g588
tI-1
tp3260
asg15
g511
sg16
(dp3261
g18
Nsg19
g42
sg21
I8
ssg19
g22
sg21
I549
sg23
g588
sg18
(dp3262
g18
(dp3263
g593
(dp3264
g18
S'H4sIANj3H04C/2tgSs4rzS2o1EvOL0rVyy3NKclMLCpKrOSKL0pNzs8rLikqTS7hKmSEqOLKS4HI\nFjJ5M7SGMia1BxUya3gzejO3QhWklFQWpHIVsoQypVl4M3gzAhWwangzhzLa+Pn5ef0HAjDhzVCS\n1BkqwYADlCTpAQD67GqfmQAAAA==\n'
p3265
sg19
g102
sg21
I551
ssg136
(dp3266
g18
S'H4sIANj3H04C/2tgSs4rzS2o1EvOL0rVyy3NKclMLCpKrOSKL0pNzs8rLikqTS7hKmSEqOLKS4HI\nFjJ5M7SGMia1BxUya3gzejO3QhWklFQWpHIVsoQypVl4M3gzAhWwangzhzLa+Pn5ef0HAjDhzVCS\n1BkqwQAGH+zR6ZIkPQDfyO6fmQAAAA==\n'
p3267
sg19
g102
sg21
I553
ssg87
(dp3268
g18
S'H4sIANj3H04C/2tgSs4rzS2o1EvOL0rVyy3NKclMLCpKrOSKL0pNzs8rLikqTS7hKmSEqOLKS4HI\nFjJ5M7SGMia1BxUya3gzejO3QhWklFQWpHIVsoQypVl4M3gzAhWwangzhzLa+Pn5ef0HAjDhzVCS\n1BkqwYAKGmCMkiQ9ABqDrf+ZAAAA\n'
p3269
sg19
g102
sg21
I552
ssg103
I0
sg209
I1
sg229
I1
sg210
I1
sg230
I1
sg108
I0
sg93
I0
sg213
I1
sg234
(dp3270
g18
S'H4sIANj3H04C/2tgSs4rzS2o1EvOL0rVyy3NKclMLCpKrOSKL0pNzs8rLikqTS7hKmSEqOLKS4HI\nFjJ5M7SGMia1BxUya3gzejO3QhWklFQWpHIVsoQypVl4M3gzAhWwangzhzLa+Pn5ef0HAjDhzVCS\n1BkqwYADlCTpAQD67GqfmQAAAA==\n'
p3271
sg19
g102
sg21
I554
ssg224
I1
ssg19
g110
sg21
I550
sssg602
I01
sg287
S''
sg603
Nsg182
Nsg604
(dp3272
g2
(lp3273
((g4
g5
tI-1
tp3274
a((g7
g5
tI-1
tp3275
a((g67
g68
tI-1
tp3276
a((g70
g71
tI-1
tp3277
a((g73
g74
tI-1
tp3278
a((g612
g613
tI-1
tp3279
a((g615
g616
tI-1
tp3280
asg15
g615
sg16
(dp3281
g18
Nsg19
g42
sg21
I8
ssg19
g22
sg21
I558
sg23
g616
sg18
(dp3282
g18
(dp3283
g621
(dp3284
g18
Nsg19
g42
sg21
I11
ssg623
I0
sg624
F1
sg629
(dp3285
g18
Nsg19
g42
sg21
I69
ssg627
F0
sg628
I0
sg632
g633
sg83
F1
sg634
I0
sg635
F1
sg625
(dp3286
g18
Nsg19
g42
sg21
I11
ssg637
(dp3287
g18
Nsg19
g42
sg21
I11
ssg639
I0
sg108
I0
sg640
I0
sg641
I0
sg642
F1
sg643
I0
sg93
I0
sg644
F0
sg645
I0
sg647
I65535
sg103
I0
sg648
g649
sg650
I1
sg651
F1
ssg19
g110
sg21
I559
sssg184
S''
ssg19
g110
sg21
I547
sssS'outline_mode'
p3288
S'cornered'
p3289
sg602
I01
sg287
S''
sS'outline_source'
p3290
(dp3291
g2
(lp3292
((g4
g5
tI-1
tp3293
a((g7
g5
tI-1
tp3294
a((g67
g68
tI-1
tp3295
a((g70
g71
tI-1
tp3296
a((g73
g74
tI-1
tp3297
a((g525
g526
tI-1
tp3298
a((g698
g699
tI-1
tp3299
a((S'OutlineSource'
p3300
S'tvtk_classes.outline_source'
p3301
tI-1
tp3302
asg15
g3300
sg16
(dp3303
g18
Nsg19
g42
sg21
I8
ssg19
g22
sg21
I560
sg23
g3301
sg18
(dp3304
g18
(dp3305
g103
I0
sg565
I0
sg560
NsS'bounds'
p3306
(dp3307
g18
S'H4sIANj3H04C/2tgSs4rzS2o1EvOL0rVyy3NKclMLCpKrOSKL0pNzs8rLikqTS7hKmSEqOLKS4HI\nFjJ5M7SGMia1BxUya3gzerO1QhWklFQWpHIVsoQypVl4M3gzAhWwangzhzLa+Pn5ef0HAjDhzVCS\n1BlqwAAGH/ZDaXtC/JIkPQAkJDhIsQAAAA==\n'
p3308
sg19
g102
sg21
I563
ssg93
I0
sg108
I0
sg554
I0
sS'box_type'
p3309
S'axis_aligned'
p3310
sg555
I0
sS'corners'
p3311
(dp3312
g18
S'H4sIANj3H04C/2tgSs4rzS2o1EvOL0rVyy3NKclMLCpKrOSKL0pNzs8rLikqTS7hKmSEqOLKS4HI\nFjJ5M7SGMia1BxUya3gzeku0QhWklFQWpHIVsoQypVl4M3gzAhWwangzhzLa+Pn5ef0HAjDhzVCS\n1Bl6gAEv+GBPmjyMT6w+XPpxqcOkS5L0ACNCKiRBAQAA\n'
p3313
sg19
g102
sg21
I562
ssg569
I0
sg556
F0
ssg19
g110
sg21
I561
sssS'_cornered_outline'
p3314
(dp3315
g2
(lp3316
((g4
g5
tI-1
tp3317
a((g7
g5
tI-1
tp3318
a((g67
g68
tI-1
tp3319
a((g70
g71
tI-1
tp3320
a((g73
g74
tI-1
tp3321
a((g525
g526
tI-1
tp3322
a((g698
g699
tI-1
tp3323
a((S'OutlineCornerFilter'
p3324
S'tvtk_classes.outline_corner_filter'
p3325
tI-1
tp3326
asg15
g3324
sg16
(dp3327
g18
Nsg19
g42
sg21
I8
ssg19
g22
sg21
I572
sg23
g3325
sg18
(dp3328
g18
(dp3329
S'corner_factor'
p3330
F0.20000000000000001
sg565
I0
sg560
Nsg569
I0
sg93
I0
sg108
I0
sg554
I0
sg555
I0
sg103
I0
sg556
F1
ssg19
g110
sg21
I573
sssg182
NsS'__listener_traits__'
p3331
(dp3332
g18
(dp3333
g3306
(dp3334
g2
(lp3335
sg15
S'function'
p3336
sg16
(dp3337
g18
Nsg19
g42
sg21
I1
ssg19
g22
sg21
I565
sg23
S'__builtin__'
p3338
sg18
(dp3339
g18
(dp3340
sg19
g110
sg21
I566
ssssg19
g110
sg21
I564
ssg184
g666
sg745
g746
ssg19
g110
sg21
I544
ssasg19
g478
sg21
I542
ssg745
g747
ssg19
g110
sg21
I511
ssasg19
g478
sg21
I509
ssg745
g2755
ssg19
g110
sg21
I493
ssa(dp3341
g2
(lp3342
((g4
g5
tI-1
tp3343
a((g30
g5
tI-1
tp3344
a((g32
g33
tI-1
tp3345
a((g35
g36
tI0
tp3346
a((g462
g463
tI0
tp3347
a((g1930
g1931
tI0
tp3348
a((g2651
g2652
tI0
tp3349
a((S'FilterBase'
p3350
S'enthought.mayavi.filters.filter_base'
p3351
tI0
tp3352
a((S'GaussianSplatter'
p3353
S'enthought.mayavi.filters.gaussian_splatter'
p3354
tI0
tp3355
asg15
g3353
sg16
(dp3356
g18
Nsg19
g42
sg21
I1
ssg19
g22
sg21
I611
sg23
g3354
sg18
(dp3357
g18
(dp3358
g45
g3353
sg2236
(dp3359
g2
(lp3360
((g4
g5
tI-1
tp3361
a((g484
g485
tI-1
tp3362
asg15
g484
sg16
(dp3363
g18
Nsg19
g42
sg21
I1
ssg19
g22
sg21
I707
sg23
g485
sg18
(dp3364
g18
(dp3365
g490
(dp3366
g18
(lp3367
S'any'
p3368
asg19
g478
sg21
I709
ssg493
(dp3369
g18
(lp3370
S'image_data'
p3371
asg19
g478
sg21
I710
ssg497
(dp3372
g18
(lp3373
g3368
asg19
g478
sg21
I711
sssg19
g110
sg21
I708
sssg2731
(dp3374
g2
(lp3375
((g4
g5
tI-1
tp3376
a((g7
g5
tI-1
tp3377
a((g67
g68
tI-1
tp3378
a((g70
g71
tI-1
tp3379
a((g73
g74
tI-1
tp3380
a((g525
g526
tI-1
tp3381
a((S'ImageAlgorithm'
p3382
S'tvtk_classes.image_algorithm'
p3383
tI-1
tp3384
a((g3353
S'tvtk_classes.gaussian_splatter'
p3385
tI-1
tp3386
asg15
g3353
sg16
(dp3387
g18
Nsg19
g42
sg21
I8
ssg19
g22
sg21
I703
sg23
g3385
sg18
(dp3388
g18
(dp3389
S'scalar_warping_'
p3390
I1
sg2114
F0.10000000000000001
sS'capping'
p3391
I1
sS'accumulation_mode'
p3392
S'min'
p3393
sS'normal_warping_'
p3394
I1
sg103
I0
sS'accumulation_mode_'
p3395
I0
sg560
Nsg554
I0
sg555
I0
sS'null_value'
p3396
F0
sg556
F1
sg948
F1
sS'scalar_warping'
p3397
I1
sS'eccentricity'
p3398
F3.1919947000000004
sS'normal_warping'
p3399
I1
sS'model_bounds'
p3400
(dp3401
g18
S'H4sIANn3H04C/2tgSs4rzS2o1EvOL0rVyy3NKclMLCpKrOSKL0pNzs8rLikqTS7hKmSEqOLKS4HI\nFjJ5M7SGMia1BxUya3gzerO1QhWklFQWpHIVsoQypVl4M3gzAhWwangzhzLa+Pn5ef0HAjDhzVCS\n1BlqwAAGGgegtMOJ/2CwH8I3cwASX2pv/QPxCzYEKjuUJOkBADJydJGxAAAA\n'
p3402
sg19
g102
sg21
I706
ssg108
I0
sg565
I0
sg93
I0
sS'sample_dimensions'
p3403
(dp3404
g18
S'H4sIANn3H04C/2tgSs4rzS2o1EvOL0rVyy3NKclMLCpKrOSKL0pNzs8rLikqTS7hKmSEqOLKS4HI\nFjJ5M7SGMia1BxUya3gzejO3QhWklFQWpHIVsoQyZZp4M3gzAhWwangzhzLa+Pn5ef0HAjDhzVCS\n1BnKY8TAwADDJUl6ANDnscGNAAAA\n'
p3405
sg19
g102
sg21
I705
ssS'exponent_factor'
p3406
F-5
sS'cap_value'
p3407
F0
sg569
I0
sS'capping_'
p3408
I1
ssg19
g110
sg21
I704
sssg602
I01
sg287
S''
sg2987
Nsg19
S' filter'
p3409
sg453
(dp3410
g18
(lp3411
(dp3412
g2
(lp3413
((g4
g5
tI-1
tp3414
a((g30
g5
tI-1
tp3415
a((g32
g33
tI-1
tp3416
a((g35
g36
tI0
tp3417
a((g38
g39
tI0
tp3418
asg15
g38
sg16
(dp3419
g18
Nsg19
g42
sg21
I1
ssg19
g22
sg21
I614
sg23
g39
sg18
(dp3420
g18
(dp3421
g45
S'Colors and legends'
p3422
sg47
g48
sg453
(dp3423
g18
(lp3424
(dp3425
g2
(lp3426
((g4
g5
tI-1
tp3427
a((g30
g5
tI-1
tp3428
a((g32
g33
tI-1
tp3429
a((g35
g36
tI0
tp3430
a((g462
g463
tI0
tp3431
a((g465
g466
tI0
tp3432
a((g468
g469
tI0
tp3433
asg15
g468
sg16
(dp3434
g18
Nsg19
g42
sg21
I1
ssg19
g22
sg21
I617
sg23
g469
sg18
(dp3435
g18
(dp3436
g474
I01
sS'_widget_state'
p3437
(dp3438
g18
(lp3439
sg19
g478
sg21
I619
ssg45
g468
sg2236
(dp3440
g18
Nsg19
g42
sg21
I40
ssg500
(dp3441
g2
(lp3442
((g4
g5
tI-1
tp3443
a((g30
g5
tI-1
tp3444
a((g32
g33
tI-1
tp3445
a((g35
g36
tI0
tp3446
a((g462
g463
tI0
tp3447
a((g508
g509
tI0
tp3448
a((g511
g512
tI0
tp3449
asg15
g511
sg16
(dp3450
g18
Nsg19
g42
sg21
I1
ssg19
g22
sg21
I629
sg23
g512
sg18
(dp3451
g18
(dp3452
g517
(dp3453
g2
(lp3454
((g4
g5
tI-1
tp3455
a((g7
g5
tI-1
tp3456
a((g67
g68
tI-1
tp3457
a((g70
g71
tI-1
tp3458
a((g73
g74
tI-1
tp3459
a((g525
g526
tI-1
tp3460
a((g528
g529
tI-1
tp3461
a((g531
g532
tI-1
tp3462
a((g534
g535
tI-1
tp3463
a((g537
g538
tI-1
tp3464
asg15
g537
sg16
(dp3465
g18
Nsg19
g42
sg21
I8
ssg19
g22
sg21
I638
sg23
g538
sg18
(dp3466
g18
(dp3467
g543
I0
sg544
I0
sg545
S'use_cell_data'
p3468
sg547
I0
sg548
I0
sg549
F0.01
sg550
g546
sg551
I0
sg103
I0
sg552
I0
sg553
I1
sg554
I0
sg555
I0
sg556
F1
sg557
(dp3469
g18
S'H4sIANn3H04C/2tgSs4rzS2o1EvOL0rVyy3NKclMLCpKrOSKL0pNzs8rLikqTS7hKmSEqOLKS4HI\nFjJ5M7SGMia1BxUya3gzejO1QhWklFQWpHIVsoQypVl4M3gzAhWwangzhzLa+Pn5ef0HAjDhzVCS\n1BkqwIACPtiXJOkBAIHIRA6RAAAA\n'
p3470
sg19
g102
sg21
I640
ssg560
Nsg561
I1
sg108
I0
sg562
I2
sg563
I0
sg564
I1
sg565
I0
sg566
I1
sg93
I0
sg567
I0
sg568
g546
sg569
I0
sg570
F0
sg571
I0
sg572
g573
sg574
I1
ssg19
g110
sg21
I639
sssg3437
(dp3471
g18
(lp3472
sg19
g478
sg21
I631
ssg45
S''
sg2236
Nsg500
(dp3473
g2
(lp3474
((g4
g5
tI-1
tp3475
a((g7
g5
tI-1
tp3476
a((g67
g68
tI-1
tp3477
a((g70
g71
tI-1
tp3478
a((g73
g74
tI-1
tp3479
a((g193
g194
tI-1
tp3480
a((g585
g586
tI-1
tp3481
a((g511
g588
tI-1
tp3482
asg15
g511
sg16
(dp3483
g18
Nsg19
g42
sg21
I8
ssg19
g22
sg21
I632
sg23
g588
sg18
(dp3484
g18
(dp3485
g593
(dp3486
g18
S'H4sIANn3H04C/2tgSs4rzS2o1EvOL0rVyy3NKclMLCpKrOSKL0pNzs8rLikqTS7hKmSEqOLKS4HI\nFjJ5M7SGMia1BxUya3gzejO3QhWklFQWpHIVsoQypVl4M3gzAhWwangzhzLa+Pn5ef0HAjDhzVCS\n1BkqwYADlCTpAQD67GqfmQAAAA==\n'
p3487
sg19
g102
sg21
I634
ssg136
(dp3488
g18
S'H4sIANn3H04C/2tgSs4rzS2o1EvOL0rVyy3NKclMLCpKrOSKL0pNzs8rLikqTS7hKmSEqOLKS4HI\nFjJ5M7SGMia1BxUya3gzejO3QhWklFQWpHIVsoQypVl4M3gzAhWwangzhzLa+Pn5ef0HAjDhzVCS\n1BkqwQAGH+zR6ZIkPQDfyO6fmQAAAA==\n'
p3489
sg19
g102
sg21
I636
ssg87
(dp3490
g18
S'H4sIANn3H04C/2tgSs4rzS2o1EvOL0rVyy3NKclMLCpKrOSKL0pNzs8rLikqTS7hKmSEqOLKS4HI\nFjJ5M7SGMia1BxUya3gzejO3QhWklFQWpHIVsoQypVl4M3gzAhWwangzhzLa+Pn5ef0HAjDhzVCS\n1BkqwYAKGmCMkiQ9ABqDrf+ZAAAA\n'
p3491
sg19
g102
sg21
I635
ssg103
I0
sg209
I1
sg229
I1
sg210
I1
sg230
I1
sg108
I0
sg93
I0
sg213
I1
sg234
(dp3492
g18
S'H4sIANn3H04C/2tgSs4rzS2o1EvOL0rVyy3NKclMLCpKrOSKL0pNzs8rLikqTS7hKmSEqOLKS4HI\nFjJ5M7SGMia1BxUya3gzejO3QhWklFQWpHIVsoQypVl4M3gzAhWwangzhzLa+Pn5ef0HAjDhzVCS\n1BkqwYADlCTpAQD67GqfmQAAAA==\n'
p3493
sg19
g102
sg21
I637
ssg224
I1
ssg19
g110
sg21
I633
sssg602
I01
sg287
S''
sS'input_info'
p3494
Nsg2987
Nsg604
(dp3495
g2
(lp3496
((g4
g5
tI-1
tp3497
a((g7
g5
tI-1
tp3498
a((g67
g68
tI-1
tp3499
a((g70
g71
tI-1
tp3500
a((g73
g74
tI-1
tp3501
a((g612
g613
tI-1
tp3502
a((g615
g616
tI-1
tp3503
asg15
g615
sg16
(dp3504
g18
Nsg19
g42
sg21
I8
ssg19
g22
sg21
I641
sg23
g616
sg18
(dp3505
g18
(dp3506
g621
(dp3507
g18
Nsg19
g42
sg21
I11
ssg623
I0
sg624
F1
sg629
(dp3508
g18
Nsg19
g42
sg21
I69
ssg627
F0
sg628
I0
sg632
g633
sg83
F0.63600000000000001
sg634
I0
sg635
F1.5898447036743164
sg625
(dp3509
g18
Nsg19
g42
sg21
I11
ssg637
(dp3510
g18
Nsg19
g42
sg21
I11
ssg639
I0
sg108
I0
sg640
I0
sg641
I0
sg642
F1
sg643
I0
sg93
I0
sg644
F0
sg645
I0
sg647
I65535
sg103
I0
sg648
g649
sg650
I1
sg651
F5.2606925964355469
ssg19
g110
sg21
I642
sssg19
S''
ssg19
g110
sg21
I630
sssg602
I01
sg287
S''
sg3494
(dp3511
g18
Nsg19
g42
sg21
I70
ssg2987
Nsg19
S' module'
p3512
sg667
(dp3513
g2
(lp3514
((g4
g5
tI-1
tp3515
a((g30
g5
tI-1
tp3516
a((g32
g33
tI-1
tp3517
a((g35
g36
tI0
tp3518
a((g462
g463
tI0
tp3519
a((g508
g509
tI0
tp3520
a((g676
g677
tI0
tp3521
asg15
g676
sg16
(dp3522
g18
Nsg19
g42
sg21
I1
ssg19
g22
sg21
I620
sg23
g677
sg18
(dp3523
g18
(dp3524
g3437
(dp3525
g18
(lp3526
sg19
g478
sg21
I622
ssg45
S''
sg684
I00
sg3494
Nsg685
(dp3527
g18
(F0
F2.0999772911434813
tp3528
sg19
g20
sg21
I623
ssg688
I01
sg602
I01
sg287
S''
sg689
(dp3529
g2
(lp3530
((g4
g5
tI-1
tp3531
a((g7
g5
tI-1
tp3532
a((g67
g68
tI-1
tp3533
a((g70
g71
tI-1
tp3534
a((g73
g74
tI-1
tp3535
a((g525
g526
tI-1
tp3536
a((g698
g699
tI-1
tp3537
a((g701
g702
tI-1
tp3538
asg15
g701
sg16
(dp3539
g18
Nsg19
g42
sg21
I8
ssg19
g22
sg21
I624
sg23
g702
sg18
(dp3540
g18
(dp3541
g707
I0
sg108
I0
sg708
I0
sg560
Nsg709
I0
sg565
I0
sg710
I1
sg711
I1
sg712
I1
sg713
I0
sg714
I0
sg554
I0
sg93
I0
sg555
I0
sg715
I1
sg569
I0
sg556
F1
sg716
I1
sg103
I0
ssg19
g110
sg21
I625
sssS'_traits_cache_minimum_contour'
p3542
F0
sg718
(dp3543
g18
(lp3544
F0.18885243464892221
asg19
g478
sg21
I626
ssg721
(dp3545
g2
(lp3546
((g4
g5
tI-1
tp3547
a((g7
g5
tI-1
tp3548
a((g67
g68
tI-1
tp3549
a((g70
g71
tI-1
tp3550
a((g73
g74
tI-1
tp3551
a((g525
g526
tI-1
tp3552
a((g698
g699
tI-1
tp3553
a((g731
g732
tI-1
tp3554
asg15
g731
sg16
(dp3555
g18
Nsg19
g42
sg21
I8
ssg19
g22
sg21
I627
sg23
g732
sg18
(dp3556
g18
(dp3557
g93
I0
sg737
I1
sg565
I0
sg738
I1
sg545
g739
sg740
I0
sg560
Nsg103
I0
sg108
I0
sg554
I0
sg562
I1
sg555
I0
sg569
I0
sg556
F1
sg716
I1
sg741
I0
ssg19
g110
sg21
I628
sssg2236
NsS'show_filled_contours'
p3558
I01
sg743
I01
sg2987
Nsg716
I10
sg19
S''
sS'_traits_cache_maximum_contour'
p3559
F0.18885243464892221
ssg19
g110
sg21
I621
sssg745
S'module.ico'
p3560
ssg19
g110
sg21
I618
ssasg19
g478
sg21
I616
ssg287
S''
sg326
(dp3561
g2
(lp3562
((g4
g5
tI-1
tp3563
a((g30
g5
tI-1
tp3564
a((g32
g33
tI-1
tp3565
a((g35
g36
tI0
tp3566
a((g56
g57
tI0
tp3567
asg15
g56
sg16
(dp3568
g18
Nsg19
g42
sg21
I1
ssg19
g22
sg21
I673
sg23
g57
sg18
(dp3569
g18
(dp3570
g62
(dp3571
g2
(lp3572
((g4
g5
tI-1
tp3573
a((g7
g5
tI-1
tp3574
a((g67
g68
tI-1
tp3575
a((g70
g71
tI-1
tp3576
a((g73
g74
tI-1
tp3577
a((g76
g77
tI-1
tp3578
asg15
g76
sg16
(dp3579
g18
Nsg19
g42
sg21
I8
ssg19
g22
sg21
I675
sg23
g77
sg18
(dp3580
g18
(dp3581
g83
F1
sg84
g85
sg86
I12
sg87
F0
sg88
F0
sg89
I1
sg90
g91
sg92
I0
sg93
I0
sg94
F1.1000000000000001
sg95
(dp3582
g18
Nsg19
g42
sg21
I11
ssg98
I1
sg99
(dp3583
g18
S'H4sIANn3H04C/2tgSs4rzS2o1EvOL0rVyy3NKclMLCpKrOSKL0pNzs8rLikqTS7hKmSEqOLKS4HI\nFjJ5M7SGMia1BxUya3gzejO1QhWklFQWpHIVsoQyZZp4M3gzAhWwangzhzLa+Pn5ef0HAjDhzVCS\n1BnKwcjAwADiliTpAQCk2G9tiQAAAA==\n'
p3584
sg19
g102
sg21
I677
ssg103
I0
sg104
I1
sg105
I0
sg106
g107
sg108
I0
sg109
I1
ssg19
g110
sg21
I676
sssg2943
S''
sg112
S'SplatterValues'
p3585
sg602
I01
sg115
(dp3586
g18
S'H4sIANn3H04C/2tgSs4rzS2o1EvOL0rVyy3NKclMLCpKrOSKL0pNzs8rLikqTS7hKmSEqOLKS4HI\nFjJ5M7SGMia1BxUya3gzejO1QhWklFQWpHIVsoQypVl4M3gzAhWwangzhzLa+Pn5ef0HAjDhzVCS\n1BkqwAAF+Xn3nhw4w+BQkqQHAF+ORgiRAAAA\n'
p3587
sg19
g102
sg21
I678
ssg118
(dp3588
g2
(lp3589
((g4
g5
tI-1
tp3590
a((g7
g5
tI-1
tp3591
a((g67
g68
tI-1
tp3592
a((g70
g71
tI-1
tp3593
a((g73
g74
tI-1
tp3594
a((g126
g127
tI-1
tp3595
a((g129
g130
tI-1
tp3596
asg15
g129
sg16
(dp3597
g18
Nsg19
g42
sg21
I8
ssg19
g22
sg21
I679
sg23
g130
sg18
(dp3598
g18
(dp3599
g135
I2
sg136
g137
sg138
(dp3600
g18
S'H4sIANn3H04C/2tgSs4rzS2o1EvOL0rVyy3NKclMLCpKrOSKL0pNzs8rLikqTS7hKmSEqOLKS4HI\nFjJ5M7SGMia1BxUya3gzejO1QhWklFQWpHIVsoQypVl4M3gzAhWwangzhzLa+Pn5ef0HAjDhzVCS\n1BkqwIAGSpL0ACtwOO6RAAAA\n'
p3601
sg19
g102
sg21
I681
ssg141
(dp3602
g18
S'H4sIANn3H04C/2tgSs4rzS2o1EvOL0rVyy3NKclMLCpKrOSKL0pNzs8rLikqTS7hKmSEqOLKS4HI\nFjJ5M7SGMia1BxUya3gzejO1QhWklFQWpHIVsoQypVl4M3gzAhWwangzhzLa+Pn5ef0HAjDhzVCS\n1BkqwAAF+Xn3nhw4w+BQkqQHAF+ORgiRAAAA\n'
p3603
sg19
g102
sg21
I683
ssg144
(dp3604
g18
S'H4sIANn3H04C/2tgSs4rzS2o1EvOL0rVyy3NKclMLCpKrOSKL0pNzs8rLikqTS7hKmSEqOLKS4HI\nFjJ5M7SGMia1BxUya3gzejO1QhWklFQWpHIVsoQypVl4M3gzAhWwangzhzLa+Pn5ef0HAjDhzVCS\n1BkqwIAGSpL0ACtwOO6RAAAA\n'
p3605
sg19
g102
sg21
I682
ssg147
I256
sg148
g149
sg93
I0
sg150
I256
sg151
(dp3606
g18
S'H4sIANn3H04C/2tgSs4rzS2o1EvOL0rVyy3NKclMLCpKrOSKL0pNzs8rLikqTS7hKmSEqOLKS4HI\nFjJ5M7SGMia1BxUya3gzejO1QhWklFQWpHIVsoQypVl4M3gzAhWwangzhzLa+Pn5ef0HAjDhzVCS\n1BkqwAAGH+xhdEmSHgBnOGdykQAAAA==\n'
p3607
sg19
g102
sg21
I684
ssg154
(dp3608
g18
S'H4sIANn3H04C/2tgSs4rzS2o1EvOL0rVyy3NKclMLCpKrOSKL0pNzs8rLikqTS7hKmSEqOLKS4HI\nFjJ5M7SGMia1BxUya3gzejO1QhWklFQWpHIVsoQypVl4M3gzAhWwangzhzLa+Pn5ef0HAjDhzVCS\n1BkqwAAF+Xn3nhw4w+BQkqQHAF+ORgiRAAAA\n'
p3609
sg19
g102
sg21
I685
ssg157
I0
sg158
(dp3610
g18
S'H4sIANn3H04C/2tgSs4rzS2o1EvOL0rVyy3NKclMLCpKrOSKL0pNzs8rLikqTS7hKmSEqOLKS4HI\nFjJ5M7SGMia1BxUya3gzejO1QhWklFQWpHIVsoQypVl4M3gzAhWwangzhzLa+Pn5ef0HAjDhzVCS\n1BkqwIACPtiXJOkBAIHIRA6RAAAA\n'
p3611
sg19
g102
sg21
I686
ssg103
I0
sg161
F0.63600000000000001
sg162
g163
sg108
I0
ssg19
g110
sg21
I680
sssg164
(dp3612
g2
(lp3613
((g4
g5
tI-1
tp3614
a((g7
g5
tI-1
tp3615
a((g67
g68
tI-1
tp3616
a((g70
g71
tI-1
tp3617
a((g73
g74
tI-1
tp3618
a((g76
g77
tI-1
tp3619
asg15
g76
sg16
(dp3620
g18
Nsg19
g42
sg21
I8
ssg19
g22
sg21
I696
sg23
g77
sg18
(dp3621
g18
(dp3622
g83
F1
sg84
g85
sg86
I12
sg87
F0
sg88
F0
sg89
I1
sg90
g91
sg92
I0
sg93
I0
sg94
F1.1000000000000001
sg95
(dp3623
g18
Nsg19
g42
sg21
I11
ssg98
I1
sg99
(dp3624
g18
S'H4sIANn3H04C/2tgSs4rzS2o1EvOL0rVyy3NKclMLCpKrOSKL0pNzs8rLikqTS7hKmSEqOLKS4HI\nFjJ5M7SGMia1BxUya3gzejO1QhWklFQWpHIVsoQyZZp4M3gzAhWwangzhzLa+Pn5ef0HAjDhzVCS\n1BnKwcjAwADiliTpAQCk2G9tiQAAAA==\n'
p3625
sg19
g102
sg21
I698
ssg103
I0
sg104
I1
sg105
I0
sg106
g107
sg108
I0
sg109
I1
ssg19
g110
sg21
I697
sssg150
I256
sg2984
(dp3626
g18
S'H4sIANn3H04C/2tgSs4rzS2o1EvOL0rVyy3NKclMLCpKrOSKL0pNzs8rLikqTS7hKmSEqOLKS4HI\nFjJ5M7SGMia1BxUya3gzejO1QhWklFQWpHIVsoQypVl4M3gzAhWwangzhzLa+Pn5ef0HAjDhzVCS\n1BkqwIACPtiXJOkBAIHIRA6RAAAA\n'
p3627
sg19
g102
sg21
I689
ssg2987
Nsg183
I00
sg19
S''
sg2988
(dp3628
g2
(lp3629
((g4
g5
tI-1
tp3630
a((g7
g5
tI-1
tp3631
a((g67
g68
tI-1
tp3632
a((g70
g71
tI-1
tp3633
a((g73
g74
tI-1
tp3634
a((g193
g194
tI-1
tp3635
a((g196
g197
tI-1
tp3636
a((g199
g200
tI-1
tp3637
a((g202
g203
tI-1
tp3638
asg15
g202
sg16
(dp3639
g18
Nsg19
g42
sg21
I8
ssg19
g22
sg21
I690
sg23
g203
sg18
(dp3640
g18
(dp3641
g87
I1
sg208
I0
sg209
I1
sg210
I1
sg211
g212
sg213
I1
sg214
I2
sg215
I0
sg216
I0
sg217
(dp3642
g18
S'H4sIANn3H04C/2tgSs4rzS2o1EvOL0rVyy3NKclMLCpKrOSKL0pNzs8rLikqTS7hKmSEqOLKS4HI\nFjJ5M7SGMia1BxUya3gzejO1QhWklFQWpHIVsoQypVl4M3gzAhWwangzhzLa+Pn5ef0HAjDhzVCS\n1BkqcPirRkz/oaP2s2aCwEv7kiQ9AC+e0nyRAAAA\n'
p3643
sg19
g102
sg21
I693
ssg220
I0
sg221
(dp3644
g18
S'H4sIANn3H04C/2tgSs4rzS2o1EvOL0rVyy3NKclMLCpKrOSKL0pNzs8rLikqTS7hKmSEqOLKS4HI\nFjJ5M7SGMia1BxUya3gzejO1QhWklFQWpHIVsoQyZZp4M3gzAhWwangzhzLa+Pn5ef0HAjDhzVCS\n1BnKsaCNkQGES5L0ALP9TXGJAAAA\n'
p3645
sg19
g102
sg21
I695
ssg224
I1
sg225
I3
sg226
(dp3646
g18
S'H4sIANn3H04C/2tgSs4rzS2o1EvOL0rVyy3NKclMLCpKrOSKL0pNzs8rLikqTS7hKmSEqOLKS4HI\nFjJ5M7SGMia1BxUya3gzejO1QhWklFQWpHIVsoQyZZp4M3gzAhWwangzhzLa+Pn5ef0HAjDhzVCS\n1BnKwcjAwADCJUl6AJHzi6mJAAAA\n'
p3647
sg19
g102
sg21
I692
ssg229
I1
sg230
I1
sg108
I0
sg231
I0
sg232
F0.5
sg233
I0
sg93
I0
sg103
I0
sg234
(dp3648
g18
S'H4sIANn3H04C/2tgSs4rzS2o1EvOL0rVyy3NKclMLCpKrOSKL0pNzs8rLikqTS7hKmSEqOLKS4HI\nFjJ5M7SGMia1BxUya3gzejO1QhWklFQWpHIVsoQypVl4M3gzAhWwangzhzLa+Pn5ef0HAjDhzVCS\n1BkqYMt1fXGB7Sv7WTNBYKd9SZIeADd4AQGRAAAA\n'
p3649
sg19
g102
sg21
I694
ssg237
F0.01
ssg19
g110
sg21
I691
sssg238
(dp3650
g2
(lp3651
((g4
g5
tI-1
tp3652
a((g7
g5
tI-1
tp3653
a((g67
g68
tI-1
tp3654
a((g70
g71
tI-1
tp3655
a((g73
g74
tI-1
tp3656
a((g246
g247
tI-1
tp3657
a((g249
g250
tI-1
tp3658
a((g252
g253
tI-1
tp3659
a((g255
g256
tI-1
tp3660
asg15
g255
sg16
(dp3661
g18
Nsg19
g42
sg21
I8
ssg19
g22
sg21
I687
sg23
g256
sg18
(dp3662
g18
(dp3663
g261
I1
sg262
S'i'
sg263
I1
sg108
I0
sg103
I0
sg264
I0
sg265
I0
sg93
I0
sg266
I1
sg267
F0.5
sg268
I1
sg269
I1
sg270
I1
sg271
I0
sg272
I1
sg273
I0
sg274
I0
sg275
I0
sg276
I1
ssg19
g110
sg21
I688
sssg277
I00
sg105
I00
sg278
S'Greys'
p3664
sg280
I01
sg45
S''
sg282
I8
sg283
(dp3665
g18
Nsg19
g42
sg21
I678
ssg285
S'SplatterValues'
p3666
sg287
S''
sg288
I01
sg289
(dp3667
g2
(lp3668
((g4
g5
tI-1
tp3669
a((g7
g5
tI-1
tp3670
a((g67
g68
tI-1
tp3671
a((g70
g71
tI-1
tp3672
a((g73
g74
tI-1
tp3673
a((g193
g194
tI-1
tp3674
a((g298
g299
tI-1
tp3675
a((g301
g302
tI-1
tp3676
asg15
g301
sg16
(dp3677
g18
Nsg19
g42
sg21
I8
ssg19
g22
sg21
I699
sg23
g302
sg18
(dp3678
g18
(dp3679
g87
g307
sg209
I1
sg308
F0.80000000000000004
sg213
I1
sg309
I0
sg310
S'SplatterValues'
p3680
sg312
S'%-#6.3g'
p3681
sg314
F0.17000000000000001
sg315
F10
sg316
g317
sg224
I1
sg318
I0
sg229
I1
sg230
I1
sg108
I0
sg319
I256
sg320
I1
sg210
I1
sg282
I8
sg93
I0
sg217
(dp3682
g18
S'H4sIANn3H04C/2tgSs4rzS2o1EvOL0rVyy3NKclMLCpKrOSKL0pNzs8rLikqTS7hKmSEqOLKS4HI\nFjJ5M7SGMia1BxUya3gzejO1QhWklFQWpHIVsoQypVl4M3gzAhWwangzhzLa+Pn5ef0HAjDhzVCS\n1BkqcPirRkz/oaP2s2aCwEv7kiQ9AC+e0nyRAAAA\n'
p3683
sg19
g102
sg21
I702
ssg323
I0
sg103
I0
sg234
(dp3684
g18
S'H4sIANn3H04C/2tgSs4rzS2o1EvOL0rVyy3NKclMLCpKrOSKL0pNzs8rLikqTS7hKmSEqOLKS4HI\nFjJ5M7SGMia1BxUya3gzejO1QhWklFQWpHIVsoQypVl4M3gzAhWwangzhzLa+Pn5ef0HAjDhzVCS\n1BkqYMt1fXGB7Sv7WTNBYKd9SZIeADd4AQGRAAAA\n'
p3685
sg19
g102
sg21
I701
sssg19
g110
sg21
I700
ssssg19
g110
sg21
I674
sssg19
g3169
sg49
(dp3686
g2
(lp3687
((g4
g5
tI-1
tp3688
a((g30
g5
tI-1
tp3689
a((g32
g33
tI-1
tp3690
a((g35
g36
tI0
tp3691
a((g56
g57
tI0
tp3692
asg15
g56
sg16
(dp3693
g18
Nsg19
g42
sg21
I1
ssg19
g22
sg21
I643
sg23
g57
sg18
(dp3694
g18
(dp3695
g62
(dp3696
g2
(lp3697
((g4
g5
tI-1
tp3698
a((g7
g5
tI-1
tp3699
a((g67
g68
tI-1
tp3700
a((g70
g71
tI-1
tp3701
a((g73
g74
tI-1
tp3702
a((g76
g77
tI-1
tp3703
asg15
g76
sg16
(dp3704
g18
Nsg19
g42
sg21
I8
ssg19
g22
sg21
I645
sg23
g77
sg18
(dp3705
g18
(dp3706
g83
F1
sg84
g85
sg86
I12
sg87
F0
sg88
F0
sg89
I1
sg90
g91
sg92
I0
sg93
I0
sg94
F1.1000000000000001
sg95
(dp3707
g18
Nsg19
g42
sg21
I11
ssg98
I1
sg99
(dp3708
g18
S'H4sIANn3H04C/2tgSs4rzS2o1EvOL0rVyy3NKclMLCpKrOSKL0pNzs8rLikqTS7hKmSEqOLKS4HI\nFjJ5M7SGMia1BxUya3gzejO1QhWklFQWpHIVsoQyZZp4M3gzAhWwangzhzLa+Pn5ef0HAjDhzVCS\n1BnKwcjAwADiliTpAQCk2G9tiQAAAA==\n'
p3709
sg19
g102
sg21
I647
ssg103
I0
sg104
I1
sg105
I0
sg106
g107
sg108
I0
sg109
I1
ssg19
g110
sg21
I646
sssg2943
S''
sg112
g286
sg602
I01
sg115
(dp3710
g18
S'H4sIANn3H04C/2tgSs4rzS2o1EvOL0rVyy3NKclMLCpKrOSKL0pNzs8rLikqTS7hKmSEqOLKS4HI\nFjJ5M7SGMia1BxUya3gzejO1QhWklFQWpHIVsoQypVl4M3gzAhWwangzhzLa+Pn5ef0HAjDhzVCS\n1BkqwIACPtiXJOkBAIHIRA6RAAAA\n'
p3711
sg19
g102
sg21
I648
ssg118
(dp3712
g2
(lp3713
((g4
g5
tI-1
tp3714
a((g7
g5
tI-1
tp3715
a((g67
g68
tI-1
tp3716
a((g70
g71
tI-1
tp3717
a((g73
g74
tI-1
tp3718
a((g126
g127
tI-1
tp3719
a((g129
g130
tI-1
tp3720
asg15
g129
sg16
(dp3721
g18
Nsg19
g42
sg21
I8
ssg19
g22
sg21
I649
sg23
g130
sg18
(dp3722
g18
(dp3723
g135
I2
sg136
g137
sg138
(dp3724
g18
S'H4sIANn3H04C/2tgSs4rzS2o1EvOL0rVyy3NKclMLCpKrOSKL0pNzs8rLikqTS7hKmSEqOLKS4HI\nFjJ5M7SGMia1BxUya3gzejO1QhWklFQWpHIVsoQypVl4M3gzAhWwangzhzLa+Pn5ef0HAjDhzVCS\n1BkqwAAGH+xhdEmSHgBnOGdykQAAAA==\n'
p3725
sg19
g102
sg21
I651
ssg141
(dp3726
g18
S'H4sIANn3H04C/2tgSs4rzS2o1EvOL0rVyy3NKclMLCpKrOSKL0pNzs8rLikqTS7hKmSEqOLKS4HI\nFjJ5M7SGMia1BxUya3gzejO1QhWklFQWpHIVsoQypVl4M3gzAhWwangzhzLa+Pn5ef0HAjDhzVCS\n1BkqwIACPtiXJOkBAIHIRA6RAAAA\n'
p3727
sg19
g102
sg21
I653
ssg144
(dp3728
g18
S'H4sIANn3H04C/2tgSs4rzS2o1EvOL0rVyy3NKclMLCpKrOSKL0pNzs8rLikqTS7hKmSEqOLKS4HI\nFjJ5M7SGMia1BxUya3gzejO1QhWklFQWpHIVsoQypVl4M3gzAhWwangzhzLa+Pn5ef0HAjDhzVCS\n1Bkq4H2C3XZ26FN7BigoSdIDAObNAnCRAAAA\n'
p3729
sg19
g102
sg21
I652
ssg147
I256
sg148
g149
sg93
I0
sg150
I256
sg151
(dp3730
g18
S'H4sIANn3H04C/2tgSs4rzS2o1EvOL0rVyy3NKclMLCpKrOSKL0pNzs8rLikqTS7hKmSEqOLKS4HI\nFjJ5M7SGMia1BxUya3gzejO1QhWklFQWpHIVsoQypVl4M3gzAhWwangzhzLa+Pn5ef0HAjDhzVCS\n1BkqwAAGH+xhdEmSHgBnOGdykQAAAA==\n'
p3731
sg19
g102
sg21
I654
ssg154
(dp3732
g18
S'H4sIANn3H04C/2tgSs4rzS2o1EvOL0rVyy3NKclMLCpKrOSKL0pNzs8rLikqTS7hKmSEqOLKS4HI\nFjJ5M7SGMia1BxUya3gzejO1QhWklFQWpHIVsoQypVl4M3gzAhWwangzhzLa+Pn5ef0HAjDhzVCS\n1BkqwIACPtiXJOkBAIHIRA6RAAAA\n'
p3733
sg19
g102
sg21
I655
ssg157
I0
sg158
(dp3734
g18
S'H4sIANn3H04C/2tgSs4rzS2o1EvOL0rVyy3NKclMLCpKrOSKL0pNzs8rLikqTS7hKmSEqOLKS4HI\nFjJ5M7SGMia1BxUya3gzejO1QhWklFQWpHIVsoQypVl4M3gzAhWwangzhzLa+Pn5ef0HAjDhzVCS\n1BkqwAAGH+xhdEmSHgBnOGdykQAAAA==\n'
p3735
sg19
g102
sg21
I656
ssg103
I0
sg161
F1
sg162
g163
sg108
I0
ssg19
g110
sg21
I650
sssg164
(dp3736
g2
(lp3737
((g4
g5
tI-1
tp3738
a((g7
g5
tI-1
tp3739
a((g67
g68
tI-1
tp3740
a((g70
g71
tI-1
tp3741
a((g73
g74
tI-1
tp3742
a((g76
g77
tI-1
tp3743
asg15
g76
sg16
(dp3744
g18
Nsg19
g42
sg21
I8
ssg19
g22
sg21
I666
sg23
g77
sg18
(dp3745
g18
(dp3746
g83
F1
sg84
g85
sg86
I12
sg87
F0
sg88
F0
sg89
I1
sg90
g91
sg92
I0
sg93
I0
sg94
F1.1000000000000001
sg95
(dp3747
g18
Nsg19
g42
sg21
I11
ssg98
I1
sg99
(dp3748
g18
S'H4sIANn3H04C/2tgSs4rzS2o1EvOL0rVyy3NKclMLCpKrOSKL0pNzs8rLikqTS7hKmSEqOLKS4HI\nFjJ5M7SGMia1BxUya3gzejO1QhWklFQWpHIVsoQyZZp4M3gzAhWwangzhzLa+Pn5ef0HAjDhzVCS\n1BnKwcjAwADiliTpAQCk2G9tiQAAAA==\n'
p3749
sg19
g102
sg21
I668
ssg103
I0
sg104
I1
sg105
I0
sg106
g107
sg108
I0
sg109
I1
ssg19
g110
sg21
I667
sssg150
I256
sg2984
(dp3750
g18
S'H4sIANn3H04C/2tgSs4rzS2o1EvOL0rVyy3NKclMLCpKrOSKL0pNzs8rLikqTS7hKmSEqOLKS4HI\nFjJ5M7SGMia1BxUya3gzejO1QhWklFQWpHIVsoQypVl4M3gzAhWwangzhzLa+Pn5ef0HAjDhzVCS\n1BkqwIACPtiXJOkBAIHIRA6RAAAA\n'
p3751
sg19
g102
sg21
I659
ssg2987
Nsg183
I00
sg19
S''
sg2988
(dp3752
g2
(lp3753
((g4
g5
tI-1
tp3754
a((g7
g5
tI-1
tp3755
a((g67
g68
tI-1
tp3756
a((g70
g71
tI-1
tp3757
a((g73
g74
tI-1
tp3758
a((g193
g194
tI-1
tp3759
a((g196
g197
tI-1
tp3760
a((g199
g200
tI-1
tp3761
a((g202
g203
tI-1
tp3762
asg15
g202
sg16
(dp3763
g18
Nsg19
g42
sg21
I8
ssg19
g22
sg21
I660
sg23
g203
sg18
(dp3764
g18
(dp3765
g87
I1
sg208
I0
sg209
I1
sg210
I1
sg211
g212
sg213
I1
sg214
I2
sg215
I0
sg216
I0
sg217
(dp3766
g18
S'H4sIANn3H04C/2tgSs4rzS2o1EvOL0rVyy3NKclMLCpKrOSKL0pNzs8rLikqTS7hKmSEqOLKS4HI\nFjJ5M7SGMia1BxUya3gzejO1QhWklFQWpHIVsoQypVl4M3gzAhWwangzhzLa+Pn5ef0HAjDhzVCS\n1BkqcPirRkz/oaP2s2aCwEv7kiQ9AC+e0nyRAAAA\n'
p3767
sg19
g102
sg21
I663
ssg220
I0
sg221
(dp3768
g18
S'H4sIANn3H04C/2tgSs4rzS2o1EvOL0rVyy3NKclMLCpKrOSKL0pNzs8rLikqTS7hKmSEqOLKS4HI\nFjJ5M7SGMia1BxUya3gzejO1QhWklFQWpHIVsoQyZZp4M3gzAhWwangzhzLa+Pn5ef0HAjDhzVCS\n1BnKsaCNkQGES5L0ALP9TXGJAAAA\n'
p3769
sg19
g102
sg21
I665
ssg224
I1
sg225
I3
sg226
(dp3770
g18
S'H4sIANn3H04C/2tgSs4rzS2o1EvOL0rVyy3NKclMLCpKrOSKL0pNzs8rLikqTS7hKmSEqOLKS4HI\nFjJ5M7SGMia1BxUya3gzejO1QhWklFQWpHIVsoQyZZp4M3gzAhWwangzhzLa+Pn5ef0HAjDhzVCS\n1BnKwcjAwADCJUl6AJHzi6mJAAAA\n'
p3771
sg19
g102
sg21
I662
ssg229
I1
sg230
I1
sg108
I0
sg231
I0
sg232
F0.5
sg233
I0
sg93
I0
sg103
I0
sg234
(dp3772
g18
S'H4sIANn3H04C/2tgSs4rzS2o1EvOL0rVyy3NKclMLCpKrOSKL0pNzs8rLikqTS7hKmSEqOLKS4HI\nFjJ5M7SGMia1BxUya3gzejO1QhWklFQWpHIVsoQypVl4M3gzAhWwangzhzLa+Pn5ef0HAjDhzVCS\n1BkqYMt1fXGB7Sv7WTNBYKd9SZIeADd4AQGRAAAA\n'
p3773
sg19
g102
sg21
I664
ssg237
F0.01
ssg19
g110
sg21
I661
sssg238
(dp3774
g2
(lp3775
((g4
g5
tI-1
tp3776
a((g7
g5
tI-1
tp3777
a((g67
g68
tI-1
tp3778
a((g70
g71
tI-1
tp3779
a((g73
g74
tI-1
tp3780
a((g246
g247
tI-1
tp3781
a((g249
g250
tI-1
tp3782
a((g252
g253
tI-1
tp3783
a((g255
g256
tI-1
tp3784
asg15
g255
sg16
(dp3785
g18
Nsg19
g42
sg21
I8
ssg19
g22
sg21
I657
sg23
g256
sg18
(dp3786
g18
(dp3787
g261
I1
sg262
S'i'
sg263
I1
sg108
I0
sg103
I0
sg264
I0
sg265
I0
sg93
I0
sg266
I1
sg267
F0.5
sg268
I1
sg269
I1
sg270
I1
sg271
I0
sg272
I1
sg273
I0
sg274
I0
sg275
I0
sg276
I1
ssg19
g110
sg21
I658
sssg277
I00
sg105
I00
sg278
S'blue-red'
p3788
sg280
I01
sg45
S''
sg282
I8
sg283
(dp3789
g18
Nsg19
g42
sg21
I648
ssg285
g286
sg287
S''
sg288
I01
sg289
(dp3790
g2
(lp3791
((g4
g5
tI-1
tp3792
a((g7
g5
tI-1
tp3793
a((g67
g68
tI-1
tp3794
a((g70
g71
tI-1
tp3795
a((g73
g74
tI-1
tp3796
a((g193
g194
tI-1
tp3797
a((g298
g299
tI-1
tp3798
a((g301
g302
tI-1
tp3799
asg15
g301
sg16
(dp3800
g18
Nsg19
g42
sg21
I8
ssg19
g22
sg21
I669
sg23
g302
sg18
(dp3801
g18
(dp3802
g87
g307
sg209
I1
sg308
F0.17000000000000001
sg213
I1
sg309
I0
sg310
S'No vectors'
p3803
sg312
S'%-#6.3g'
p3804
sg314
F0.80000000000000004
sg315
F10
sg316
g317
sg224
I1
sg318
I0
sg229
I1
sg230
I1
sg108
I0
sg319
I256
sg320
I1
sg210
I1
sg282
I8
sg93
I0
sg217
(dp3805
g18
S'H4sIANn3H04C/2tgSs4rzS2o1EvOL0rVyy3NKclMLCpKrOSKL0pNzs8rLikqTS7hKmSEqOLKS4HI\nFjJ5M7SGMia1BxUya3gzejO1QhWklFQWpHIVsoQypVl4M3gzAhWwangzhzLa+Pn5ef0HAjDhzVCS\n1BkqMGsmCLy0P/xVI6b/0FH7kiQ9AGpIg++RAAAA\n'
p3806
sg19
g102
sg21
I672
ssg323
I0
sg103
I0
sg234
(dp3807
g18
S'H4sIANn3H04C/2tgSs4rzS2o1EvOL0rVyy3NKclMLCpKrOSKL0pNzs8rLikqTS7hKmSEqOLKS4HI\nFjJ5M7SGMia1BxUya3gzejO1QhWklFQWpHIVsoQypVl4M3gzAhWwangzhzLa+Pn5ef0HAjDhzVCS\n1BkqMGsmCOy0rxZZ5/6wqsW+JEkPAHMFfKeRAAAA\n'
p3808
sg19
g102
sg21
I671
sssg19
g110
sg21
I670
ssssg19
g110
sg21
I644
sssg745
S'modulemanager.ico'
p3809
ssg19
g110
sg21
I615
ssasg19
g478
sg21
I613
ssg745
S'filter.ico'
p3810
ssg19
g110
sg21
I612
ssasg19
g478
sg21
I389
ssS'parametric_function'
p3811
(dp3812
g18
Nsg19
g42
sg21
I365
sssg19
g110
sg21
I357
ssasg19
g478
sg21
I355
ssg745
S'scene.ico'
p3813
ssg19
g110
sg21
I234
ssasg19
g478
sg21
I107
ssS'running'
p3814
I01
sg2987
Nssg19
g110
sg21
I2
ss.